
test_time_pedf2:     file format elf32-i386


Disassembly of section .init:

00000000 <.init>:
   0:	55                   	push   %ebp
   1:	89 e5                	mov    %esp,%ebp
   3:	53                   	push   %ebx
   4:	83 ec 04             	sub    $0x4,%esp
   7:	a1 38 c0 00 00       	mov    0xc038,%eax
   c:	83 f8 ff             	cmp    $0xffffffff,%eax
   f:	74 1b                	je     0x2c
  11:	bb 38 c0 00 00       	mov    $0xc038,%ebx
  16:	8d 76 00             	lea    0x0(%esi),%esi
  19:	8d bc 27 00 00 00 00 	lea    0x0(%edi,%eiz,1),%edi
  20:	83 eb 04             	sub    $0x4,%ebx
  23:	ff d0                	call   *%eax
  25:	8b 03                	mov    (%ebx),%eax
  27:	83 f8 ff             	cmp    $0xffffffff,%eax
  2a:	75 f4                	jne    0x20
  2c:	83 c4 04             	add    $0x4,%esp
  2f:	5b                   	pop    %ebx
  30:	5d                   	pop    %ebp
  31:	c3                   	ret    

Disassembly of section .text:

00000040 <.text>:
      40:	e8 bb ff ff ff       	call   0x0
      45:	8d 76 00             	lea    0x0(%esi),%esi
      48:	e8 43 09 00 00       	call   0x990
      4d:	e8 de 11 00 00       	call   0x1230
      52:	50                   	push   %eax
      53:	e8 78 ae 00 00       	call   0xaed0
      58:	e8 a3 28 00 00       	call   0x2900
      5d:	90                   	nop
      5e:	90                   	nop
      5f:	90                   	nop
      60:	55                   	push   %ebp
      61:	89 e5                	mov    %esp,%ebp
      63:	57                   	push   %edi
      64:	56                   	push   %esi
      65:	53                   	push   %ebx
      66:	83 ec 2c             	sub    $0x2c,%esp
      69:	8b 75 0c             	mov    0xc(%ebp),%esi
      6c:	8b 5d 08             	mov    0x8(%ebp),%ebx
      6f:	8b 7d 10             	mov    0x10(%ebp),%edi
      72:	8b 46 28             	mov    0x28(%esi),%eax
      75:	85 c0                	test   %eax,%eax
      77:	0f 84 c3 00 00 00    	je     0x140
      7d:	89 03                	mov    %eax,(%ebx)
      7f:	8b 06                	mov    (%esi),%eax
      81:	c7 43 14 00 00 00 00 	movl   $0x0,0x14(%ebx)
      88:	89 5b 1c             	mov    %ebx,0x1c(%ebx)
      8b:	c7 43 40 00 00 00 00 	movl   $0x0,0x40(%ebx)
      92:	89 43 10             	mov    %eax,0x10(%ebx)
      95:	8b 46 04             	mov    0x4(%esi),%eax
      98:	c7 43 18 00 00 00 00 	movl   $0x0,0x18(%ebx)
      9f:	c7 43 44 00 00 00 00 	movl   $0x0,0x44(%ebx)
      a6:	89 43 20             	mov    %eax,0x20(%ebx)
      a9:	8b 46 08             	mov    0x8(%esi),%eax
      ac:	89 43 24             	mov    %eax,0x24(%ebx)
      af:	8b 46 0c             	mov    0xc(%esi),%eax
      b2:	89 43 28             	mov    %eax,0x28(%ebx)
      b5:	8b 46 10             	mov    0x10(%esi),%eax
      b8:	89 43 2c             	mov    %eax,0x2c(%ebx)
      bb:	8b 46 14             	mov    0x14(%esi),%eax
      be:	89 43 30             	mov    %eax,0x30(%ebx)
      c1:	8b 46 18             	mov    0x18(%esi),%eax
      c4:	89 43 34             	mov    %eax,0x34(%ebx)
      c7:	8b 46 1c             	mov    0x1c(%esi),%eax
      ca:	89 43 38             	mov    %eax,0x38(%ebx)
      cd:	8b 46 20             	mov    0x20(%esi),%eax
      d0:	89 43 3c             	mov    %eax,0x3c(%ebx)
      d3:	8b 46 2c             	mov    0x2c(%esi),%eax
      d6:	89 1c 24             	mov    %ebx,(%esp)
      d9:	89 44 24 08          	mov    %eax,0x8(%esp)
      dd:	8d 46 24             	lea    0x24(%esi),%eax
      e0:	89 44 24 04          	mov    %eax,0x4(%esp)
      e4:	e8 d7 54 00 00       	call   0x55c0
      e9:	8b 43 08             	mov    0x8(%ebx),%eax
      ec:	03 46 2c             	add    0x2c(%esi),%eax
      ef:	c7 43 04 00 00 00 00 	movl   $0x0,0x4(%ebx)
      f6:	c7 40 fc e0 28 00 00 	movl   $0x28e0,-0x4(%eax)
      fd:	8d 50 cc             	lea    -0x34(%eax),%edx
     100:	c7 40 cc 00 00 00 00 	movl   $0x0,-0x34(%eax)
     107:	8d 45 e4             	lea    -0x1c(%ebp),%eax
     10a:	89 7a 24             	mov    %edi,0x24(%edx)
     10d:	c7 42 28 08 00 00 00 	movl   $0x8,0x28(%edx)
     114:	c7 42 2c 00 02 00 00 	movl   $0x200,0x2c(%edx)
     11b:	89 53 0c             	mov    %edx,0xc(%ebx)
     11e:	89 7d e4             	mov    %edi,-0x1c(%ebp)
     121:	89 1c 24             	mov    %ebx,(%esp)
     124:	c7 44 24 08 00 40 00 	movl   $0x4000,0x8(%esp)
     12b:	00 
     12c:	89 44 24 04          	mov    %eax,0x4(%esp)
     130:	e8 db 8b 00 00       	call   0x8d10
     135:	83 c4 2c             	add    $0x2c,%esp
     138:	5b                   	pop    %ebx
     139:	5e                   	pop    %esi
     13a:	5f                   	pop    %edi
     13b:	5d                   	pop    %ebp
     13c:	c3                   	ret    
     13d:	8d 76 00             	lea    0x0(%esi),%esi
     140:	a1 80 02 50 00       	mov    0x500280,%eax
     145:	e9 33 ff ff ff       	jmp    0x7d
     14a:	90                   	nop
     14b:	90                   	nop
     14c:	90                   	nop
     14d:	90                   	nop
     14e:	90                   	nop
     14f:	90                   	nop
     150:	55                   	push   %ebp
     151:	89 e5                	mov    %esp,%ebp
     153:	57                   	push   %edi
     154:	56                   	push   %esi
     155:	53                   	push   %ebx
     156:	83 ec 1c             	sub    $0x1c,%esp
     159:	8b 1d 58 02 50 00    	mov    0x500258,%ebx
     15f:	e8 3c 27 00 00       	call   0x28a0
     164:	8b 4b 04             	mov    0x4(%ebx),%ecx
     167:	85 c9                	test   %ecx,%ecx
     169:	89 ca                	mov    %ecx,%edx
     16b:	0f 84 df 00 00 00    	je     0x250
     171:	8b 41 04             	mov    0x4(%ecx),%eax
     174:	83 f8 67             	cmp    $0x67,%eax
     177:	77 1f                	ja     0x198
     179:	8d b4 26 00 00 00 00 	lea    0x0(%esi,%eiz,1),%esi
     180:	83 f8 58             	cmp    $0x58,%eax
     183:	74 3b                	je     0x1c0
     185:	8b 52 0c             	mov    0xc(%edx),%edx
     188:	85 d2                	test   %edx,%edx
     18a:	0f 84 c0 00 00 00    	je     0x250
     190:	8b 42 04             	mov    0x4(%edx),%eax
     193:	83 f8 67             	cmp    $0x67,%eax
     196:	76 e8                	jbe    0x180
     198:	83 e8 58             	sub    $0x58,%eax
     19b:	89 42 04             	mov    %eax,0x4(%edx)
     19e:	83 6b 0c 58          	subl   $0x58,0xc(%ebx)
     1a2:	85 c0                	test   %eax,%eax
     1a4:	74 27                	je     0x1cd
     1a6:	03 02                	add    (%edx),%eax
     1a8:	c7 00 58 00 00 00    	movl   $0x58,(%eax)
     1ae:	8d 58 04             	lea    0x4(%eax),%ebx
     1b1:	e8 9a 26 00 00       	call   0x2850
     1b6:	83 c4 1c             	add    $0x1c,%esp
     1b9:	89 d8                	mov    %ebx,%eax
     1bb:	5b                   	pop    %ebx
     1bc:	5e                   	pop    %esi
     1bd:	5f                   	pop    %edi
     1be:	5d                   	pop    %ebp
     1bf:	c3                   	ret    
     1c0:	c7 42 04 00 00 00 00 	movl   $0x0,0x4(%edx)
     1c7:	31 c0                	xor    %eax,%eax
     1c9:	83 6b 0c 58          	subl   $0x58,0xc(%ebx)
     1cd:	8b 33                	mov    (%ebx),%esi
     1cf:	83 fe 01             	cmp    $0x1,%esi
     1d2:	74 2c                	je     0x200
     1d4:	8b 7a 08             	mov    0x8(%edx),%edi
     1d7:	85 ff                	test   %edi,%edi
     1d9:	74 3b                	je     0x216
     1db:	8b 4a 0c             	mov    0xc(%edx),%ecx
     1de:	85 c9                	test   %ecx,%ecx
     1e0:	74 4d                	je     0x22f
     1e2:	89 4f 0c             	mov    %ecx,0xc(%edi)
     1e5:	8b 4a 0c             	mov    0xc(%edx),%ecx
     1e8:	83 ee 01             	sub    $0x1,%esi
     1eb:	89 33                	mov    %esi,(%ebx)
     1ed:	89 79 08             	mov    %edi,0x8(%ecx)
     1f0:	eb b4                	jmp    0x1a6
     1f2:	8d b4 26 00 00 00 00 	lea    0x0(%esi,%eiz,1),%esi
     1f9:	8d bc 27 00 00 00 00 	lea    0x0(%edi,%eiz,1),%edi
     200:	c7 43 04 00 00 00 00 	movl   $0x0,0x4(%ebx)
     207:	c7 43 08 00 00 00 00 	movl   $0x0,0x8(%ebx)
     20e:	c7 03 00 00 00 00    	movl   $0x0,(%ebx)
     214:	eb 90                	jmp    0x1a6
     216:	85 f6                	test   %esi,%esi
     218:	74 8c                	je     0x1a6
     21a:	8b 49 0c             	mov    0xc(%ecx),%ecx
     21d:	83 2b 01             	subl   $0x1,(%ebx)
     220:	89 4b 04             	mov    %ecx,0x4(%ebx)
     223:	c7 41 08 00 00 00 00 	movl   $0x0,0x8(%ecx)
     22a:	e9 77 ff ff ff       	jmp    0x1a6
     22f:	85 f6                	test   %esi,%esi
     231:	0f 84 6f ff ff ff    	je     0x1a6
     237:	8b 4b 08             	mov    0x8(%ebx),%ecx
     23a:	83 2b 01             	subl   $0x1,(%ebx)
     23d:	8b 49 08             	mov    0x8(%ecx),%ecx
     240:	89 4b 08             	mov    %ecx,0x8(%ebx)
     243:	c7 41 0c 00 00 00 00 	movl   $0x0,0xc(%ecx)
     24a:	e9 57 ff ff ff       	jmp    0x1a6
     24f:	90                   	nop
     250:	89 1c 24             	mov    %ebx,(%esp)
     253:	31 db                	xor    %ebx,%ebx
     255:	e8 76 27 00 00       	call   0x29d0
     25a:	e9 52 ff ff ff       	jmp    0x1b1
     25f:	90                   	nop
     260:	55                   	push   %ebp
     261:	b8 01 00 00 00       	mov    $0x1,%eax
     266:	89 e5                	mov    %esp,%ebp
     268:	56                   	push   %esi
     269:	53                   	push   %ebx
     26a:	81 ec c0 00 00 00    	sub    $0xc0,%esp
     270:	8b 0d ec 04 50 00    	mov    0x5004ec,%ecx
     276:	8b 15 04 01 40 00    	mov    0x400104,%edx
     27c:	8d 1c 95 00 00 00 00 	lea    0x0(,%edx,4),%ebx
     283:	f0 0f c1 83 08 01 40 	lock xadd %eax,0x400108(%ebx)
     28a:	00 
     28b:	8b 1d 18 04 50 00    	mov    0x500418,%ebx
     291:	8b 43 20             	mov    0x20(%ebx),%eax
     294:	c1 e8 18             	shr    $0x18,%eax
     297:	85 c0                	test   %eax,%eax
     299:	0f 85 71 02 00 00    	jne    0x510
     29f:	90                   	nop
     2a0:	8b 04 95 08 01 40 00 	mov    0x400108(,%edx,4),%eax
     2a7:	39 c1                	cmp    %eax,%ecx
     2a9:	77 f5                	ja     0x2a0
     2ab:	a1 04 01 40 00       	mov    0x400104,%eax
     2b0:	85 c0                	test   %eax,%eax
     2b2:	0f 94 c0             	sete   %al
     2b5:	0f b6 c0             	movzbl %al,%eax
     2b8:	a3 04 01 40 00       	mov    %eax,0x400104
     2bd:	c7 04 95 08 01 40 00 	movl   $0x0,0x400108(,%edx,4)
     2c4:	00 00 00 00 
     2c8:	8b 43 20             	mov    0x20(%ebx),%eax
     2cb:	c1 e8 18             	shr    $0x18,%eax
     2ce:	85 c0                	test   %eax,%eax
     2d0:	0f 85 5a 02 00 00    	jne    0x530
     2d6:	c7 45 e4 00 00 00 00 	movl   $0x0,-0x1c(%ebp)
     2dd:	8b 45 e4             	mov    -0x1c(%ebp),%eax
     2e0:	3d ff ff ff 7f       	cmp    $0x7fffffff,%eax
     2e5:	0f 84 25 03 00 00    	je     0x610
     2eb:	8b 55 e4             	mov    -0x1c(%ebp),%edx
     2ee:	31 c0                	xor    %eax,%eax
     2f0:	85 d2                	test   %edx,%edx
     2f2:	0f 84 18 03 00 00    	je     0x610
     2f8:	89 45 e0             	mov    %eax,-0x20(%ebp)
     2fb:	8b 45 e0             	mov    -0x20(%ebp),%eax
     2fe:	c7 85 50 ff ff ff 00 	movl   $0x0,-0xb0(%ebp)
     305:	00 00 00 
     308:	c7 85 68 ff ff ff 00 	movl   $0x0,-0x98(%ebp)
     30f:	00 00 00 
     312:	c7 85 6c ff ff ff 00 	movl   $0x0,-0x94(%ebp)
     319:	00 00 00 
     31c:	89 85 70 ff ff ff    	mov    %eax,-0x90(%ebp)
     322:	8b 45 e4             	mov    -0x1c(%ebp),%eax
     325:	c7 85 60 ff ff ff 00 	movl   $0x0,-0xa0(%ebp)
     32c:	00 00 00 
     32f:	c7 85 64 ff ff ff 00 	movl   $0x0,-0x9c(%ebp)
     336:	00 00 00 
     339:	c7 85 58 ff ff ff 00 	movl   $0x0,-0xa8(%ebp)
     340:	00 00 00 
     343:	c7 85 5c ff ff ff 00 	movl   $0x0,-0xa4(%ebp)
     34a:	00 00 00 
     34d:	89 85 54 ff ff ff    	mov    %eax,-0xac(%ebp)
     353:	c7 85 74 ff ff ff 00 	movl   $0x0,-0x8c(%ebp)
     35a:	00 00 00 
     35d:	c7 85 78 ff ff ff 00 	movl   $0x0,-0x88(%ebp)
     364:	00 00 00 
     367:	c7 85 7c ff ff ff 00 	movl   $0x4000,-0x84(%ebp)
     36e:	40 00 00 
     371:	e8 da fd ff ff       	call   0x150
     376:	c7 44 24 08 48 00 00 	movl   $0x48,0x8(%esp)
     37d:	00 
     37e:	89 c3                	mov    %eax,%ebx
     380:	8d 85 50 ff ff ff    	lea    -0xb0(%ebp),%eax
     386:	89 44 24 04          	mov    %eax,0x4(%esp)
     38a:	89 1c 24             	mov    %ebx,(%esp)
     38d:	e8 ce fc ff ff       	call   0x60
     392:	c7 45 ec ff ff ff 7f 	movl   $0x7fffffff,-0x14(%ebp)
     399:	8b 45 ec             	mov    -0x14(%ebp),%eax
     39c:	3d ff ff ff 7f       	cmp    $0x7fffffff,%eax
     3a1:	0f 84 79 02 00 00    	je     0x620
     3a7:	8b 55 ec             	mov    -0x14(%ebp),%edx
     3aa:	31 c0                	xor    %eax,%eax
     3ac:	85 d2                	test   %edx,%edx
     3ae:	0f 84 6c 02 00 00    	je     0x620
     3b4:	89 45 e8             	mov    %eax,-0x18(%ebp)
     3b7:	8b 45 e8             	mov    -0x18(%ebp),%eax
     3ba:	c7 45 80 01 00 00 00 	movl   $0x1,-0x80(%ebp)
     3c1:	c7 45 98 00 00 00 00 	movl   $0x0,-0x68(%ebp)
     3c8:	c7 45 9c 00 00 00 00 	movl   $0x0,-0x64(%ebp)
     3cf:	89 45 a0             	mov    %eax,-0x60(%ebp)
     3d2:	8b 45 ec             	mov    -0x14(%ebp),%eax
     3d5:	c7 45 90 00 00 00 00 	movl   $0x0,-0x70(%ebp)
     3dc:	c7 45 94 00 00 00 00 	movl   $0x0,-0x6c(%ebp)
     3e3:	c7 45 88 00 00 00 00 	movl   $0x0,-0x78(%ebp)
     3ea:	c7 45 8c 00 00 00 00 	movl   $0x0,-0x74(%ebp)
     3f1:	89 45 84             	mov    %eax,-0x7c(%ebp)
     3f4:	c7 45 a4 00 00 00 00 	movl   $0x0,-0x5c(%ebp)
     3fb:	c7 45 a8 00 00 00 00 	movl   $0x0,-0x58(%ebp)
     402:	c7 45 ac 00 40 00 00 	movl   $0x4000,-0x54(%ebp)
     409:	e8 42 fd ff ff       	call   0x150
     40e:	8d 55 80             	lea    -0x80(%ebp),%edx
     411:	c7 44 24 08 a0 73 00 	movl   $0x73a0,0x8(%esp)
     418:	00 
     419:	89 54 24 04          	mov    %edx,0x4(%esp)
     41d:	89 04 24             	mov    %eax,(%esp)
     420:	e8 3b fc ff ff       	call   0x60
     425:	8b 0d ec 04 50 00    	mov    0x5004ec,%ecx
     42b:	b8 01 00 00 00       	mov    $0x1,%eax
     430:	8b 15 04 01 40 00    	mov    0x400104,%edx
     436:	8d 34 95 00 00 00 00 	lea    0x0(,%edx,4),%esi
     43d:	f0 0f c1 86 08 01 40 	lock xadd %eax,0x400108(%esi)
     444:	00 
     445:	a1 18 04 50 00       	mov    0x500418,%eax
     44a:	8b 40 20             	mov    0x20(%eax),%eax
     44d:	c1 e8 18             	shr    $0x18,%eax
     450:	85 c0                	test   %eax,%eax
     452:	0f 85 78 01 00 00    	jne    0x5d0
     458:	90                   	nop
     459:	8d b4 26 00 00 00 00 	lea    0x0(%esi,%eiz,1),%esi
     460:	8b 04 95 08 01 40 00 	mov    0x400108(,%edx,4),%eax
     467:	39 c1                	cmp    %eax,%ecx
     469:	77 f5                	ja     0x460
     46b:	a1 04 01 40 00       	mov    0x400104,%eax
     470:	85 c0                	test   %eax,%eax
     472:	0f 94 c0             	sete   %al
     475:	0f b6 c0             	movzbl %al,%eax
     478:	a3 04 01 40 00       	mov    %eax,0x400104
     47d:	c7 04 95 08 01 40 00 	movl   $0x0,0x400108(,%edx,4)
     484:	00 00 00 00 
     488:	8b 0d ec 04 50 00    	mov    0x5004ec,%ecx
     48e:	b8 01 00 00 00       	mov    $0x1,%eax
     493:	8b 15 04 01 40 00    	mov    0x400104,%edx
     499:	c6 05 84 02 50 00 01 	movb   $0x1,0x500284
     4a0:	8d 34 95 00 00 00 00 	lea    0x0(,%edx,4),%esi
     4a7:	f0 0f c1 86 08 01 40 	lock xadd %eax,0x400108(%esi)
     4ae:	00 
     4af:	a1 18 04 50 00       	mov    0x500418,%eax
     4b4:	8b 40 20             	mov    0x20(%eax),%eax
     4b7:	c1 e8 18             	shr    $0x18,%eax
     4ba:	85 c0                	test   %eax,%eax
     4bc:	0f 85 2e 01 00 00    	jne    0x5f0
     4c2:	8d b4 26 00 00 00 00 	lea    0x0(%esi,%eiz,1),%esi
     4c9:	8d bc 27 00 00 00 00 	lea    0x0(%edi,%eiz,1),%edi
     4d0:	8b 04 95 08 01 40 00 	mov    0x400108(,%edx,4),%eax
     4d7:	39 c1                	cmp    %eax,%ecx
     4d9:	77 f5                	ja     0x4d0
     4db:	a1 04 01 40 00       	mov    0x400104,%eax
     4e0:	85 c0                	test   %eax,%eax
     4e2:	0f 94 c0             	sete   %al
     4e5:	0f b6 c0             	movzbl %al,%eax
     4e8:	a3 04 01 40 00       	mov    %eax,0x400104
     4ed:	c7 04 95 08 01 40 00 	movl   $0x0,0x400108(,%edx,4)
     4f4:	00 00 00 00 
     4f8:	8b 43 0c             	mov    0xc(%ebx),%eax
     4fb:	89 04 24             	mov    %eax,(%esp)
     4fe:	e8 9d 9a 00 00       	call   0x9fa0
     503:	81 c4 c0 00 00 00    	add    $0xc0,%esp
     509:	5b                   	pop    %ebx
     50a:	5e                   	pop    %esi
     50b:	5d                   	pop    %ebp
     50c:	c3                   	ret    
     50d:	8d 76 00             	lea    0x0(%esi),%esi
     510:	8b 04 95 08 01 40 00 	mov    0x400108(,%edx,4),%eax
     517:	85 c0                	test   %eax,%eax
     519:	0f 84 a9 fd ff ff    	je     0x2c8
     51f:	8b 04 95 08 01 40 00 	mov    0x400108(,%edx,4),%eax
     526:	85 c0                	test   %eax,%eax
     528:	75 e6                	jne    0x510
     52a:	e9 99 fd ff ff       	jmp    0x2c8
     52f:	90                   	nop
     530:	c7 45 f4 ff ff ff 7f 	movl   $0x7fffffff,-0xc(%ebp)
     537:	8b 45 f4             	mov    -0xc(%ebp),%eax
     53a:	3d ff ff ff 7f       	cmp    $0x7fffffff,%eax
     53f:	0f 84 eb 00 00 00    	je     0x630
     545:	8b 55 f4             	mov    -0xc(%ebp),%edx
     548:	31 c0                	xor    %eax,%eax
     54a:	85 d2                	test   %edx,%edx
     54c:	0f 84 de 00 00 00    	je     0x630
     552:	89 45 f0             	mov    %eax,-0x10(%ebp)
     555:	8b 45 f0             	mov    -0x10(%ebp),%eax
     558:	c7 45 b0 00 00 00 00 	movl   $0x0,-0x50(%ebp)
     55f:	c7 45 c8 00 00 00 00 	movl   $0x0,-0x38(%ebp)
     566:	c7 45 cc 00 00 00 00 	movl   $0x0,-0x34(%ebp)
     56d:	89 45 d0             	mov    %eax,-0x30(%ebp)
     570:	8b 45 f4             	mov    -0xc(%ebp),%eax
     573:	c7 45 c0 00 00 00 00 	movl   $0x0,-0x40(%ebp)
     57a:	c7 45 c4 00 00 00 00 	movl   $0x0,-0x3c(%ebp)
     581:	c7 45 b8 00 00 00 00 	movl   $0x0,-0x48(%ebp)
     588:	c7 45 bc 00 00 00 00 	movl   $0x0,-0x44(%ebp)
     58f:	89 45 b4             	mov    %eax,-0x4c(%ebp)
     592:	c7 45 d4 00 00 00 00 	movl   $0x0,-0x2c(%ebp)
     599:	c7 45 d8 00 00 00 00 	movl   $0x0,-0x28(%ebp)
     5a0:	c7 45 dc 00 40 00 00 	movl   $0x4000,-0x24(%ebp)
     5a7:	e8 a4 fb ff ff       	call   0x150
     5ac:	c7 44 24 08 a0 73 00 	movl   $0x73a0,0x8(%esp)
     5b3:	00 
     5b4:	89 c3                	mov    %eax,%ebx
     5b6:	8d 45 b0             	lea    -0x50(%ebp),%eax
     5b9:	89 44 24 04          	mov    %eax,0x4(%esp)
     5bd:	89 1c 24             	mov    %ebx,(%esp)
     5c0:	e8 9b fa ff ff       	call   0x60
     5c5:	e9 5b fe ff ff       	jmp    0x425
     5ca:	8d b6 00 00 00 00    	lea    0x0(%esi),%esi
     5d0:	8b 04 95 08 01 40 00 	mov    0x400108(,%edx,4),%eax
     5d7:	85 c0                	test   %eax,%eax
     5d9:	0f 84 a9 fe ff ff    	je     0x488
     5df:	8b 04 95 08 01 40 00 	mov    0x400108(,%edx,4),%eax
     5e6:	85 c0                	test   %eax,%eax
     5e8:	75 e6                	jne    0x5d0
     5ea:	e9 99 fe ff ff       	jmp    0x488
     5ef:	90                   	nop
     5f0:	8b 04 95 08 01 40 00 	mov    0x400108(,%edx,4),%eax
     5f7:	85 c0                	test   %eax,%eax
     5f9:	0f 84 f9 fe ff ff    	je     0x4f8
     5ff:	8b 04 95 08 01 40 00 	mov    0x400108(,%edx,4),%eax
     606:	85 c0                	test   %eax,%eax
     608:	75 e6                	jne    0x5f0
     60a:	e9 e9 fe ff ff       	jmp    0x4f8
     60f:	90                   	nop
     610:	a1 18 04 50 00       	mov    0x500418,%eax
     615:	8b 40 20             	mov    0x20(%eax),%eax
     618:	c1 e8 18             	shr    $0x18,%eax
     61b:	e9 d8 fc ff ff       	jmp    0x2f8
     620:	a1 18 04 50 00       	mov    0x500418,%eax
     625:	8b 40 20             	mov    0x20(%eax),%eax
     628:	c1 e8 18             	shr    $0x18,%eax
     62b:	e9 84 fd ff ff       	jmp    0x3b4
     630:	a1 18 04 50 00       	mov    0x500418,%eax
     635:	8b 40 20             	mov    0x20(%eax),%eax
     638:	c1 e8 18             	shr    $0x18,%eax
     63b:	e9 12 ff ff ff       	jmp    0x552
     640:	55                   	push   %ebp
     641:	b8 01 00 00 00       	mov    $0x1,%eax
     646:	89 e5                	mov    %esp,%ebp
     648:	57                   	push   %edi
     649:	56                   	push   %esi
     64a:	53                   	push   %ebx
     64b:	83 ec 7c             	sub    $0x7c,%esp
     64e:	8b 0d ec 04 50 00    	mov    0x5004ec,%ecx
     654:	8b 15 04 01 40 00    	mov    0x400104,%edx
     65a:	8d 1c 95 00 00 00 00 	lea    0x0(,%edx,4),%ebx
     661:	f0 0f c1 83 08 01 40 	lock xadd %eax,0x400108(%ebx)
     668:	00 
     669:	8b 1d 18 04 50 00    	mov    0x500418,%ebx
     66f:	8b 43 20             	mov    0x20(%ebx),%eax
     672:	8d 73 20             	lea    0x20(%ebx),%esi
     675:	c1 e8 18             	shr    $0x18,%eax
     678:	85 c0                	test   %eax,%eax
     67a:	0f 85 a0 01 00 00    	jne    0x820
     680:	8b 04 95 08 01 40 00 	mov    0x400108(,%edx,4),%eax
     687:	39 c1                	cmp    %eax,%ecx
     689:	77 f5                	ja     0x680
     68b:	a1 04 01 40 00       	mov    0x400104,%eax
     690:	8d 73 20             	lea    0x20(%ebx),%esi
     693:	85 c0                	test   %eax,%eax
     695:	0f 94 c0             	sete   %al
     698:	0f b6 c0             	movzbl %al,%eax
     69b:	a3 04 01 40 00       	mov    %eax,0x400104
     6a0:	c7 04 95 08 01 40 00 	movl   $0x0,0x400108(,%edx,4)
     6a7:	00 00 00 00 
     6ab:	8b 06                	mov    (%esi),%eax
     6ad:	c1 e8 18             	shr    $0x18,%eax
     6b0:	85 c0                	test   %eax,%eax
     6b2:	0f 85 5c 01 00 00    	jne    0x814
     6b8:	a1 14 05 50 00       	mov    0x500514,%eax
     6bd:	85 c0                	test   %eax,%eax
     6bf:	0f 84 4f 01 00 00    	je     0x814
     6c5:	8b 70 04             	mov    0x4(%eax),%esi
     6c8:	85 f6                	test   %esi,%esi
     6ca:	0f 84 44 01 00 00    	je     0x814
     6d0:	c7 40 04 00 00 00 00 	movl   $0x0,0x4(%eax)
     6d7:	29 35 1c 05 50 00    	sub    %esi,0x50051c
     6dd:	8b 58 04             	mov    0x4(%eax),%ebx
     6e0:	85 db                	test   %ebx,%ebx
     6e2:	75 3c                	jne    0x720
     6e4:	8b 0d 10 05 50 00    	mov    0x500510,%ecx
     6ea:	83 f9 01             	cmp    $0x1,%ecx
     6ed:	0f 84 9d 01 00 00    	je     0x890
     6f3:	8b 50 08             	mov    0x8(%eax),%edx
     6f6:	85 d2                	test   %edx,%edx
     6f8:	0f 84 32 02 00 00    	je     0x930
     6fe:	8b 78 0c             	mov    0xc(%eax),%edi
     701:	85 ff                	test   %edi,%edi
     703:	0f 84 54 02 00 00    	je     0x95d
     709:	89 7a 0c             	mov    %edi,0xc(%edx)
     70c:	8b 48 0c             	mov    0xc(%eax),%ecx
     70f:	83 2d 10 05 50 00 01 	subl   $0x1,0x500510
     716:	8b 58 04             	mov    0x4(%eax),%ebx
     719:	89 51 08             	mov    %edx,0x8(%ecx)
     71c:	8d 74 26 00          	lea    0x0(%esi,%eiz,1),%esi
     720:	c1 e3 0c             	shl    $0xc,%ebx
     723:	8b 3d 58 02 50 00    	mov    0x500258,%edi
     729:	03 18                	add    (%eax),%ebx
     72b:	e8 70 21 00 00       	call   0x28a0
     730:	85 db                	test   %ebx,%ebx
     732:	0f 84 ca 00 00 00    	je     0x802
     738:	89 f0                	mov    %esi,%eax
     73a:	c1 e0 0c             	shl    $0xc,%eax
     73d:	83 f8 0f             	cmp    $0xf,%eax
     740:	0f 86 bc 00 00 00    	jbe    0x802
     746:	89 1b                	mov    %ebx,(%ebx)
     748:	89 43 04             	mov    %eax,0x4(%ebx)
     74b:	c7 43 08 00 00 00 00 	movl   $0x0,0x8(%ebx)
     752:	c7 43 0c 00 00 00 00 	movl   $0x0,0xc(%ebx)
     759:	01 47 0c             	add    %eax,0xc(%edi)
     75c:	8b 47 04             	mov    0x4(%edi),%eax
     75f:	8b 0b                	mov    (%ebx),%ecx
     761:	8b 73 04             	mov    0x4(%ebx),%esi
     764:	85 c0                	test   %eax,%eax
     766:	0f 84 d6 00 00 00    	je     0x842
     76c:	8b 10                	mov    (%eax),%edx
     76e:	8d 34 31             	lea    (%ecx,%esi,1),%esi
     771:	89 55 a4             	mov    %edx,-0x5c(%ebp)
     774:	89 c2                	mov    %eax,%edx
     776:	3b 75 a4             	cmp    -0x5c(%ebp),%esi
     779:	74 10                	je     0x78b
     77b:	90                   	nop
     77c:	8d 74 26 00          	lea    0x0(%esi,%eiz,1),%esi
     780:	8b 52 0c             	mov    0xc(%edx),%edx
     783:	85 d2                	test   %edx,%edx
     785:	74 04                	je     0x78b
     787:	3b 32                	cmp    (%edx),%esi
     789:	75 f5                	jne    0x780
     78b:	8b 75 a4             	mov    -0x5c(%ebp),%esi
     78e:	03 70 04             	add    0x4(%eax),%esi
     791:	39 f1                	cmp    %esi,%ecx
     793:	74 1f                	je     0x7b4
     795:	8d 74 26 00          	lea    0x0(%esi,%eiz,1),%esi
     799:	8d bc 27 00 00 00 00 	lea    0x0(%edi,%eiz,1),%edi
     7a0:	8b 40 0c             	mov    0xc(%eax),%eax
     7a3:	85 c0                	test   %eax,%eax
     7a5:	0f 84 95 00 00 00    	je     0x840
     7ab:	8b 30                	mov    (%eax),%esi
     7ad:	03 70 04             	add    0x4(%eax),%esi
     7b0:	39 f1                	cmp    %esi,%ecx
     7b2:	75 ec                	jne    0x7a0
     7b4:	89 c1                	mov    %eax,%ecx
     7b6:	89 d0                	mov    %edx,%eax
     7b8:	85 c0                	test   %eax,%eax
     7ba:	74 3c                	je     0x7f8
     7bc:	8b 50 04             	mov    0x4(%eax),%edx
     7bf:	01 53 04             	add    %edx,0x4(%ebx)
     7c2:	8b 37                	mov    (%edi),%esi
     7c4:	83 fe 01             	cmp    $0x1,%esi
     7c7:	89 75 94             	mov    %esi,-0x6c(%ebp)
     7ca:	0f 84 a0 00 00 00    	je     0x870
     7d0:	8b 50 08             	mov    0x8(%eax),%edx
     7d3:	85 d2                	test   %edx,%edx
     7d5:	0f 84 e5 00 00 00    	je     0x8c0
     7db:	8b 70 0c             	mov    0xc(%eax),%esi
     7de:	85 f6                	test   %esi,%esi
     7e0:	89 75 a4             	mov    %esi,-0x5c(%ebp)
     7e3:	0f 84 fa 00 00 00    	je     0x8e3
     7e9:	8b 75 a4             	mov    -0x5c(%ebp),%esi
     7ec:	89 72 0c             	mov    %esi,0xc(%edx)
     7ef:	8b 40 0c             	mov    0xc(%eax),%eax
     7f2:	83 2f 01             	subl   $0x1,(%edi)
     7f5:	89 50 08             	mov    %edx,0x8(%eax)
     7f8:	85 c9                	test   %ecx,%ecx
     7fa:	74 06                	je     0x802
     7fc:	8b 43 04             	mov    0x4(%ebx),%eax
     7ff:	01 41 04             	add    %eax,0x4(%ecx)
     802:	e8 49 20 00 00       	call   0x2850
     807:	a1 14 05 50 00       	mov    0x500514,%eax
     80c:	85 c0                	test   %eax,%eax
     80e:	0f 85 b1 fe ff ff    	jne    0x6c5
     814:	83 c4 7c             	add    $0x7c,%esp
     817:	5b                   	pop    %ebx
     818:	5e                   	pop    %esi
     819:	5f                   	pop    %edi
     81a:	5d                   	pop    %ebp
     81b:	c3                   	ret    
     81c:	8d 74 26 00          	lea    0x0(%esi,%eiz,1),%esi
     820:	8b 04 95 08 01 40 00 	mov    0x400108(,%edx,4),%eax
     827:	85 c0                	test   %eax,%eax
     829:	0f 84 7c fe ff ff    	je     0x6ab
     82f:	8b 04 95 08 01 40 00 	mov    0x400108(,%edx,4),%eax
     836:	85 c0                	test   %eax,%eax
     838:	75 e6                	jne    0x820
     83a:	e9 6c fe ff ff       	jmp    0x6ab
     83f:	90                   	nop
     840:	89 d0                	mov    %edx,%eax
     842:	8b 17                	mov    (%edi),%edx
     844:	85 d2                	test   %edx,%edx
     846:	0f 85 c4 00 00 00    	jne    0x910
     84c:	c7 43 08 00 00 00 00 	movl   $0x0,0x8(%ebx)
     853:	31 c9                	xor    %ecx,%ecx
     855:	c7 43 0c 00 00 00 00 	movl   $0x0,0xc(%ebx)
     85c:	89 5f 04             	mov    %ebx,0x4(%edi)
     85f:	89 5f 08             	mov    %ebx,0x8(%edi)
     862:	83 07 01             	addl   $0x1,(%edi)
     865:	e9 4e ff ff ff       	jmp    0x7b8
     86a:	8d b6 00 00 00 00    	lea    0x0(%esi),%esi
     870:	c7 47 04 00 00 00 00 	movl   $0x0,0x4(%edi)
     877:	c7 47 08 00 00 00 00 	movl   $0x0,0x8(%edi)
     87e:	c7 07 00 00 00 00    	movl   $0x0,(%edi)
     884:	e9 6f ff ff ff       	jmp    0x7f8
     889:	8d b4 26 00 00 00 00 	lea    0x0(%esi,%eiz,1),%esi
     890:	c7 05 14 05 50 00 00 	movl   $0x0,0x500514
     897:	00 00 00 
     89a:	c7 05 18 05 50 00 00 	movl   $0x0,0x500518
     8a1:	00 00 00 
     8a4:	c7 05 10 05 50 00 00 	movl   $0x0,0x500510
     8ab:	00 00 00 
     8ae:	8b 58 04             	mov    0x4(%eax),%ebx
     8b1:	e9 6a fe ff ff       	jmp    0x720
     8b6:	8d 76 00             	lea    0x0(%esi),%esi
     8b9:	8d bc 27 00 00 00 00 	lea    0x0(%edi,%eiz,1),%edi
     8c0:	8b 45 94             	mov    -0x6c(%ebp),%eax
     8c3:	85 c0                	test   %eax,%eax
     8c5:	0f 84 2d ff ff ff    	je     0x7f8
     8cb:	8b 47 04             	mov    0x4(%edi),%eax
     8ce:	8b 40 0c             	mov    0xc(%eax),%eax
     8d1:	89 47 04             	mov    %eax,0x4(%edi)
     8d4:	c7 40 08 00 00 00 00 	movl   $0x0,0x8(%eax)
     8db:	83 2f 01             	subl   $0x1,(%edi)
     8de:	e9 15 ff ff ff       	jmp    0x7f8
     8e3:	8b 75 94             	mov    -0x6c(%ebp),%esi
     8e6:	85 f6                	test   %esi,%esi
     8e8:	0f 84 0a ff ff ff    	je     0x7f8
     8ee:	8b 47 08             	mov    0x8(%edi),%eax
     8f1:	8b 40 08             	mov    0x8(%eax),%eax
     8f4:	89 47 08             	mov    %eax,0x8(%edi)
     8f7:	c7 40 0c 00 00 00 00 	movl   $0x0,0xc(%eax)
     8fe:	83 2f 01             	subl   $0x1,(%edi)
     901:	e9 f2 fe ff ff       	jmp    0x7f8
     906:	8d 76 00             	lea    0x0(%esi),%esi
     909:	8d bc 27 00 00 00 00 	lea    0x0(%edi,%eiz,1),%edi
     910:	8b 57 08             	mov    0x8(%edi),%edx
     913:	31 c9                	xor    %ecx,%ecx
     915:	89 5a 0c             	mov    %ebx,0xc(%edx)
     918:	8b 57 08             	mov    0x8(%edi),%edx
     91b:	c7 43 0c 00 00 00 00 	movl   $0x0,0xc(%ebx)
     922:	89 53 08             	mov    %edx,0x8(%ebx)
     925:	89 5f 08             	mov    %ebx,0x8(%edi)
     928:	83 07 01             	addl   $0x1,(%edi)
     92b:	e9 88 fe ff ff       	jmp    0x7b8
     930:	85 c9                	test   %ecx,%ecx
     932:	0f 84 e8 fd ff ff    	je     0x720
     938:	8b 15 14 05 50 00    	mov    0x500514,%edx
     93e:	8b 52 0c             	mov    0xc(%edx),%edx
     941:	89 15 14 05 50 00    	mov    %edx,0x500514
     947:	c7 42 08 00 00 00 00 	movl   $0x0,0x8(%edx)
     94e:	83 2d 10 05 50 00 01 	subl   $0x1,0x500510
     955:	8b 58 04             	mov    0x4(%eax),%ebx
     958:	e9 c3 fd ff ff       	jmp    0x720
     95d:	85 c9                	test   %ecx,%ecx
     95f:	0f 84 bb fd ff ff    	je     0x720
     965:	8b 15 18 05 50 00    	mov    0x500518,%edx
     96b:	8b 52 08             	mov    0x8(%edx),%edx
     96e:	89 15 18 05 50 00    	mov    %edx,0x500518
     974:	c7 42 0c 00 00 00 00 	movl   $0x0,0xc(%edx)
     97b:	83 2d 10 05 50 00 01 	subl   $0x1,0x500510
     982:	8b 58 04             	mov    0x4(%eax),%ebx
     985:	e9 96 fd ff ff       	jmp    0x720
     98a:	90                   	nop
     98b:	90                   	nop
     98c:	90                   	nop
     98d:	90                   	nop
     98e:	90                   	nop
     98f:	90                   	nop
     990:	55                   	push   %ebp
     991:	89 e5                	mov    %esp,%ebp
     993:	5d                   	pop    %ebp
     994:	c3                   	ret    
     995:	90                   	nop
     996:	90                   	nop
     997:	90                   	nop
     998:	90                   	nop
     999:	90                   	nop
     99a:	90                   	nop
     99b:	90                   	nop
     99c:	90                   	nop
     99d:	90                   	nop
     99e:	90                   	nop
     99f:	90                   	nop
     9a0:	55                   	push   %ebp
     9a1:	89 e5                	mov    %esp,%ebp
     9a3:	c6 05 14 01 40 00 00 	movb   $0x0,0x400114
     9aa:	c7 05 10 01 40 00 0a 	movl   $0xa,0x400110
     9b1:	00 00 00 
     9b4:	c7 05 18 01 40 00 0a 	movl   $0xa,0x400118
     9bb:	00 00 00 
     9be:	c6 05 1c 01 40 00 00 	movb   $0x0,0x40011c
     9c5:	5d                   	pop    %ebp
     9c6:	c3                   	ret    
     9c7:	90                   	nop
     9c8:	90                   	nop
     9c9:	90                   	nop
     9ca:	90                   	nop
     9cb:	90                   	nop
     9cc:	90                   	nop
     9cd:	90                   	nop
     9ce:	90                   	nop
     9cf:	90                   	nop
     9d0:	55                   	push   %ebp
     9d1:	b8 01 00 00 00       	mov    $0x1,%eax
     9d6:	89 e5                	mov    %esp,%ebp
     9d8:	56                   	push   %esi
     9d9:	31 f6                	xor    %esi,%esi
     9db:	53                   	push   %ebx
     9dc:	83 ec 10             	sub    $0x10,%esp
     9df:	8b 5d 08             	mov    0x8(%ebp),%ebx
     9e2:	83 fb 01             	cmp    $0x1,%ebx
     9e5:	76 21                	jbe    0xa08
     9e7:	89 f6                	mov    %esi,%esi
     9e9:	8d bc 27 00 00 00 00 	lea    0x0(%edi,%eiz,1),%edi
     9f0:	8d 43 ff             	lea    -0x1(%ebx),%eax
     9f3:	83 eb 02             	sub    $0x2,%ebx
     9f6:	89 04 24             	mov    %eax,(%esp)
     9f9:	e8 d2 ff ff ff       	call   0x9d0
     9fe:	01 c6                	add    %eax,%esi
     a00:	83 fb 01             	cmp    $0x1,%ebx
     a03:	77 eb                	ja     0x9f0
     a05:	8d 46 01             	lea    0x1(%esi),%eax
     a08:	83 c4 10             	add    $0x10,%esp
     a0b:	5b                   	pop    %ebx
     a0c:	5e                   	pop    %esi
     a0d:	5d                   	pop    %ebp
     a0e:	c3                   	ret    
     a0f:	90                   	nop
     a10:	55                   	push   %ebp
     a11:	b8 01 00 00 00       	mov    $0x1,%eax
     a16:	89 e5                	mov    %esp,%ebp
     a18:	83 ec 38             	sub    $0x38,%esp
     a1b:	0f b6 15 00 03 50 00 	movzbl 0x500300,%edx
     a22:	84 d2                	test   %dl,%dl
     a24:	75 48                	jne    0xa6e
     a26:	d9 05 7c af 00 00    	flds   0xaf7c
     a2c:	8d 74 26 00          	lea    0x0(%esi,%eiz,1),%esi
     a30:	d9 5d d8             	fstps  -0x28(%ebp)
     a33:	c7 04 24 19 00 00 00 	movl   $0x19,(%esp)
     a3a:	e8 91 ff ff ff       	call   0x9d0
     a3f:	89 45 f0             	mov    %eax,-0x10(%ebp)
     a42:	0f b6 05 00 03 50 00 	movzbl 0x500300,%eax
     a49:	db 45 f0             	fildl  -0x10(%ebp)
     a4c:	d9 45 d8             	flds   -0x28(%ebp)
     a4f:	de c9                	fmulp  %st,%st(1)
     a51:	84 c0                	test   %al,%al
     a53:	74 db                	je     0xa30
     a55:	d9 7d f6             	fnstcw -0xa(%ebp)
     a58:	0f b7 45 f6          	movzwl -0xa(%ebp),%eax
     a5c:	b4 0c                	mov    $0xc,%ah
     a5e:	66 89 45 f4          	mov    %ax,-0xc(%ebp)
     a62:	d9 6d f4             	fldcw  -0xc(%ebp)
     a65:	db 5d f0             	fistpl -0x10(%ebp)
     a68:	d9 6d f6             	fldcw  -0xa(%ebp)
     a6b:	8b 45 f0             	mov    -0x10(%ebp),%eax
     a6e:	c9                   	leave  
     a6f:	c3                   	ret    
     a70:	55                   	push   %ebp
     a71:	89 e5                	mov    %esp,%ebp
     a73:	c7 05 20 01 40 00 0a 	movl   $0xa,0x400120
     a7a:	00 00 00 
     a7d:	c6 05 24 01 40 00 00 	movb   $0x0,0x400124
     a84:	5d                   	pop    %ebp
     a85:	c3                   	ret    
     a86:	8d 76 00             	lea    0x0(%esi),%esi
     a89:	8d bc 27 00 00 00 00 	lea    0x0(%edi,%eiz,1),%edi
     a90:	55                   	push   %ebp
     a91:	89 e5                	mov    %esp,%ebp
     a93:	57                   	push   %edi
     a94:	56                   	push   %esi
     a95:	53                   	push   %ebx
     a96:	bb b5 81 4e 1b       	mov    $0x1b4e81b5,%ebx
     a9b:	81 ec ac 00 00 00    	sub    $0xac,%esp
     aa1:	8b 55 08             	mov    0x8(%ebp),%edx
     aa4:	d9 7d e6             	fnstcw -0x1a(%ebp)
     aa7:	8d 44 12 01          	lea    0x1(%edx,%edx,1),%eax
     aab:	31 d2                	xor    %edx,%edx
     aad:	8b 04 c5 00 00 40 00 	mov    0x400000(,%eax,8),%eax
     ab4:	89 55 dc             	mov    %edx,-0x24(%ebp)
     ab7:	89 45 d8             	mov    %eax,-0x28(%ebp)
     aba:	0f b7 45 e6          	movzwl -0x1a(%ebp),%eax
     abe:	df 6d d8             	fildll -0x28(%ebp)
     ac1:	dc 0d 80 af 00 00    	fmull  0xaf80
     ac7:	b4 0c                	mov    $0xc,%ah
     ac9:	66 89 45 e4          	mov    %ax,-0x1c(%ebp)
     acd:	d9 6d e4             	fldcw  -0x1c(%ebp)
     ad0:	db 5d e0             	fistpl -0x20(%ebp)
     ad3:	d9 6d e6             	fldcw  -0x1a(%ebp)
     ad6:	8b 4d e0             	mov    -0x20(%ebp),%ecx
     ad9:	89 c8                	mov    %ecx,%eax
     adb:	f7 eb                	imul   %ebx
     add:	b8 01 00 00 00       	mov    $0x1,%eax
     ae2:	c1 f9 1f             	sar    $0x1f,%ecx
     ae5:	89 d3                	mov    %edx,%ebx
     ae7:	c1 fb 06             	sar    $0x6,%ebx
     aea:	29 cb                	sub    %ecx,%ebx
     aec:	8b 4d 08             	mov    0x8(%ebp),%ecx
     aef:	8b 3c 8d 40 01 40 00 	mov    0x400140(,%ecx,4),%edi
     af6:	85 ff                	test   %edi,%edi
     af8:	0f 84 b4 02 00 00    	je     0xdb2
     afe:	d9 05 7c af 00 00    	flds   0xaf7c
     b04:	c7 45 c4 00 00 00 00 	movl   $0x0,-0x3c(%ebp)
     b0b:	d9 5d d4             	fstps  -0x2c(%ebp)
     b0e:	66 90                	xchg   %ax,%ax
     b10:	b9 9c 01 00 00       	mov    $0x19c,%ecx
     b15:	0f 32                	rdmsr  
     b17:	89 45 c8             	mov    %eax,-0x38(%ebp)
     b1a:	b1 a2                	mov    $0xa2,%cl
     b1c:	89 55 cc             	mov    %edx,-0x34(%ebp)
     b1f:	0f 32                	rdmsr  
     b21:	8b 35 18 04 50 00    	mov    0x500418,%esi
     b27:	89 55 b4             	mov    %edx,-0x4c(%ebp)
     b2a:	89 45 b0             	mov    %eax,-0x50(%ebp)
     b2d:	8b 56 20             	mov    0x20(%esi),%edx
     b30:	c1 ea 18             	shr    $0x18,%edx
     b33:	c1 e2 04             	shl    $0x4,%edx
     b36:	8b 92 8c 03 50 00    	mov    0x50038c(%edx),%edx
     b3c:	8b 3a                	mov    (%edx),%edi
     b3e:	8b 4f 48             	mov    0x48(%edi),%ecx
     b41:	8b 57 50             	mov    0x50(%edi),%edx
     b44:	2b 51 0c             	sub    0xc(%ecx),%edx
     b47:	89 57 4c             	mov    %edx,0x4c(%edi)
     b4a:	8b 56 20             	mov    0x20(%esi),%edx
     b4d:	0f 31                	rdtsc  
     b4f:	8b 56 20             	mov    0x20(%esi),%edx
     b52:	8b 47 4c             	mov    0x4c(%edi),%eax
     b55:	8b 76 20             	mov    0x20(%esi),%esi
     b58:	c1 ea 18             	shr    $0x18,%edx
     b5b:	89 d1                	mov    %edx,%ecx
     b5d:	83 e1 01             	and    $0x1,%ecx
     b60:	83 f9 01             	cmp    $0x1,%ecx
     b63:	8b 0d c0 02 50 00    	mov    0x5002c0,%ecx
     b69:	83 d2 ff             	adc    $0xffffffff,%edx
     b6c:	8b 14 95 20 03 50 00 	mov    0x500320(,%edx,4),%edx
     b73:	c1 ee 18             	shr    $0x18,%esi
     b76:	89 45 a8             	mov    %eax,-0x58(%ebp)
     b79:	89 4d ac             	mov    %ecx,-0x54(%ebp)
     b7c:	b9 03 00 00 00       	mov    $0x3,%ecx
     b81:	89 55 a4             	mov    %edx,-0x5c(%ebp)
     b84:	0f 33                	rdpmc  
     b86:	89 45 98             	mov    %eax,-0x68(%ebp)
     b89:	b1 02                	mov    $0x2,%cl
     b8b:	89 55 9c             	mov    %edx,-0x64(%ebp)
     b8e:	0f 33                	rdpmc  
     b90:	89 45 90             	mov    %eax,-0x70(%ebp)
     b93:	b1 01                	mov    $0x1,%cl
     b95:	89 55 94             	mov    %edx,-0x6c(%ebp)
     b98:	0f 33                	rdpmc  
     b9a:	89 45 88             	mov    %eax,-0x78(%ebp)
     b9d:	30 c9                	xor    %cl,%cl
     b9f:	89 55 8c             	mov    %edx,-0x74(%ebp)
     ba2:	0f 33                	rdpmc  
     ba4:	b9 02 00 00 40       	mov    $0x40000002,%ecx
     ba9:	89 45 80             	mov    %eax,-0x80(%ebp)
     bac:	89 55 84             	mov    %edx,-0x7c(%ebp)
     baf:	0f 33                	rdpmc  
     bb1:	89 85 78 ff ff ff    	mov    %eax,-0x88(%ebp)
     bb7:	b1 01                	mov    $0x1,%cl
     bb9:	89 95 7c ff ff ff    	mov    %edx,-0x84(%ebp)
     bbf:	0f 33                	rdpmc  
     bc1:	89 85 70 ff ff ff    	mov    %eax,-0x90(%ebp)
     bc7:	30 c9                	xor    %cl,%cl
     bc9:	89 95 74 ff ff ff    	mov    %edx,-0x8c(%ebp)
     bcf:	0f 33                	rdpmc  
     bd1:	89 85 68 ff ff ff    	mov    %eax,-0x98(%ebp)
     bd7:	8b 0d 88 02 50 00    	mov    0x500288,%ecx
     bdd:	89 95 6c ff ff ff    	mov    %edx,-0x94(%ebp)
     be3:	8d 56 08             	lea    0x8(%esi),%edx
     be6:	89 55 bc             	mov    %edx,-0x44(%ebp)
     be9:	8b 44 91 04          	mov    0x4(%ecx,%edx,4),%eax
     bed:	89 45 c0             	mov    %eax,-0x40(%ebp)
     bf0:	8d 46 01             	lea    0x1(%esi),%eax
     bf3:	0f af 41 44          	imul   0x44(%ecx),%eax
     bf7:	39 45 c0             	cmp    %eax,-0x40(%ebp)
     bfa:	0f 83 3a 01 00 00    	jae    0xd3a
     c00:	8b 45 c8             	mov    -0x38(%ebp),%eax
     c03:	8b 55 cc             	mov    -0x34(%ebp),%edx
     c06:	6b 75 c0 68          	imul   $0x68,-0x40(%ebp),%esi
     c0a:	03 31                	add    (%ecx),%esi
     c0c:	0f ac d0 10          	shrd   $0x10,%edx,%eax
     c10:	8b 55 b4             	mov    -0x4c(%ebp),%edx
     c13:	89 45 c8             	mov    %eax,-0x38(%ebp)
     c16:	8b 45 b0             	mov    -0x50(%ebp),%eax
     c19:	c7 46 04 00 00 00 00 	movl   $0x0,0x4(%esi)
     c20:	0f ac d0 10          	shrd   $0x10,%edx,%eax
     c24:	8b 55 c8             	mov    -0x38(%ebp),%edx
     c27:	25 ff 00 00 00       	and    $0xff,%eax
     c2c:	83 e2 7f             	and    $0x7f,%edx
     c2f:	29 d0                	sub    %edx,%eax
     c31:	8b 95 6c ff ff ff    	mov    -0x94(%ebp),%edx
     c37:	89 06                	mov    %eax,(%esi)
     c39:	8b 85 68 ff ff ff    	mov    -0x98(%ebp),%eax
     c3f:	89 56 0c             	mov    %edx,0xc(%esi)
     c42:	8b 95 74 ff ff ff    	mov    -0x8c(%ebp),%edx
     c48:	89 46 08             	mov    %eax,0x8(%esi)
     c4b:	8b 85 70 ff ff ff    	mov    -0x90(%ebp),%eax
     c51:	89 56 14             	mov    %edx,0x14(%esi)
     c54:	8b 95 7c ff ff ff    	mov    -0x84(%ebp),%edx
     c5a:	89 46 10             	mov    %eax,0x10(%esi)
     c5d:	8b 85 78 ff ff ff    	mov    -0x88(%ebp),%eax
     c63:	89 56 1c             	mov    %edx,0x1c(%esi)
     c66:	8b 55 84             	mov    -0x7c(%ebp),%edx
     c69:	89 46 18             	mov    %eax,0x18(%esi)
     c6c:	8b 45 80             	mov    -0x80(%ebp),%eax
     c6f:	89 56 24             	mov    %edx,0x24(%esi)
     c72:	8b 55 8c             	mov    -0x74(%ebp),%edx
     c75:	89 46 20             	mov    %eax,0x20(%esi)
     c78:	8b 45 88             	mov    -0x78(%ebp),%eax
     c7b:	89 56 2c             	mov    %edx,0x2c(%esi)
     c7e:	8b 55 94             	mov    -0x6c(%ebp),%edx
     c81:	89 46 28             	mov    %eax,0x28(%esi)
     c84:	8b 45 90             	mov    -0x70(%ebp),%eax
     c87:	89 46 30             	mov    %eax,0x30(%esi)
     c8a:	89 56 34             	mov    %edx,0x34(%esi)
     c8d:	8b 45 98             	mov    -0x68(%ebp),%eax
     c90:	8b 55 9c             	mov    -0x64(%ebp),%edx
     c93:	89 46 38             	mov    %eax,0x38(%esi)
     c96:	89 56 3c             	mov    %edx,0x3c(%esi)
     c99:	0f 31                	rdtsc  
     c9b:	69 d2 40 42 0f 00    	imul   $0xf4240,%edx,%edx
     ca1:	89 45 c8             	mov    %eax,-0x38(%ebp)
     ca4:	b8 40 42 0f 00       	mov    $0xf4240,%eax
     ca9:	c7 44 24 0c 00 00 00 	movl   $0x0,0xc(%esp)
     cb0:	00 
     cb1:	89 8d 64 ff ff ff    	mov    %ecx,-0x9c(%ebp)
     cb7:	89 55 b0             	mov    %edx,-0x50(%ebp)
     cba:	f7 65 c8             	mull   -0x38(%ebp)
     cbd:	89 45 c8             	mov    %eax,-0x38(%ebp)
     cc0:	8b 45 b0             	mov    -0x50(%ebp),%eax
     cc3:	01 c2                	add    %eax,%edx
     cc5:	8b 45 c8             	mov    -0x38(%ebp),%eax
     cc8:	89 55 cc             	mov    %edx,-0x34(%ebp)
     ccb:	8b 15 08 05 50 00    	mov    0x500508,%edx
     cd1:	89 04 24             	mov    %eax,(%esp)
     cd4:	89 54 24 08          	mov    %edx,0x8(%esp)
     cd8:	8b 55 cc             	mov    -0x34(%ebp),%edx
     cdb:	89 54 24 04          	mov    %edx,0x4(%esp)
     cdf:	e8 f4 9f 00 00       	call   0xacd8
     ce4:	8b 8d 64 ff ff ff    	mov    -0x9c(%ebp),%ecx
     cea:	03 81 80 00 00 00    	add    0x80(%ecx),%eax
     cf0:	13 91 84 00 00 00    	adc    0x84(%ecx),%edx
     cf6:	89 7e 48             	mov    %edi,0x48(%esi)
     cf9:	89 46 40             	mov    %eax,0x40(%esi)
     cfc:	8b 45 a8             	mov    -0x58(%ebp),%eax
     cff:	89 56 44             	mov    %edx,0x44(%esi)
     d02:	8b 55 a4             	mov    -0x5c(%ebp),%edx
     d05:	c7 46 4c 00 00 00 00 	movl   $0x0,0x4c(%esi)
     d0c:	c7 46 54 00 00 00 00 	movl   $0x0,0x54(%esi)
     d13:	89 46 58             	mov    %eax,0x58(%esi)
     d16:	8b 45 c0             	mov    -0x40(%ebp),%eax
     d19:	89 56 50             	mov    %edx,0x50(%esi)
     d1c:	8b 55 ac             	mov    -0x54(%ebp),%edx
     d1f:	c7 46 5c 00 00 00 00 	movl   $0x0,0x5c(%esi)
     d26:	c7 46 64 00 00 00 00 	movl   $0x0,0x64(%esi)
     d2d:	83 c0 01             	add    $0x1,%eax
     d30:	89 56 60             	mov    %edx,0x60(%esi)
     d33:	8b 55 bc             	mov    -0x44(%ebp),%edx
     d36:	89 44 91 04          	mov    %eax,0x4(%ecx,%edx,4)
     d3a:	8b 77 7c             	mov    0x7c(%edi),%esi
     d3d:	85 f6                	test   %esi,%esi
     d3f:	74 0f                	je     0xd50
     d41:	8d 47 54             	lea    0x54(%edi),%eax
     d44:	89 04 24             	mov    %eax,(%esp)
     d47:	e8 f4 41 00 00       	call   0x4f40
     d4c:	83 6f 50 01          	subl   $0x1,0x50(%edi)
     d50:	85 db                	test   %ebx,%ebx
     d52:	7e 2b                	jle    0xd7f
     d54:	31 f6                	xor    %esi,%esi
     d56:	8d 76 00             	lea    0x0(%esi),%esi
     d59:	8d bc 27 00 00 00 00 	lea    0x0(%edi,%eiz,1),%edi
     d60:	c7 04 24 19 00 00 00 	movl   $0x19,(%esp)
     d67:	83 c6 01             	add    $0x1,%esi
     d6a:	e8 61 fc ff ff       	call   0x9d0
     d6f:	39 f3                	cmp    %esi,%ebx
     d71:	89 45 e0             	mov    %eax,-0x20(%ebp)
     d74:	db 45 e0             	fildl  -0x20(%ebp)
     d77:	d8 4d d4             	fmuls  -0x2c(%ebp)
     d7a:	d9 5d d4             	fstps  -0x2c(%ebp)
     d7d:	7f e1                	jg     0xd60
     d7f:	8b 4d 08             	mov    0x8(%ebp),%ecx
     d82:	83 45 c4 01          	addl   $0x1,-0x3c(%ebp)
     d86:	8b 45 c4             	mov    -0x3c(%ebp),%eax
     d89:	39 04 8d 40 01 40 00 	cmp    %eax,0x400140(,%ecx,4)
     d90:	0f 87 7a fd ff ff    	ja     0xb10
     d96:	d9 7d e6             	fnstcw -0x1a(%ebp)
     d99:	d9 45 d4             	flds   -0x2c(%ebp)
     d9c:	0f b7 45 e6          	movzwl -0x1a(%ebp),%eax
     da0:	b4 0c                	mov    $0xc,%ah
     da2:	66 89 45 e4          	mov    %ax,-0x1c(%ebp)
     da6:	d9 6d e4             	fldcw  -0x1c(%ebp)
     da9:	db 5d e0             	fistpl -0x20(%ebp)
     dac:	d9 6d e6             	fldcw  -0x1a(%ebp)
     daf:	8b 45 e0             	mov    -0x20(%ebp),%eax
     db2:	81 c4 ac 00 00 00    	add    $0xac,%esp
     db8:	5b                   	pop    %ebx
     db9:	5e                   	pop    %esi
     dba:	5f                   	pop    %edi
     dbb:	5d                   	pop    %ebp
     dbc:	c3                   	ret    
     dbd:	8d 76 00             	lea    0x0(%esi),%esi
     dc0:	55                   	push   %ebp
     dc1:	89 e5                	mov    %esp,%ebp
     dc3:	57                   	push   %edi
     dc4:	56                   	push   %esi
     dc5:	53                   	push   %ebx
     dc6:	31 db                	xor    %ebx,%ebx
     dc8:	83 ec 6c             	sub    $0x6c,%esp
     dcb:	8d 7d a8             	lea    -0x58(%ebp),%edi
     dce:	c7 45 a4 00 00 00 00 	movl   $0x0,-0x5c(%ebp)
     dd5:	e9 9e 00 00 00       	jmp    0xe78
     dda:	8d b6 00 00 00 00    	lea    0x0(%esi),%esi
     de0:	8b 0c 9d 00 00 40 00 	mov    0x400000(,%ebx,4),%ecx
     de7:	89 4c 24 04          	mov    %ecx,0x4(%esp)
     deb:	83 c3 04             	add    $0x4,%ebx
     dee:	01 75 a4             	add    %esi,-0x5c(%ebp)
     df1:	c7 44 24 0c 00 00 00 	movl   $0x0,0xc(%esp)
     df8:	00 
     df9:	89 7c 24 08          	mov    %edi,0x8(%esp)
     dfd:	c7 04 24 20 01 40 00 	movl   $0x400120,(%esp)
     e04:	e8 87 1d 00 00       	call   0x2b90
     e09:	89 3c 24             	mov    %edi,(%esp)
     e0c:	c6 44 05 a8 00       	movb   $0x0,-0x58(%ebp,%eax,1)
     e11:	e8 6a 17 00 00       	call   0x2580
     e16:	c7 04 24 57 b0 00 00 	movl   $0xb057,(%esp)
     e1d:	e8 5e 17 00 00       	call   0x2580
     e22:	c7 44 24 0c 00 00 00 	movl   $0x0,0xc(%esp)
     e29:	00 
     e2a:	89 7c 24 08          	mov    %edi,0x8(%esp)
     e2e:	89 74 24 04          	mov    %esi,0x4(%esp)
     e32:	c7 04 24 20 01 40 00 	movl   $0x400120,(%esp)
     e39:	e8 52 1d 00 00       	call   0x2b90
     e3e:	89 3c 24             	mov    %edi,(%esp)
     e41:	c6 44 05 a8 00       	movb   $0x0,-0x58(%ebp,%eax,1)
     e46:	e8 35 17 00 00       	call   0x2580
     e4b:	0f b6 05 24 01 40 00 	movzbl 0x400124,%eax
     e52:	0f b6 c0             	movzbl %al,%eax
     e55:	89 04 24             	mov    %eax,(%esp)
     e58:	e8 c3 1a 00 00       	call   0x2920
     e5d:	c7 04 24 a7 b1 00 00 	movl   $0xb1a7,(%esp)
     e64:	e8 17 17 00 00       	call   0x2580
     e69:	83 fb 38             	cmp    $0x38,%ebx
     e6c:	c7 05 20 01 40 00 0a 	movl   $0xa,0x400120
     e73:	00 00 00 
     e76:	74 38                	je     0xeb0
     e78:	8b b3 40 01 40 00    	mov    0x400140(%ebx),%esi
     e7e:	85 f6                	test   %esi,%esi
     e80:	0f 85 5a ff ff ff    	jne    0xde0
     e86:	8b 0c 9d 00 00 40 00 	mov    0x400000(,%ebx,4),%ecx
     e8d:	b8 80 c3 c9 01       	mov    $0x1c9c380,%eax
     e92:	31 d2                	xor    %edx,%edx
     e94:	f7 f1                	div    %ecx
     e96:	89 c6                	mov    %eax,%esi
     e98:	89 83 40 01 40 00    	mov    %eax,0x400140(%ebx)
     e9e:	e9 44 ff ff ff       	jmp    0xde7
     ea3:	8d b6 00 00 00 00    	lea    0x0(%esi),%esi
     ea9:	8d bc 27 00 00 00 00 	lea    0x0(%edi,%eiz,1),%edi
     eb0:	8b 45 a4             	mov    -0x5c(%ebp),%eax
     eb3:	83 c4 6c             	add    $0x6c,%esp
     eb6:	5b                   	pop    %ebx
     eb7:	5e                   	pop    %esi
     eb8:	5f                   	pop    %edi
     eb9:	5d                   	pop    %ebp
     eba:	c3                   	ret    
     ebb:	90                   	nop
     ebc:	8d 74 26 00          	lea    0x0(%esi,%eiz,1),%esi
     ec0:	55                   	push   %ebp
     ec1:	89 e5                	mov    %esp,%ebp
     ec3:	57                   	push   %edi
     ec4:	56                   	push   %esi
     ec5:	53                   	push   %ebx
     ec6:	bb 89 88 88 88       	mov    $0x88888889,%ebx
     ecb:	81 ec ac 00 00 00    	sub    $0xac,%esp
     ed1:	8b 45 08             	mov    0x8(%ebp),%eax
     ed4:	8d 4c 00 01          	lea    0x1(%eax,%eax,1),%ecx
     ed8:	8b 04 cd 00 00 40 00 	mov    0x400000(,%ecx,8),%eax
     edf:	8b 4d 08             	mov    0x8(%ebp),%ecx
     ee2:	f7 e3                	mul    %ebx
     ee4:	8b 0c 8d 40 01 40 00 	mov    0x400140(,%ecx,4),%ecx
     eeb:	c1 ea 04             	shr    $0x4,%edx
     eee:	85 c9                	test   %ecx,%ecx
     ef0:	89 95 58 ff ff ff    	mov    %edx,-0xa8(%ebp)
     ef6:	0f 84 1c 03 00 00    	je     0x1218
     efc:	8d 04 52             	lea    (%edx,%edx,2),%eax
     eff:	89 85 5c ff ff ff    	mov    %eax,-0xa4(%ebp)
     f05:	c7 45 c4 00 00 00 00 	movl   $0x0,-0x3c(%ebp)
     f0c:	8d 74 26 00          	lea    0x0(%esi,%eiz,1),%esi
     f10:	b9 9c 01 00 00       	mov    $0x19c,%ecx
     f15:	0f 32                	rdmsr  
     f17:	89 45 b8             	mov    %eax,-0x48(%ebp)
     f1a:	b1 a2                	mov    $0xa2,%cl
     f1c:	89 55 bc             	mov    %edx,-0x44(%ebp)
     f1f:	0f 32                	rdmsr  
     f21:	8b 35 18 04 50 00    	mov    0x500418,%esi
     f27:	89 55 9c             	mov    %edx,-0x64(%ebp)
     f2a:	89 45 98             	mov    %eax,-0x68(%ebp)
     f2d:	8b 56 20             	mov    0x20(%esi),%edx
     f30:	c1 ea 18             	shr    $0x18,%edx
     f33:	c1 e2 04             	shl    $0x4,%edx
     f36:	8b 92 8c 03 50 00    	mov    0x50038c(%edx),%edx
     f3c:	8b 1a                	mov    (%edx),%ebx
     f3e:	8b 4b 48             	mov    0x48(%ebx),%ecx
     f41:	8b 53 50             	mov    0x50(%ebx),%edx
     f44:	2b 51 0c             	sub    0xc(%ecx),%edx
     f47:	89 53 4c             	mov    %edx,0x4c(%ebx)
     f4a:	8b 56 20             	mov    0x20(%esi),%edx
     f4d:	0f 31                	rdtsc  
     f4f:	8b 56 20             	mov    0x20(%esi),%edx
     f52:	8b 43 4c             	mov    0x4c(%ebx),%eax
     f55:	8b 76 20             	mov    0x20(%esi),%esi
     f58:	c1 ea 18             	shr    $0x18,%edx
     f5b:	89 d1                	mov    %edx,%ecx
     f5d:	83 e1 01             	and    $0x1,%ecx
     f60:	83 f9 01             	cmp    $0x1,%ecx
     f63:	8b 0d c0 02 50 00    	mov    0x5002c0,%ecx
     f69:	83 d2 ff             	adc    $0xffffffff,%edx
     f6c:	8b 14 95 20 03 50 00 	mov    0x500320(,%edx,4),%edx
     f73:	c1 ee 18             	shr    $0x18,%esi
     f76:	89 45 a8             	mov    %eax,-0x58(%ebp)
     f79:	89 4d ac             	mov    %ecx,-0x54(%ebp)
     f7c:	b9 03 00 00 00       	mov    $0x3,%ecx
     f81:	89 55 a4             	mov    %edx,-0x5c(%ebp)
     f84:	0f 33                	rdpmc  
     f86:	89 45 90             	mov    %eax,-0x70(%ebp)
     f89:	b1 02                	mov    $0x2,%cl
     f8b:	89 55 94             	mov    %edx,-0x6c(%ebp)
     f8e:	0f 33                	rdpmc  
     f90:	89 45 88             	mov    %eax,-0x78(%ebp)
     f93:	b1 01                	mov    $0x1,%cl
     f95:	89 55 8c             	mov    %edx,-0x74(%ebp)
     f98:	0f 33                	rdpmc  
     f9a:	89 45 80             	mov    %eax,-0x80(%ebp)
     f9d:	30 c9                	xor    %cl,%cl
     f9f:	89 55 84             	mov    %edx,-0x7c(%ebp)
     fa2:	0f 33                	rdpmc  
     fa4:	b9 02 00 00 40       	mov    $0x40000002,%ecx
     fa9:	89 85 78 ff ff ff    	mov    %eax,-0x88(%ebp)
     faf:	89 95 7c ff ff ff    	mov    %edx,-0x84(%ebp)
     fb5:	0f 33                	rdpmc  
     fb7:	89 85 70 ff ff ff    	mov    %eax,-0x90(%ebp)
     fbd:	b1 01                	mov    $0x1,%cl
     fbf:	89 95 74 ff ff ff    	mov    %edx,-0x8c(%ebp)
     fc5:	0f 33                	rdpmc  
     fc7:	89 85 68 ff ff ff    	mov    %eax,-0x98(%ebp)
     fcd:	30 c9                	xor    %cl,%cl
     fcf:	89 95 6c ff ff ff    	mov    %edx,-0x94(%ebp)
     fd5:	0f 33                	rdpmc  
     fd7:	89 85 60 ff ff ff    	mov    %eax,-0xa0(%ebp)
     fdd:	8b 3d 88 02 50 00    	mov    0x500288,%edi
     fe3:	8d 46 01             	lea    0x1(%esi),%eax
     fe6:	89 95 64 ff ff ff    	mov    %edx,-0x9c(%ebp)
     fec:	8d 56 08             	lea    0x8(%esi),%edx
     fef:	89 55 b0             	mov    %edx,-0x50(%ebp)
     ff2:	8b 4c 97 04          	mov    0x4(%edi,%edx,4),%ecx
     ff6:	0f af 47 44          	imul   0x44(%edi),%eax
     ffa:	89 4d b4             	mov    %ecx,-0x4c(%ebp)
     ffd:	39 c1                	cmp    %eax,%ecx
     fff:	0f 83 3a 01 00 00    	jae    0x113f
    1005:	8b 55 bc             	mov    -0x44(%ebp),%edx
    1008:	6b f1 68             	imul   $0x68,%ecx,%esi
    100b:	8b 45 b8             	mov    -0x48(%ebp),%eax
    100e:	03 37                	add    (%edi),%esi
    1010:	8b 8d 64 ff ff ff    	mov    -0x9c(%ebp),%ecx
    1016:	0f ac d0 10          	shrd   $0x10,%edx,%eax
    101a:	c1 ea 10             	shr    $0x10,%edx
    101d:	89 45 b8             	mov    %eax,-0x48(%ebp)
    1020:	8b 45 98             	mov    -0x68(%ebp),%eax
    1023:	89 55 bc             	mov    %edx,-0x44(%ebp)
    1026:	8b 55 9c             	mov    -0x64(%ebp),%edx
    1029:	89 4e 0c             	mov    %ecx,0xc(%esi)
    102c:	8b 8d 74 ff ff ff    	mov    -0x8c(%ebp),%ecx
    1032:	c7 46 04 00 00 00 00 	movl   $0x0,0x4(%esi)
    1039:	0f ac d0 10          	shrd   $0x10,%edx,%eax
    103d:	8b 55 b8             	mov    -0x48(%ebp),%edx
    1040:	25 ff 00 00 00       	and    $0xff,%eax
    1045:	89 4e 1c             	mov    %ecx,0x1c(%esi)
    1048:	8b 4d 84             	mov    -0x7c(%ebp),%ecx
    104b:	83 e2 7f             	and    $0x7f,%edx
    104e:	29 d0                	sub    %edx,%eax
    1050:	8b 95 60 ff ff ff    	mov    -0xa0(%ebp),%edx
    1056:	89 06                	mov    %eax,(%esi)
    1058:	8b 85 68 ff ff ff    	mov    -0x98(%ebp),%eax
    105e:	89 4e 2c             	mov    %ecx,0x2c(%esi)
    1061:	89 56 08             	mov    %edx,0x8(%esi)
    1064:	8b 95 6c ff ff ff    	mov    -0x94(%ebp),%edx
    106a:	89 46 10             	mov    %eax,0x10(%esi)
    106d:	8b 85 78 ff ff ff    	mov    -0x88(%ebp),%eax
    1073:	89 56 14             	mov    %edx,0x14(%esi)
    1076:	8b 95 70 ff ff ff    	mov    -0x90(%ebp),%edx
    107c:	89 46 20             	mov    %eax,0x20(%esi)
    107f:	8b 45 88             	mov    -0x78(%ebp),%eax
    1082:	89 56 18             	mov    %edx,0x18(%esi)
    1085:	8b 95 7c ff ff ff    	mov    -0x84(%ebp),%edx
    108b:	89 46 30             	mov    %eax,0x30(%esi)
    108e:	89 56 24             	mov    %edx,0x24(%esi)
    1091:	8b 55 80             	mov    -0x80(%ebp),%edx
    1094:	89 56 28             	mov    %edx,0x28(%esi)
    1097:	8b 55 8c             	mov    -0x74(%ebp),%edx
    109a:	89 56 34             	mov    %edx,0x34(%esi)
    109d:	8b 55 90             	mov    -0x70(%ebp),%edx
    10a0:	8b 4d 94             	mov    -0x6c(%ebp),%ecx
    10a3:	89 56 38             	mov    %edx,0x38(%esi)
    10a6:	89 4e 3c             	mov    %ecx,0x3c(%esi)
    10a9:	0f 31                	rdtsc  
    10ab:	89 45 98             	mov    %eax,-0x68(%ebp)
    10ae:	69 d2 40 42 0f 00    	imul   $0xf4240,%edx,%edx
    10b4:	8b 45 98             	mov    -0x68(%ebp),%eax
    10b7:	b9 40 42 0f 00       	mov    $0xf4240,%ecx
    10bc:	c7 44 24 0c 00 00 00 	movl   $0x0,0xc(%esp)
    10c3:	00 
    10c4:	89 55 b8             	mov    %edx,-0x48(%ebp)
    10c7:	f7 e1                	mul    %ecx
    10c9:	8b 4d b8             	mov    -0x48(%ebp),%ecx
    10cc:	01 ca                	add    %ecx,%edx
    10ce:	89 45 98             	mov    %eax,-0x68(%ebp)
    10d1:	a1 08 05 50 00       	mov    0x500508,%eax
    10d6:	89 55 9c             	mov    %edx,-0x64(%ebp)
    10d9:	8b 55 98             	mov    -0x68(%ebp),%edx
    10dc:	8b 4d 9c             	mov    -0x64(%ebp),%ecx
    10df:	89 44 24 08          	mov    %eax,0x8(%esp)
    10e3:	89 14 24             	mov    %edx,(%esp)
    10e6:	89 4c 24 04          	mov    %ecx,0x4(%esp)
    10ea:	e8 e9 9b 00 00       	call   0xacd8
    10ef:	8b 4d a4             	mov    -0x5c(%ebp),%ecx
    10f2:	03 87 80 00 00 00    	add    0x80(%edi),%eax
    10f8:	13 97 84 00 00 00    	adc    0x84(%edi),%edx
    10fe:	89 4e 50             	mov    %ecx,0x50(%esi)
    1101:	8b 4d b0             	mov    -0x50(%ebp),%ecx
    1104:	89 46 40             	mov    %eax,0x40(%esi)
    1107:	8b 45 a8             	mov    -0x58(%ebp),%eax
    110a:	89 56 44             	mov    %edx,0x44(%esi)
    110d:	8b 55 ac             	mov    -0x54(%ebp),%edx
    1110:	89 5e 48             	mov    %ebx,0x48(%esi)
    1113:	c7 46 4c 00 00 00 00 	movl   $0x0,0x4c(%esi)
    111a:	89 46 58             	mov    %eax,0x58(%esi)
    111d:	8b 45 b4             	mov    -0x4c(%ebp),%eax
    1120:	c7 46 54 00 00 00 00 	movl   $0x0,0x54(%esi)
    1127:	c7 46 5c 00 00 00 00 	movl   $0x0,0x5c(%esi)
    112e:	89 56 60             	mov    %edx,0x60(%esi)
    1131:	83 c0 01             	add    $0x1,%eax
    1134:	c7 46 64 00 00 00 00 	movl   $0x0,0x64(%esi)
    113b:	89 44 8f 04          	mov    %eax,0x4(%edi,%ecx,4)
    113f:	8b 43 7c             	mov    0x7c(%ebx),%eax
    1142:	85 c0                	test   %eax,%eax
    1144:	74 0f                	je     0x1155
    1146:	8d 43 54             	lea    0x54(%ebx),%eax
    1149:	89 04 24             	mov    %eax,(%esp)
    114c:	e8 ef 3d 00 00       	call   0x4f40
    1151:	83 6b 50 01          	subl   $0x1,0x50(%ebx)
    1155:	8d 45 d0             	lea    -0x30(%ebp),%eax
    1158:	89 04 24             	mov    %eax,(%esp)
    115b:	e8 20 8b 00 00       	call   0x9c80
    1160:	8d 55 d0             	lea    -0x30(%ebp),%edx
    1163:	83 ec 04             	sub    $0x4,%esp
    1166:	c7 44 24 04 8b fa 0a 	movl   $0xafa8b,0x4(%esp)
    116d:	00 
    116e:	89 14 24             	mov    %edx,(%esp)
    1171:	e8 aa 7d 00 00       	call   0x8f20
    1176:	ba 89 88 88 88       	mov    $0x88888889,%edx
    117b:	8b bd 5c ff ff ff    	mov    -0xa4(%ebp),%edi
    1181:	89 c3                	mov    %eax,%ebx
    1183:	a3 64 02 50 00       	mov    %eax,0x500264
    1188:	8b 45 c4             	mov    -0x3c(%ebp),%eax
    118b:	f7 ea                	imul   %edx
    118d:	8b 45 c4             	mov    -0x3c(%ebp),%eax
    1190:	03 55 c4             	add    -0x3c(%ebp),%edx
    1193:	c1 f8 1f             	sar    $0x1f,%eax
    1196:	c1 fa 04             	sar    $0x4,%edx
    1199:	29 c2                	sub    %eax,%edx
    119b:	6b d2 1e             	imul   $0x1e,%edx,%edx
    119e:	39 55 c4             	cmp    %edx,-0x3c(%ebp)
    11a1:	74 06                	je     0x11a9
    11a3:	8b bd 58 ff ff ff    	mov    -0xa8(%ebp),%edi
    11a9:	85 ff                	test   %edi,%edi
    11ab:	74 54                	je     0x1201
    11ad:	31 f6                	xor    %esi,%esi
    11af:	90                   	nop
    11b0:	69 db 6d 4e c6 41    	imul   $0x41c64e6d,%ebx,%ebx
    11b6:	8b 0d ec 04 50 00    	mov    0x5004ec,%ecx
    11bc:	c7 44 24 08 00 00 02 	movl   $0x20000,0x8(%esp)
    11c3:	00 
    11c4:	c7 04 24 80 01 40 00 	movl   $0x400180,(%esp)
    11cb:	8d 83 39 30 00 00    	lea    0x3039(%ebx),%eax
    11d1:	31 db                	xor    %ebx,%ebx
    11d3:	83 f8 ff             	cmp    $0xffffffff,%eax
    11d6:	0f 93 c3             	setae  %bl
    11d9:	31 d2                	xor    %edx,%edx
    11db:	8d 1c 18             	lea    (%eax,%ebx,1),%ebx
    11de:	83 c6 01             	add    $0x1,%esi
    11e1:	89 d8                	mov    %ebx,%eax
    11e3:	f7 f1                	div    %ecx
    11e5:	c1 e2 11             	shl    $0x11,%edx
    11e8:	81 c2 80 01 40 00    	add    $0x400180,%edx
    11ee:	89 54 24 04          	mov    %edx,0x4(%esp)
    11f2:	e8 59 1c 00 00       	call   0x2e50
    11f7:	39 fe                	cmp    %edi,%esi
    11f9:	75 b5                	jne    0x11b0
    11fb:	89 1d 64 02 50 00    	mov    %ebx,0x500264
    1201:	8b 55 08             	mov    0x8(%ebp),%edx
    1204:	83 45 c4 01          	addl   $0x1,-0x3c(%ebp)
    1208:	8b 4d c4             	mov    -0x3c(%ebp),%ecx
    120b:	39 0c 95 40 01 40 00 	cmp    %ecx,0x400140(,%edx,4)
    1212:	0f 87 f8 fc ff ff    	ja     0xf10
    1218:	8d 65 f4             	lea    -0xc(%ebp),%esp
    121b:	b8 01 00 00 00       	mov    $0x1,%eax
    1220:	5b                   	pop    %ebx
    1221:	5e                   	pop    %esi
    1222:	5f                   	pop    %edi
    1223:	5d                   	pop    %ebp
    1224:	c3                   	ret    
    1225:	8d 74 26 00          	lea    0x0(%esi,%eiz,1),%esi
    1229:	8d bc 27 00 00 00 00 	lea    0x0(%edi,%eiz,1),%edi
    1230:	55                   	push   %ebp
    1231:	89 e5                	mov    %esp,%ebp
    1233:	83 e4 f0             	and    $0xfffffff0,%esp
    1236:	57                   	push   %edi
    1237:	56                   	push   %esi
    1238:	53                   	push   %ebx
    1239:	81 ec 44 01 00 00    	sub    $0x144,%esp
    123f:	c6 05 00 03 50 00 01 	movb   $0x1,0x500300
    1246:	a1 ec 04 50 00       	mov    0x5004ec,%eax
    124b:	85 c0                	test   %eax,%eax
    124d:	74 41                	je     0x1290
    124f:	bb 80 01 42 00       	mov    $0x420180,%ebx
    1254:	31 f6                	xor    %esi,%esi
    1256:	31 c9                	xor    %ecx,%ecx
    1258:	90                   	nop
    1259:	8d b4 26 00 00 00 00 	lea    0x0(%esi,%eiz,1),%esi
    1260:	89 c8                	mov    %ecx,%eax
    1262:	89 f2                	mov    %esi,%edx
    1264:	c1 e0 11             	shl    $0x11,%eax
    1267:	05 80 01 40 00       	add    $0x400180,%eax
    126c:	8d 74 26 00          	lea    0x0(%esi,%eiz,1),%esi
    1270:	89 10                	mov    %edx,(%eax)
    1272:	83 c0 04             	add    $0x4,%eax
    1275:	01 ca                	add    %ecx,%edx
    1277:	39 c3                	cmp    %eax,%ebx
    1279:	75 f5                	jne    0x1270
    127b:	a1 ec 04 50 00       	mov    0x5004ec,%eax
    1280:	83 c1 01             	add    $0x1,%ecx
    1283:	83 ee 02             	sub    $0x2,%esi
    1286:	81 c3 00 00 02 00    	add    $0x20000,%ebx
    128c:	39 c8                	cmp    %ecx,%eax
    128e:	77 d0                	ja     0x1260
    1290:	e8 2b fb ff ff       	call   0xdc0
    1295:	0f 31                	rdtsc  
    1297:	89 54 24 3c          	mov    %edx,0x3c(%esp)
    129b:	8b 15 08 05 50 00    	mov    0x500508,%edx
    12a1:	31 f6                	xor    %esi,%esi
    12a3:	c6 05 00 03 50 00 00 	movb   $0x0,0x500300
    12aa:	89 44 24 38          	mov    %eax,0x38(%esp)
    12ae:	c7 44 24 5c 00 00 40 	movl   $0x400000,0x5c(%esp)
    12b5:	00 
    12b6:	89 54 24 34          	mov    %edx,0x34(%esp)
    12ba:	8d b6 00 00 00 00    	lea    0x0(%esi),%esi
    12c0:	8b 4c 24 5c          	mov    0x5c(%esp),%ecx
    12c4:	8b 5c 24 5c          	mov    0x5c(%esp),%ebx
    12c8:	8b 49 0c             	mov    0xc(%ecx),%ecx
    12cb:	8b 43 04             	mov    0x4(%ebx),%eax
    12ce:	8b 13                	mov    (%ebx),%edx
    12d0:	8b 7b 08             	mov    0x8(%ebx),%edi
    12d3:	89 4c 24 48          	mov    %ecx,0x48(%esp)
    12d7:	31 c9                	xor    %ecx,%ecx
    12d9:	89 4c 24 54          	mov    %ecx,0x54(%esp)
    12dd:	8b 0d 68 02 50 00    	mov    0x500268,%ecx
    12e3:	89 54 24 50          	mov    %edx,0x50(%esp)
    12e7:	31 d2                	xor    %edx,%edx
    12e9:	89 44 24 44          	mov    %eax,0x44(%esp)
    12ed:	b8 e8 03 00 00       	mov    $0x3e8,%eax
    12f2:	f7 71 04             	divl   0x4(%ecx)
    12f5:	31 d2                	xor    %edx,%edx
    12f7:	c7 44 24 0c 00 00 00 	movl   $0x0,0xc(%esp)
    12fe:	00 
    12ff:	89 c1                	mov    %eax,%ecx
    1301:	b8 40 42 0f 00       	mov    $0xf4240,%eax
    1306:	f7 f1                	div    %ecx
    1308:	8b 54 24 0c          	mov    0xc(%esp),%edx
    130c:	89 44 24 08          	mov    %eax,0x8(%esp)
    1310:	8b 44 24 08          	mov    0x8(%esp),%eax
    1314:	0f ac d0 01          	shrd   $0x1,%edx,%eax
    1318:	d1 ea                	shr    %edx
    131a:	03 44 24 50          	add    0x50(%esp),%eax
    131e:	13 54 24 54          	adc    0x54(%esp),%edx
    1322:	89 04 24             	mov    %eax,(%esp)
    1325:	89 54 24 04          	mov    %edx,0x4(%esp)
    1329:	e8 aa 99 00 00       	call   0xacd8
    132e:	83 7c 24 48 ff       	cmpl   $0xffffffff,0x48(%esp)
    1333:	89 c1                	mov    %eax,%ecx
    1335:	89 84 24 30 01 00 00 	mov    %eax,0x130(%esp)
    133c:	75 2c                	jne    0x136a
    133e:	a1 7c 02 50 00       	mov    0x50027c,%eax
    1343:	31 d2                	xor    %edx,%edx
    1345:	83 c0 01             	add    $0x1,%eax
    1348:	a3 7c 02 50 00       	mov    %eax,0x50027c
    134d:	a1 7c 02 50 00       	mov    0x50027c,%eax
    1352:	8b 1d ec 04 50 00    	mov    0x5004ec,%ebx
    1358:	f7 f3                	div    %ebx
    135a:	89 15 7c 02 50 00    	mov    %edx,0x50027c
    1360:	8b 15 7c 02 50 00    	mov    0x50027c,%edx
    1366:	89 54 24 48          	mov    %edx,0x48(%esp)
    136a:	8b 5c 24 48          	mov    0x48(%esp),%ebx
    136e:	31 d2                	xor    %edx,%edx
    1370:	d9 7c 24 66          	fnstcw 0x66(%esp)
    1374:	89 7c 24 68          	mov    %edi,0x68(%esp)
    1378:	89 54 24 6c          	mov    %edx,0x6c(%esp)
    137c:	89 ca                	mov    %ecx,%edx
    137e:	89 9c 24 34 01 00 00 	mov    %ebx,0x134(%esp)
    1385:	8b 84 24 34 01 00 00 	mov    0x134(%esp),%eax
    138c:	c1 fa 1f             	sar    $0x1f,%edx
    138f:	df 6c 24 68          	fildll 0x68(%esp)
    1393:	dc 0d 80 af 00 00    	fmull  0xaf80
    1399:	8b 1c b5 40 01 40 00 	mov    0x400140(,%esi,4),%ebx
    13a0:	89 84 24 d4 00 00 00 	mov    %eax,0xd4(%esp)
    13a7:	0f b7 44 24 66       	movzwl 0x66(%esp),%eax
    13ac:	89 94 24 c0 00 00 00 	mov    %edx,0xc0(%esp)
    13b3:	8b 54 24 54          	mov    0x54(%esp),%edx
    13b7:	89 8c 24 bc 00 00 00 	mov    %ecx,0xbc(%esp)
    13be:	c7 84 24 b4 00 00 00 	movl   $0x1,0xb4(%esp)
    13c5:	01 00 00 00 
    13c9:	b4 0c                	mov    $0xc,%ah
    13cb:	66 89 44 24 64       	mov    %ax,0x64(%esp)
    13d0:	d9 6c 24 64          	fldcw  0x64(%esp)
    13d4:	db 5c 24 60          	fistpl 0x60(%esp)
    13d8:	d9 6c 24 66          	fldcw  0x66(%esp)
    13dc:	89 94 24 e8 00 00 00 	mov    %edx,0xe8(%esp)
    13e3:	8b 44 24 60          	mov    0x60(%esp),%eax
    13e7:	c7 84 24 c8 00 00 00 	movl   $0x0,0xc8(%esp)
    13ee:	00 00 00 00 
    13f2:	c7 84 24 d8 00 00 00 	movl   $0x0,0xd8(%esp)
    13f9:	00 00 00 00 
    13fd:	c7 84 24 dc 00 00 00 	movl   $0x0,0xdc(%esp)
    1404:	00 00 00 00 
    1408:	89 84 24 cc 00 00 00 	mov    %eax,0xcc(%esp)
    140f:	89 c7                	mov    %eax,%edi
    1411:	8b 44 24 44          	mov    0x44(%esp),%eax
    1415:	c1 ff 1f             	sar    $0x1f,%edi
    1418:	89 bc 24 d0 00 00 00 	mov    %edi,0xd0(%esp)
    141f:	c7 84 24 e0 00 00 00 	movl   $0x4000,0xe0(%esp)
    1426:	00 40 00 00 
    142a:	89 84 24 c4 00 00 00 	mov    %eax,0xc4(%esp)
    1431:	8b 84 24 30 01 00 00 	mov    0x130(%esp),%eax
    1438:	89 84 24 b8 00 00 00 	mov    %eax,0xb8(%esp)
    143f:	8b 44 24 50          	mov    0x50(%esp),%eax
    1443:	89 84 24 e4 00 00 00 	mov    %eax,0xe4(%esp)
    144a:	89 9c 24 ec 00 00 00 	mov    %ebx,0xec(%esp)
    1451:	8b 1d 58 02 50 00    	mov    0x500258,%ebx
    1457:	e8 44 14 00 00       	call   0x28a0
    145c:	8b 43 04             	mov    0x4(%ebx),%eax
    145f:	85 c0                	test   %eax,%eax
    1461:	74 1a                	je     0x147d
    1463:	8b 50 04             	mov    0x4(%eax),%edx
    1466:	81 fa a7 00 00 00    	cmp    $0xa7,%edx
    146c:	77 32                	ja     0x14a0
    146e:	81 fa 98 00 00 00    	cmp    $0x98,%edx
    1474:	74 2a                	je     0x14a0
    1476:	8b 40 0c             	mov    0xc(%eax),%eax
    1479:	85 c0                	test   %eax,%eax
    147b:	75 e6                	jne    0x1463
    147d:	89 1c 24             	mov    %ebx,(%esp)
    1480:	31 db                	xor    %ebx,%ebx
    1482:	e8 49 15 00 00       	call   0x29d0
    1487:	c7 44 24 40 00 00 00 	movl   $0x0,0x40(%esp)
    148e:	00 
    148f:	eb 7e                	jmp    0x150f
    1491:	eb 0d                	jmp    0x14a0
    1493:	90                   	nop
    1494:	90                   	nop
    1495:	90                   	nop
    1496:	90                   	nop
    1497:	90                   	nop
    1498:	90                   	nop
    1499:	90                   	nop
    149a:	90                   	nop
    149b:	90                   	nop
    149c:	90                   	nop
    149d:	90                   	nop
    149e:	90                   	nop
    149f:	90                   	nop
    14a0:	81 ea 98 00 00 00    	sub    $0x98,%edx
    14a6:	89 50 04             	mov    %edx,0x4(%eax)
    14a9:	81 6b 0c 98 00 00 00 	subl   $0x98,0xc(%ebx)
    14b0:	8b 50 04             	mov    0x4(%eax),%edx
    14b3:	85 d2                	test   %edx,%edx
    14b5:	75 49                	jne    0x1500
    14b7:	8b 0b                	mov    (%ebx),%ecx
    14b9:	83 f9 01             	cmp    $0x1,%ecx
    14bc:	89 4c 24 48          	mov    %ecx,0x48(%esp)
    14c0:	0f 84 26 09 00 00    	je     0x1dec
    14c6:	8b 48 08             	mov    0x8(%eax),%ecx
    14c9:	85 c9                	test   %ecx,%ecx
    14cb:	0f 84 5d 09 00 00    	je     0x1e2e
    14d1:	8b 78 0c             	mov    0xc(%eax),%edi
    14d4:	85 ff                	test   %edi,%edi
    14d6:	89 7c 24 50          	mov    %edi,0x50(%esp)
    14da:	0f 84 74 09 00 00    	je     0x1e54
    14e0:	8b 54 24 50          	mov    0x50(%esp),%edx
    14e4:	89 51 0c             	mov    %edx,0xc(%ecx)
    14e7:	8b 50 0c             	mov    0xc(%eax),%edx
    14ea:	89 4a 08             	mov    %ecx,0x8(%edx)
    14ed:	83 2b 01             	subl   $0x1,(%ebx)
    14f0:	8b 50 04             	mov    0x4(%eax),%edx
    14f3:	8d b6 00 00 00 00    	lea    0x0(%esi),%esi
    14f9:	8d bc 27 00 00 00 00 	lea    0x0(%edi,%eiz,1),%edi
    1500:	03 10                	add    (%eax),%edx
    1502:	8d 5a 04             	lea    0x4(%edx),%ebx
    1505:	c7 02 98 00 00 00    	movl   $0x98,(%edx)
    150b:	89 5c 24 40          	mov    %ebx,0x40(%esp)
    150f:	e8 3c 13 00 00       	call   0x2850
    1514:	8b 84 24 b8 00 00 00 	mov    0xb8(%esp),%eax
    151b:	8b 8c 24 e0 00 00 00 	mov    0xe0(%esp),%ecx
    1522:	8b bc 24 dc 00 00 00 	mov    0xdc(%esp),%edi
    1529:	3d fd ff ff 7f       	cmp    $0x7ffffffd,%eax
    152e:	89 4c 24 44          	mov    %ecx,0x44(%esp)
    1532:	0f 84 d2 07 00 00    	je     0x1d0a
    1538:	8b 84 24 d4 00 00 00 	mov    0xd4(%esp),%eax
    153f:	8b 94 24 d0 00 00 00 	mov    0xd0(%esp),%edx
    1546:	8b 8c 24 c8 00 00 00 	mov    0xc8(%esp),%ecx
    154d:	89 84 24 24 01 00 00 	mov    %eax,0x124(%esp)
    1554:	8b 84 24 cc 00 00 00 	mov    0xcc(%esp),%eax
    155b:	89 54 24 4c          	mov    %edx,0x4c(%esp)
    155f:	8b 94 24 c4 00 00 00 	mov    0xc4(%esp),%edx
    1566:	89 4c 24 2c          	mov    %ecx,0x2c(%esp)
    156a:	8b 8c 24 b8 00 00 00 	mov    0xb8(%esp),%ecx
    1571:	89 44 24 48          	mov    %eax,0x48(%esp)
    1575:	8b 84 24 bc 00 00 00 	mov    0xbc(%esp),%eax
    157c:	89 54 24 28          	mov    %edx,0x28(%esp)
    1580:	8b 94 24 c0 00 00 00 	mov    0xc0(%esp),%edx
    1587:	89 8c 24 20 01 00 00 	mov    %ecx,0x120(%esp)
    158e:	89 44 24 50          	mov    %eax,0x50(%esp)
    1592:	89 54 24 54          	mov    %edx,0x54(%esp)
    1596:	8b 44 24 48          	mov    0x48(%esp),%eax
    159a:	85 ff                	test   %edi,%edi
    159c:	8b 54 24 4c          	mov    0x4c(%esp),%edx
    15a0:	8b 8c 24 24 01 00 00 	mov    0x124(%esp),%ecx
    15a7:	c7 84 24 f0 00 00 00 	movl   $0x2,0xf0(%esp)
    15ae:	02 00 00 00 
    15b2:	89 84 24 08 01 00 00 	mov    %eax,0x108(%esp)
    15b9:	8b 44 24 50          	mov    0x50(%esp),%eax
    15bd:	89 94 24 0c 01 00 00 	mov    %edx,0x10c(%esp)
    15c4:	8b 54 24 28          	mov    0x28(%esp),%edx
    15c8:	89 8c 24 10 01 00 00 	mov    %ecx,0x110(%esp)
    15cf:	8b 4c 24 2c          	mov    0x2c(%esp),%ecx
    15d3:	89 bc 24 18 01 00 00 	mov    %edi,0x118(%esp)
    15da:	89 84 24 f8 00 00 00 	mov    %eax,0xf8(%esp)
    15e1:	8b 84 24 20 01 00 00 	mov    0x120(%esp),%eax
    15e8:	89 94 24 00 01 00 00 	mov    %edx,0x100(%esp)
    15ef:	8b 54 24 54          	mov    0x54(%esp),%edx
    15f3:	89 8c 24 04 01 00 00 	mov    %ecx,0x104(%esp)
    15fa:	89 84 24 f4 00 00 00 	mov    %eax,0xf4(%esp)
    1601:	8b 84 24 d8 00 00 00 	mov    0xd8(%esp),%eax
    1608:	89 94 24 fc 00 00 00 	mov    %edx,0xfc(%esp)
    160f:	8b 54 24 44          	mov    0x44(%esp),%edx
    1613:	89 84 24 14 01 00 00 	mov    %eax,0x114(%esp)
    161a:	89 94 24 1c 01 00 00 	mov    %edx,0x11c(%esp)
    1621:	0f 84 d8 06 00 00    	je     0x1cff
    1627:	89 3b                	mov    %edi,(%ebx)
    1629:	8b 84 24 f0 00 00 00 	mov    0xf0(%esp),%eax
    1630:	8d 8c 24 14 01 00 00 	lea    0x114(%esp),%ecx
    1637:	c7 43 14 00 00 00 00 	movl   $0x0,0x14(%ebx)
    163e:	89 5b 1c             	mov    %ebx,0x1c(%ebx)
    1641:	89 43 10             	mov    %eax,0x10(%ebx)
    1644:	c7 43 18 00 00 00 00 	movl   $0x0,0x18(%ebx)
    164b:	8b 84 24 f4 00 00 00 	mov    0xf4(%esp),%eax
    1652:	89 43 20             	mov    %eax,0x20(%ebx)
    1655:	8b 84 24 f8 00 00 00 	mov    0xf8(%esp),%eax
    165c:	89 43 24             	mov    %eax,0x24(%ebx)
    165f:	8b 84 24 fc 00 00 00 	mov    0xfc(%esp),%eax
    1666:	89 43 28             	mov    %eax,0x28(%ebx)
    1669:	8b 84 24 00 01 00 00 	mov    0x100(%esp),%eax
    1670:	89 43 2c             	mov    %eax,0x2c(%ebx)
    1673:	8b 84 24 04 01 00 00 	mov    0x104(%esp),%eax
    167a:	89 43 30             	mov    %eax,0x30(%ebx)
    167d:	8b 84 24 08 01 00 00 	mov    0x108(%esp),%eax
    1684:	89 43 34             	mov    %eax,0x34(%ebx)
    1687:	8b 84 24 0c 01 00 00 	mov    0x10c(%esp),%eax
    168e:	89 43 38             	mov    %eax,0x38(%ebx)
    1691:	8b 84 24 10 01 00 00 	mov    0x110(%esp),%eax
    1698:	c7 43 40 00 00 00 00 	movl   $0x0,0x40(%ebx)
    169f:	c7 43 44 00 00 00 00 	movl   $0x0,0x44(%ebx)
    16a6:	89 43 3c             	mov    %eax,0x3c(%ebx)
    16a9:	8b 84 24 1c 01 00 00 	mov    0x11c(%esp),%eax
    16b0:	89 4c 24 04          	mov    %ecx,0x4(%esp)
    16b4:	89 1c 24             	mov    %ebx,(%esp)
    16b7:	89 44 24 08          	mov    %eax,0x8(%esp)
    16bb:	e8 00 3f 00 00       	call   0x55c0
    16c0:	8b 43 08             	mov    0x8(%ebx),%eax
    16c3:	c7 43 04 00 00 00 00 	movl   $0x0,0x4(%ebx)
    16ca:	03 84 24 1c 01 00 00 	add    0x11c(%esp),%eax
    16d1:	89 70 fc             	mov    %esi,-0x4(%eax)
    16d4:	c7 40 f8 e0 28 00 00 	movl   $0x28e0,-0x8(%eax)
    16db:	8d 50 c8             	lea    -0x38(%eax),%edx
    16de:	8d bc 24 3c 01 00 00 	lea    0x13c(%esp),%edi
    16e5:	c7 40 c8 00 00 00 00 	movl   $0x0,-0x38(%eax)
    16ec:	c7 42 24 90 0a 00 00 	movl   $0xa90,0x24(%edx)
    16f3:	c7 42 28 08 00 00 00 	movl   $0x8,0x28(%edx)
    16fa:	c7 42 2c 00 02 00 00 	movl   $0x200,0x2c(%edx)
    1701:	89 53 0c             	mov    %edx,0xc(%ebx)
    1704:	89 7c 24 04          	mov    %edi,0x4(%esp)
    1708:	8d 7b 54             	lea    0x54(%ebx),%edi
    170b:	c7 84 24 3c 01 00 00 	movl   $0xa90,0x13c(%esp)
    1712:	90 0a 00 00 
    1716:	c7 44 24 08 00 40 00 	movl   $0x4000,0x8(%esp)
    171d:	00 
    171e:	89 1c 24             	mov    %ebx,(%esp)
    1721:	e8 ea 75 00 00       	call   0x8d10
    1726:	89 3c 24             	mov    %edi,(%esp)
    1729:	c7 44 24 04 00 00 00 	movl   $0x0,0x4(%esp)
    1730:	00 
    1731:	e8 2a 37 00 00       	call   0x4e60
    1736:	89 7b 68             	mov    %edi,0x68(%ebx)
    1739:	8d 7b 70             	lea    0x70(%ebx),%edi
    173c:	c7 43 64 58 af 00 00 	movl   $0xaf58,0x64(%ebx)
    1743:	89 5b 6c             	mov    %ebx,0x6c(%ebx)
    1746:	8b 84 24 ec 00 00 00 	mov    0xec(%esp),%eax
    174d:	89 3c 24             	mov    %edi,(%esp)
    1750:	89 44 24 0c          	mov    %eax,0xc(%esp)
    1754:	8d 43 64             	lea    0x64(%ebx),%eax
    1757:	89 44 24 08          	mov    %eax,0x8(%esp)
    175b:	8d 84 24 e4 00 00 00 	lea    0xe4(%esp),%eax
    1762:	89 44 24 04          	mov    %eax,0x4(%esp)
    1766:	e8 b5 34 00 00       	call   0x4c20
    176b:	8b 84 24 ec 00 00 00 	mov    0xec(%esp),%eax
    1772:	89 7b 48             	mov    %edi,0x48(%ebx)
    1775:	89 43 50             	mov    %eax,0x50(%ebx)
    1778:	8b 84 24 b4 00 00 00 	mov    0xb4(%esp),%eax
    177f:	83 f8 01             	cmp    $0x1,%eax
    1782:	0f 86 50 06 00 00    	jbe    0x1dd8
    1788:	89 43 10             	mov    %eax,0x10(%ebx)
    178b:	8b 54 24 40          	mov    0x40(%esp),%edx
    178f:	89 1c b5 80 01 50 00 	mov    %ebx,0x500180(,%esi,4)
    1796:	83 44 24 5c 10       	addl   $0x10,0x5c(%esp)
    179b:	89 14 b5 00 02 50 00 	mov    %edx,0x500200(,%esi,4)
    17a2:	83 c6 01             	add    $0x1,%esi
    17a5:	83 fe 0e             	cmp    $0xe,%esi
    17a8:	0f 85 12 fb ff ff    	jne    0x12c0
    17ae:	c7 44 24 5c 08 00 00 	movl   $0x8,0x5c(%esp)
    17b5:	00 
    17b6:	31 db                	xor    %ebx,%ebx
    17b8:	90                   	nop
    17b9:	8d b4 26 00 00 00 00 	lea    0x0(%esi,%eiz,1),%esi
    17c0:	8b 0d 68 02 50 00    	mov    0x500268,%ecx
    17c6:	31 d2                	xor    %edx,%edx
    17c8:	b8 e8 03 00 00       	mov    $0x3e8,%eax
    17cd:	31 ff                	xor    %edi,%edi
    17cf:	f7 71 04             	divl   0x4(%ecx)
    17d2:	31 d2                	xor    %edx,%edx
    17d4:	89 7c 24 0c          	mov    %edi,0xc(%esp)
    17d8:	89 c1                	mov    %eax,%ecx
    17da:	b8 40 42 0f 00       	mov    $0xf4240,%eax
    17df:	f7 f1                	div    %ecx
    17e1:	89 f9                	mov    %edi,%ecx
    17e3:	89 df                	mov    %ebx,%edi
    17e5:	89 c2                	mov    %eax,%edx
    17e7:	0f ac ca 01          	shrd   $0x1,%ecx,%edx
    17eb:	d1 e9                	shr    %ecx
    17ed:	81 c2 fe ff ff 7f    	add    $0x7ffffffe,%edx
    17f3:	83 d1 00             	adc    $0x0,%ecx
    17f6:	89 4c 24 04          	mov    %ecx,0x4(%esp)
    17fa:	c1 ff 1f             	sar    $0x1f,%edi
    17fd:	89 44 24 08          	mov    %eax,0x8(%esp)
    1801:	89 14 24             	mov    %edx,(%esp)
    1804:	e8 cf 94 00 00       	call   0xacd8
    1809:	31 d2                	xor    %edx,%edx
    180b:	c7 44 24 74 01 00 00 	movl   $0x1,0x74(%esp)
    1812:	00 
    1813:	c7 84 24 8c 00 00 00 	movl   $0x0,0x8c(%esp)
    181a:	00 00 00 00 
    181e:	c7 84 24 90 00 00 00 	movl   $0x0,0x90(%esp)
    1825:	00 00 00 00 
    1829:	89 9c 24 84 00 00 00 	mov    %ebx,0x84(%esp)
    1830:	89 bc 24 88 00 00 00 	mov    %edi,0x88(%esp)
    1837:	89 84 24 28 01 00 00 	mov    %eax,0x128(%esp)
    183e:	89 c1                	mov    %eax,%ecx
    1840:	a1 7c 02 50 00       	mov    0x50027c,%eax
    1845:	89 4c 24 7c          	mov    %ecx,0x7c(%esp)
    1849:	c7 84 24 98 00 00 00 	movl   $0x0,0x98(%esp)
    1850:	00 00 00 00 
    1854:	c7 84 24 9c 00 00 00 	movl   $0x0,0x9c(%esp)
    185b:	00 00 00 00 
    185f:	83 c0 01             	add    $0x1,%eax
    1862:	a3 7c 02 50 00       	mov    %eax,0x50027c
    1867:	a1 7c 02 50 00       	mov    0x50027c,%eax
    186c:	8b 35 ec 04 50 00    	mov    0x5004ec,%esi
    1872:	c7 84 24 a0 00 00 00 	movl   $0x4000,0xa0(%esp)
    1879:	00 40 00 00 
    187d:	f7 f6                	div    %esi
    187f:	8b 35 58 02 50 00    	mov    0x500258,%esi
    1885:	89 15 7c 02 50 00    	mov    %edx,0x50027c
    188b:	a1 7c 02 50 00       	mov    0x50027c,%eax
    1890:	89 84 24 2c 01 00 00 	mov    %eax,0x12c(%esp)
    1897:	8b 84 24 2c 01 00 00 	mov    0x12c(%esp),%eax
    189e:	89 84 24 94 00 00 00 	mov    %eax,0x94(%esp)
    18a5:	89 c8                	mov    %ecx,%eax
    18a7:	c1 f8 1f             	sar    $0x1f,%eax
    18aa:	89 84 24 80 00 00 00 	mov    %eax,0x80(%esp)
    18b1:	8b 84 24 28 01 00 00 	mov    0x128(%esp),%eax
    18b8:	89 44 24 78          	mov    %eax,0x78(%esp)
    18bc:	e8 df 0f 00 00       	call   0x28a0
    18c1:	8b 46 04             	mov    0x4(%esi),%eax
    18c4:	85 c0                	test   %eax,%eax
    18c6:	74 14                	je     0x18dc
    18c8:	8b 50 04             	mov    0x4(%eax),%edx
    18cb:	83 fa 67             	cmp    $0x67,%edx
    18ce:	77 20                	ja     0x18f0
    18d0:	83 fa 58             	cmp    $0x58,%edx
    18d3:	74 1b                	je     0x18f0
    18d5:	8b 40 0c             	mov    0xc(%eax),%eax
    18d8:	85 c0                	test   %eax,%eax
    18da:	75 ec                	jne    0x18c8
    18dc:	89 34 24             	mov    %esi,(%esp)
    18df:	31 f6                	xor    %esi,%esi
    18e1:	e8 ea 10 00 00       	call   0x29d0
    18e6:	eb 63                	jmp    0x194b
    18e8:	90                   	nop
    18e9:	8d b4 26 00 00 00 00 	lea    0x0(%esi,%eiz,1),%esi
    18f0:	83 ea 58             	sub    $0x58,%edx
    18f3:	89 50 04             	mov    %edx,0x4(%eax)
    18f6:	83 6e 0c 58          	subl   $0x58,0xc(%esi)
    18fa:	8b 50 04             	mov    0x4(%eax),%edx
    18fd:	85 d2                	test   %edx,%edx
    18ff:	75 3f                	jne    0x1940
    1901:	8b 0e                	mov    (%esi),%ecx
    1903:	83 f9 01             	cmp    $0x1,%ecx
    1906:	89 4c 24 48          	mov    %ecx,0x48(%esp)
    190a:	0f 84 02 05 00 00    	je     0x1e12
    1910:	8b 48 08             	mov    0x8(%eax),%ecx
    1913:	85 c9                	test   %ecx,%ecx
    1915:	0f 84 5f 05 00 00    	je     0x1e7a
    191b:	8b 78 0c             	mov    0xc(%eax),%edi
    191e:	85 ff                	test   %edi,%edi
    1920:	89 7c 24 50          	mov    %edi,0x50(%esp)
    1924:	0f 84 76 05 00 00    	je     0x1ea0
    192a:	8b 54 24 50          	mov    0x50(%esp),%edx
    192e:	89 51 0c             	mov    %edx,0xc(%ecx)
    1931:	8b 50 0c             	mov    0xc(%eax),%edx
    1934:	89 4a 08             	mov    %ecx,0x8(%edx)
    1937:	83 2e 01             	subl   $0x1,(%esi)
    193a:	8b 50 04             	mov    0x4(%eax),%edx
    193d:	8d 76 00             	lea    0x0(%esi),%esi
    1940:	03 10                	add    (%eax),%edx
    1942:	c7 02 58 00 00 00    	movl   $0x58,(%edx)
    1948:	8d 72 04             	lea    0x4(%edx),%esi
    194b:	e8 00 0f 00 00       	call   0x2850
    1950:	8b 84 24 9c 00 00 00 	mov    0x9c(%esp),%eax
    1957:	85 c0                	test   %eax,%eax
    1959:	0f 84 a9 04 00 00    	je     0x1e08
    195f:	89 06                	mov    %eax,(%esi)
    1961:	8b 44 24 74          	mov    0x74(%esp),%eax
    1965:	8d 8c 24 98 00 00 00 	lea    0x98(%esp),%ecx
    196c:	c7 46 14 00 00 00 00 	movl   $0x0,0x14(%esi)
    1973:	89 76 1c             	mov    %esi,0x1c(%esi)
    1976:	89 46 10             	mov    %eax,0x10(%esi)
    1979:	c7 46 18 00 00 00 00 	movl   $0x0,0x18(%esi)
    1980:	8b 44 24 78          	mov    0x78(%esp),%eax
    1984:	89 46 20             	mov    %eax,0x20(%esi)
    1987:	8b 44 24 7c          	mov    0x7c(%esp),%eax
    198b:	89 46 24             	mov    %eax,0x24(%esi)
    198e:	8b 84 24 80 00 00 00 	mov    0x80(%esp),%eax
    1995:	89 46 28             	mov    %eax,0x28(%esi)
    1998:	8b 84 24 84 00 00 00 	mov    0x84(%esp),%eax
    199f:	89 46 2c             	mov    %eax,0x2c(%esi)
    19a2:	8b 84 24 88 00 00 00 	mov    0x88(%esp),%eax
    19a9:	89 46 30             	mov    %eax,0x30(%esi)
    19ac:	8b 84 24 8c 00 00 00 	mov    0x8c(%esp),%eax
    19b3:	89 46 34             	mov    %eax,0x34(%esi)
    19b6:	8b 84 24 90 00 00 00 	mov    0x90(%esp),%eax
    19bd:	89 46 38             	mov    %eax,0x38(%esi)
    19c0:	8b 84 24 94 00 00 00 	mov    0x94(%esp),%eax
    19c7:	c7 46 40 00 00 00 00 	movl   $0x0,0x40(%esi)
    19ce:	c7 46 44 00 00 00 00 	movl   $0x0,0x44(%esi)
    19d5:	89 46 3c             	mov    %eax,0x3c(%esi)
    19d8:	8b 84 24 a0 00 00 00 	mov    0xa0(%esp),%eax
    19df:	89 4c 24 04          	mov    %ecx,0x4(%esp)
    19e3:	89 34 24             	mov    %esi,(%esp)
    19e6:	89 44 24 08          	mov    %eax,0x8(%esp)
    19ea:	e8 d1 3b 00 00       	call   0x55c0
    19ef:	8b 46 08             	mov    0x8(%esi),%eax
    19f2:	c7 46 04 00 00 00 00 	movl   $0x0,0x4(%esi)
    19f9:	03 84 24 a0 00 00 00 	add    0xa0(%esp),%eax
    1a00:	c7 40 fc e0 28 00 00 	movl   $0x28e0,-0x4(%eax)
    1a07:	8d 50 cc             	lea    -0x34(%eax),%edx
    1a0a:	c7 40 cc 00 00 00 00 	movl   $0x0,-0x34(%eax)
    1a11:	8d bc 24 38 01 00 00 	lea    0x138(%esp),%edi
    1a18:	c7 42 24 10 0a 00 00 	movl   $0xa10,0x24(%edx)
    1a1f:	c7 42 28 08 00 00 00 	movl   $0x8,0x28(%edx)
    1a26:	c7 42 2c 00 02 00 00 	movl   $0x200,0x2c(%edx)
    1a2d:	89 56 0c             	mov    %edx,0xc(%esi)
    1a30:	c7 84 24 38 01 00 00 	movl   $0xa10,0x138(%esp)
    1a37:	10 0a 00 00 
    1a3b:	c7 44 24 08 00 40 00 	movl   $0x4000,0x8(%esp)
    1a42:	00 
    1a43:	89 7c 24 04          	mov    %edi,0x4(%esp)
    1a47:	89 34 24             	mov    %esi,(%esp)
    1a4a:	e8 c1 72 00 00       	call   0x8d10
    1a4f:	89 34 9d c0 01 50 00 	mov    %esi,0x5001c0(,%ebx,4)
    1a56:	83 c3 01             	add    $0x1,%ebx
    1a59:	83 6c 24 5c 01       	subl   $0x1,0x5c(%esp)
    1a5e:	0f 85 5c fd ff ff    	jne    0x17c0
    1a64:	31 db                	xor    %ebx,%ebx
    1a66:	8d 76 00             	lea    0x0(%esi),%esi
    1a69:	8d bc 27 00 00 00 00 	lea    0x0(%edi,%eiz,1),%edi
    1a70:	8b 04 9d 80 01 50 00 	mov    0x500180(,%ebx,4),%eax
    1a77:	83 c3 01             	add    $0x1,%ebx
    1a7a:	89 04 24             	mov    %eax,(%esp)
    1a7d:	e8 3e 5d 00 00       	call   0x77c0
    1a82:	83 fb 0e             	cmp    $0xe,%ebx
    1a85:	75 e9                	jne    0x1a70
    1a87:	c6 05 00 03 50 00 01 	movb   $0x1,0x500300
    1a8e:	30 db                	xor    %bl,%bl
    1a90:	8b 04 9d c0 01 50 00 	mov    0x5001c0(,%ebx,4),%eax
    1a97:	83 c3 01             	add    $0x1,%ebx
    1a9a:	89 04 24             	mov    %eax,(%esp)
    1a9d:	e8 1e 5d 00 00       	call   0x77c0
    1aa2:	83 fb 08             	cmp    $0x8,%ebx
    1aa5:	75 e9                	jne    0x1a90
    1aa7:	0f 31                	rdtsc  
    1aa9:	bf 40 42 0f 00       	mov    $0xf4240,%edi
    1aae:	69 ca 40 42 0f 00    	imul   $0xf4240,%edx,%ecx
    1ab4:	f7 e7                	mul    %edi
    1ab6:	c7 44 24 0c 00 00 00 	movl   $0x0,0xc(%esp)
    1abd:	00 
    1abe:	8d 14 11             	lea    (%ecx,%edx,1),%edx
    1ac1:	8b 0d 08 05 50 00    	mov    0x500508,%ecx
    1ac7:	89 04 24             	mov    %eax,(%esp)
    1aca:	89 54 24 04          	mov    %edx,0x4(%esp)
    1ace:	89 4c 24 08          	mov    %ecx,0x8(%esp)
    1ad2:	e8 01 92 00 00       	call   0xacd8
    1ad7:	69 4c 24 3c 40 42 0f 	imul   $0xf4240,0x3c(%esp),%ecx
    1ade:	00 
    1adf:	c7 44 24 0c 00 00 00 	movl   $0x0,0xc(%esp)
    1ae6:	00 
    1ae7:	89 c3                	mov    %eax,%ebx
    1ae9:	8b 44 24 38          	mov    0x38(%esp),%eax
    1aed:	89 d6                	mov    %edx,%esi
    1aef:	f7 e7                	mul    %edi
    1af1:	8d 7c 24 74          	lea    0x74(%esp),%edi
    1af5:	01 ca                	add    %ecx,%edx
    1af7:	89 54 24 54          	mov    %edx,0x54(%esp)
    1afb:	8b 54 24 34          	mov    0x34(%esp),%edx
    1aff:	89 44 24 50          	mov    %eax,0x50(%esp)
    1b03:	8b 44 24 50          	mov    0x50(%esp),%eax
    1b07:	89 54 24 08          	mov    %edx,0x8(%esp)
    1b0b:	8b 54 24 54          	mov    0x54(%esp),%edx
    1b0f:	89 04 24             	mov    %eax,(%esp)
    1b12:	89 54 24 04          	mov    %edx,0x4(%esp)
    1b16:	e8 bd 91 00 00       	call   0xacd8
    1b1b:	c7 04 24 20 af 00 00 	movl   $0xaf20,(%esp)
    1b22:	29 c3                	sub    %eax,%ebx
    1b24:	19 d6                	sbb    %edx,%esi
    1b26:	e8 55 0a 00 00       	call   0x2580
    1b2b:	89 5c 24 04          	mov    %ebx,0x4(%esp)
    1b2f:	31 db                	xor    %ebx,%ebx
    1b31:	c7 44 24 10 00 00 00 	movl   $0x0,0x10(%esp)
    1b38:	00 
    1b39:	89 7c 24 0c          	mov    %edi,0xc(%esp)
    1b3d:	89 74 24 08          	mov    %esi,0x8(%esp)
    1b41:	c7 04 24 20 01 40 00 	movl   $0x400120,(%esp)
    1b48:	e8 63 11 00 00       	call   0x2cb0
    1b4d:	c6 44 04 74 00       	movb   $0x0,0x74(%esp,%eax,1)
    1b52:	89 3c 24             	mov    %edi,(%esp)
    1b55:	e8 26 0a 00 00       	call   0x2580
    1b5a:	0f b6 05 24 01 40 00 	movzbl 0x400124,%eax
    1b61:	0f b6 c0             	movzbl %al,%eax
    1b64:	89 04 24             	mov    %eax,(%esp)
    1b67:	e8 b4 0d 00 00       	call   0x2920
    1b6c:	c7 04 24 a7 b1 00 00 	movl   $0xb1a7,(%esp)
    1b73:	e8 08 0a 00 00       	call   0x2580
    1b78:	c7 05 20 01 40 00 0a 	movl   $0xa,0x400120
    1b7f:	00 00 00 
    1b82:	c7 04 24 28 af 00 00 	movl   $0xaf28,(%esp)
    1b89:	e8 f2 09 00 00       	call   0x2580
    1b8e:	0f b6 05 24 01 40 00 	movzbl 0x400124,%eax
    1b95:	0f b6 c0             	movzbl %al,%eax
    1b98:	89 04 24             	mov    %eax,(%esp)
    1b9b:	e8 80 0d 00 00       	call   0x2920
    1ba0:	c7 04 24 a7 b1 00 00 	movl   $0xb1a7,(%esp)
    1ba7:	e8 d4 09 00 00       	call   0x2580
    1bac:	c7 05 20 01 40 00 0a 	movl   $0xa,0x400120
    1bb3:	00 00 00 
    1bb6:	c7 04 24 38 af 00 00 	movl   $0xaf38,(%esp)
    1bbd:	e8 be 09 00 00       	call   0x2580
    1bc2:	8d b4 26 00 00 00 00 	lea    0x0(%esi,%eiz,1),%esi
    1bc9:	8d bc 27 00 00 00 00 	lea    0x0(%edi,%eiz,1),%edi
    1bd0:	8b 04 9d 00 02 50 00 	mov    0x500200(,%ebx,4),%eax
    1bd7:	83 c3 01             	add    $0x1,%ebx
    1bda:	c7 44 24 0c 00 00 00 	movl   $0x0,0xc(%esp)
    1be1:	00 
    1be2:	89 7c 24 08          	mov    %edi,0x8(%esp)
    1be6:	c7 04 24 20 01 40 00 	movl   $0x400120,(%esp)
    1bed:	89 44 24 04          	mov    %eax,0x4(%esp)
    1bf1:	e8 9a 0f 00 00       	call   0x2b90
    1bf6:	c6 44 04 74 00       	movb   $0x0,0x74(%esp,%eax,1)
    1bfb:	89 3c 24             	mov    %edi,(%esp)
    1bfe:	e8 7d 09 00 00       	call   0x2580
    1c03:	c7 04 24 3a af 00 00 	movl   $0xaf3a,(%esp)
    1c0a:	e8 71 09 00 00       	call   0x2580
    1c0f:	83 fb 0d             	cmp    $0xd,%ebx
    1c12:	75 bc                	jne    0x1bd0
    1c14:	a1 34 02 50 00       	mov    0x500234,%eax
    1c19:	31 f6                	xor    %esi,%esi
    1c1b:	c7 44 24 0c 00 00 00 	movl   $0x0,0xc(%esp)
    1c22:	00 
    1c23:	89 7c 24 08          	mov    %edi,0x8(%esp)
    1c27:	c7 04 24 20 01 40 00 	movl   $0x400120,(%esp)
    1c2e:	89 44 24 04          	mov    %eax,0x4(%esp)
    1c32:	e8 59 0f 00 00       	call   0x2b90
    1c37:	c6 44 04 74 00       	movb   $0x0,0x74(%esp,%eax,1)
    1c3c:	89 3c 24             	mov    %edi,(%esp)
    1c3f:	e8 3c 09 00 00       	call   0x2580
    1c44:	c7 04 24 4e b2 00 00 	movl   $0xb24e,(%esp)
    1c4b:	e8 30 09 00 00       	call   0x2580
    1c50:	0f b6 05 24 01 40 00 	movzbl 0x400124,%eax
    1c57:	0f b6 c0             	movzbl %al,%eax
    1c5a:	89 04 24             	mov    %eax,(%esp)
    1c5d:	e8 be 0c 00 00       	call   0x2920
    1c62:	c7 04 24 a7 b1 00 00 	movl   $0xb1a7,(%esp)
    1c69:	e8 12 09 00 00       	call   0x2580
    1c6e:	c7 05 20 01 40 00 0a 	movl   $0xa,0x400120
    1c75:	00 00 00 
    1c78:	c7 04 24 3c af 00 00 	movl   $0xaf3c,(%esp)
    1c7f:	e8 fc 08 00 00       	call   0x2580
    1c84:	0f b6 05 24 01 40 00 	movzbl 0x400124,%eax
    1c8b:	0f b6 c0             	movzbl %al,%eax
    1c8e:	89 04 24             	mov    %eax,(%esp)
    1c91:	e8 8a 0c 00 00       	call   0x2920
    1c96:	c7 04 24 a7 b1 00 00 	movl   $0xb1a7,(%esp)
    1c9d:	e8 de 08 00 00       	call   0x2580
    1ca2:	c7 05 20 01 40 00 0a 	movl   $0xa,0x400120
    1ca9:	00 00 00 
    1cac:	8d 74 26 00          	lea    0x0(%esi,%eiz,1),%esi
    1cb0:	8b 1c b5 80 01 50 00 	mov    0x500180(,%esi,4),%ebx
    1cb7:	85 db                	test   %ebx,%ebx
    1cb9:	74 2d                	je     0x1ce8
    1cbb:	8d 43 70             	lea    0x70(%ebx),%eax
    1cbe:	89 04 24             	mov    %eax,(%esp)
    1cc1:	e8 0a 2e 00 00       	call   0x4ad0
    1cc6:	8d 43 54             	lea    0x54(%ebx),%eax
    1cc9:	c7 43 64 70 af 00 00 	movl   $0xaf70,0x64(%ebx)
    1cd0:	89 04 24             	mov    %eax,(%esp)
    1cd3:	e8 f8 32 00 00       	call   0x4fd0
    1cd8:	89 1c 24             	mov    %ebx,(%esp)
    1cdb:	e8 60 6c 00 00       	call   0x8940
    1ce0:	89 1c 24             	mov    %ebx,(%esp)
    1ce3:	e8 f8 0c 00 00       	call   0x29e0
    1ce8:	83 c6 01             	add    $0x1,%esi
    1ceb:	83 fe 0e             	cmp    $0xe,%esi
    1cee:	75 c0                	jne    0x1cb0
    1cf0:	81 c4 44 01 00 00    	add    $0x144,%esp
    1cf6:	31 c0                	xor    %eax,%eax
    1cf8:	5b                   	pop    %ebx
    1cf9:	5e                   	pop    %esi
    1cfa:	5f                   	pop    %edi
    1cfb:	89 ec                	mov    %ebp,%esp
    1cfd:	5d                   	pop    %ebp
    1cfe:	c3                   	ret    
    1cff:	8b 3d 80 02 50 00    	mov    0x500280,%edi
    1d05:	e9 1d f9 ff ff       	jmp    0x1627
    1d0a:	8b 0d 68 02 50 00    	mov    0x500268,%ecx
    1d10:	31 d2                	xor    %edx,%edx
    1d12:	b8 e8 03 00 00       	mov    $0x3e8,%eax
    1d17:	f7 71 04             	divl   0x4(%ecx)
    1d1a:	31 d2                	xor    %edx,%edx
    1d1c:	c7 44 24 0c 00 00 00 	movl   $0x0,0xc(%esp)
    1d23:	00 
    1d24:	89 c1                	mov    %eax,%ecx
    1d26:	b8 40 42 0f 00       	mov    $0xf4240,%eax
    1d2b:	f7 f1                	div    %ecx
    1d2d:	8b 54 24 0c          	mov    0xc(%esp),%edx
    1d31:	8b 8c 24 e8 00 00 00 	mov    0xe8(%esp),%ecx
    1d38:	89 44 24 08          	mov    %eax,0x8(%esp)
    1d3c:	8b 44 24 08          	mov    0x8(%esp),%eax
    1d40:	0f ac d0 01          	shrd   $0x1,%edx,%eax
    1d44:	d1 ea                	shr    %edx
    1d46:	89 54 24 54          	mov    %edx,0x54(%esp)
    1d4a:	8b 94 24 e4 00 00 00 	mov    0xe4(%esp),%edx
    1d51:	89 44 24 50          	mov    %eax,0x50(%esp)
    1d55:	01 54 24 50          	add    %edx,0x50(%esp)
    1d59:	11 4c 24 54          	adc    %ecx,0x54(%esp)
    1d5d:	8b 44 24 50          	mov    0x50(%esp),%eax
    1d61:	8b 54 24 54          	mov    0x54(%esp),%edx
    1d65:	89 04 24             	mov    %eax,(%esp)
    1d68:	89 54 24 04          	mov    %edx,0x4(%esp)
    1d6c:	e8 67 8f 00 00       	call   0xacd8
    1d71:	c7 44 24 28 00 00 00 	movl   $0x0,0x28(%esp)
    1d78:	00 
    1d79:	c7 44 24 2c 00 00 00 	movl   $0x0,0x2c(%esp)
    1d80:	00 
    1d81:	c7 44 24 48 00 00 00 	movl   $0x0,0x48(%esp)
    1d88:	00 
    1d89:	c7 44 24 4c 00 00 00 	movl   $0x0,0x4c(%esp)
    1d90:	00 
    1d91:	89 84 24 20 01 00 00 	mov    %eax,0x120(%esp)
    1d98:	89 c2                	mov    %eax,%edx
    1d9a:	89 44 24 50          	mov    %eax,0x50(%esp)
    1d9e:	a1 7c 02 50 00       	mov    0x50027c,%eax
    1da3:	c1 fa 1f             	sar    $0x1f,%edx
    1da6:	89 54 24 54          	mov    %edx,0x54(%esp)
    1daa:	31 d2                	xor    %edx,%edx
    1dac:	83 c0 01             	add    $0x1,%eax
    1daf:	a3 7c 02 50 00       	mov    %eax,0x50027c
    1db4:	a1 7c 02 50 00       	mov    0x50027c,%eax
    1db9:	8b 0d ec 04 50 00    	mov    0x5004ec,%ecx
    1dbf:	f7 f1                	div    %ecx
    1dc1:	89 15 7c 02 50 00    	mov    %edx,0x50027c
    1dc7:	a1 7c 02 50 00       	mov    0x50027c,%eax
    1dcc:	89 84 24 24 01 00 00 	mov    %eax,0x124(%esp)
    1dd3:	e9 be f7 ff ff       	jmp    0x1596
    1dd8:	c7 43 10 02 00 00 00 	movl   $0x2,0x10(%ebx)
    1ddf:	89 1c 24             	mov    %ebx,(%esp)
    1de2:	e8 f9 68 00 00       	call   0x86e0
    1de7:	e9 9f f9 ff ff       	jmp    0x178b
    1dec:	c7 43 04 00 00 00 00 	movl   $0x0,0x4(%ebx)
    1df3:	c7 43 08 00 00 00 00 	movl   $0x0,0x8(%ebx)
    1dfa:	c7 03 00 00 00 00    	movl   $0x0,(%ebx)
    1e00:	8b 50 04             	mov    0x4(%eax),%edx
    1e03:	e9 f8 f6 ff ff       	jmp    0x1500
    1e08:	a1 80 02 50 00       	mov    0x500280,%eax
    1e0d:	e9 4d fb ff ff       	jmp    0x195f
    1e12:	c7 46 04 00 00 00 00 	movl   $0x0,0x4(%esi)
    1e19:	c7 46 08 00 00 00 00 	movl   $0x0,0x8(%esi)
    1e20:	c7 06 00 00 00 00    	movl   $0x0,(%esi)
    1e26:	8b 50 04             	mov    0x4(%eax),%edx
    1e29:	e9 12 fb ff ff       	jmp    0x1940
    1e2e:	83 7c 24 48 00       	cmpl   $0x0,0x48(%esp)
    1e33:	0f 84 c7 f6 ff ff    	je     0x1500
    1e39:	8b 53 04             	mov    0x4(%ebx),%edx
    1e3c:	8b 52 0c             	mov    0xc(%edx),%edx
    1e3f:	89 53 04             	mov    %edx,0x4(%ebx)
    1e42:	c7 42 08 00 00 00 00 	movl   $0x0,0x8(%edx)
    1e49:	83 2b 01             	subl   $0x1,(%ebx)
    1e4c:	8b 50 04             	mov    0x4(%eax),%edx
    1e4f:	e9 ac f6 ff ff       	jmp    0x1500
    1e54:	83 7c 24 48 00       	cmpl   $0x0,0x48(%esp)
    1e59:	0f 84 a1 f6 ff ff    	je     0x1500
    1e5f:	8b 53 08             	mov    0x8(%ebx),%edx
    1e62:	8b 52 08             	mov    0x8(%edx),%edx
    1e65:	89 53 08             	mov    %edx,0x8(%ebx)
    1e68:	c7 42 0c 00 00 00 00 	movl   $0x0,0xc(%edx)
    1e6f:	83 2b 01             	subl   $0x1,(%ebx)
    1e72:	8b 50 04             	mov    0x4(%eax),%edx
    1e75:	e9 86 f6 ff ff       	jmp    0x1500
    1e7a:	83 7c 24 48 00       	cmpl   $0x0,0x48(%esp)
    1e7f:	0f 84 bb fa ff ff    	je     0x1940
    1e85:	8b 56 04             	mov    0x4(%esi),%edx
    1e88:	8b 52 0c             	mov    0xc(%edx),%edx
    1e8b:	89 56 04             	mov    %edx,0x4(%esi)
    1e8e:	c7 42 08 00 00 00 00 	movl   $0x0,0x8(%edx)
    1e95:	83 2e 01             	subl   $0x1,(%esi)
    1e98:	8b 50 04             	mov    0x4(%eax),%edx
    1e9b:	e9 a0 fa ff ff       	jmp    0x1940
    1ea0:	83 7c 24 48 00       	cmpl   $0x0,0x48(%esp)
    1ea5:	0f 84 95 fa ff ff    	je     0x1940
    1eab:	8b 56 08             	mov    0x8(%esi),%edx
    1eae:	8b 52 08             	mov    0x8(%edx),%edx
    1eb1:	89 56 08             	mov    %edx,0x8(%esi)
    1eb4:	c7 42 0c 00 00 00 00 	movl   $0x0,0xc(%edx)
    1ebb:	83 2e 01             	subl   $0x1,(%esi)
    1ebe:	8b 50 04             	mov    0x4(%eax),%edx
    1ec1:	e9 7a fa ff ff       	jmp    0x1940
    1ec6:	90                   	nop
    1ec7:	90                   	nop
    1ec8:	90                   	nop
    1ec9:	90                   	nop
    1eca:	90                   	nop
    1ecb:	90                   	nop
    1ecc:	90                   	nop
    1ecd:	90                   	nop
    1ece:	90                   	nop
    1ecf:	90                   	nop
    1ed0:	55                   	push   %ebp
    1ed1:	89 e5                	mov    %esp,%ebp
    1ed3:	8b 45 08             	mov    0x8(%ebp),%eax
    1ed6:	c7 00 70 af 00 00    	movl   $0xaf70,(%eax)
    1edc:	5d                   	pop    %ebp
    1edd:	c3                   	ret    
    1ede:	90                   	nop
    1edf:	90                   	nop
    1ee0:	55                   	push   %ebp
    1ee1:	89 e5                	mov    %esp,%ebp
    1ee3:	8b 45 08             	mov    0x8(%ebp),%eax
    1ee6:	c7 00 70 af 00 00    	movl   $0xaf70,(%eax)
    1eec:	5d                   	pop    %ebp
    1eed:	c3                   	ret    
    1eee:	90                   	nop
    1eef:	90                   	nop
    1ef0:	55                   	push   %ebp
    1ef1:	89 e5                	mov    %esp,%ebp
    1ef3:	83 ec 08             	sub    $0x8,%esp
    1ef6:	8b 45 08             	mov    0x8(%ebp),%eax
    1ef9:	c7 00 70 af 00 00    	movl   $0xaf70,(%eax)
    1eff:	c9                   	leave  
    1f00:	e9 db 0a 00 00       	jmp    0x29e0
    1f05:	90                   	nop
    1f06:	90                   	nop
    1f07:	90                   	nop
    1f08:	90                   	nop
    1f09:	90                   	nop
    1f0a:	90                   	nop
    1f0b:	90                   	nop
    1f0c:	90                   	nop
    1f0d:	90                   	nop
    1f0e:	90                   	nop
    1f0f:	90                   	nop
    1f10:	55                   	push   %ebp
    1f11:	89 e5                	mov    %esp,%ebp
    1f13:	83 ec 08             	sub    $0x8,%esp
    1f16:	8b 45 08             	mov    0x8(%ebp),%eax
    1f19:	c7 00 70 af 00 00    	movl   $0xaf70,(%eax)
    1f1f:	c9                   	leave  
    1f20:	e9 bb 0a 00 00       	jmp    0x29e0
    1f25:	90                   	nop
    1f26:	90                   	nop
    1f27:	90                   	nop
    1f28:	90                   	nop
    1f29:	90                   	nop
    1f2a:	90                   	nop
    1f2b:	90                   	nop
    1f2c:	90                   	nop
    1f2d:	90                   	nop
    1f2e:	90                   	nop
    1f2f:	90                   	nop
    1f30:	55                   	push   %ebp
    1f31:	89 e5                	mov    %esp,%ebp
    1f33:	83 ec 08             	sub    $0x8,%esp
    1f36:	8b 55 08             	mov    0x8(%ebp),%edx
    1f39:	8b 42 08             	mov    0x8(%edx),%eax
    1f3c:	8b 48 20             	mov    0x20(%eax),%ecx
    1f3f:	83 f9 01             	cmp    $0x1,%ecx
    1f42:	7e 17                	jle    0x1f5b
    1f44:	8b 48 20             	mov    0x20(%eax),%ecx
    1f47:	81 f9 fc ff ff 7f    	cmp    $0x7ffffffc,%ecx
    1f4d:	7f 0c                	jg     0x1f5b
    1f4f:	8b 0d 6c 02 50 00    	mov    0x50026c,%ecx
    1f55:	03 48 24             	add    0x24(%eax),%ecx
    1f58:	89 48 20             	mov    %ecx,0x20(%eax)
    1f5b:	8b 42 04             	mov    0x4(%edx),%eax
    1f5e:	89 45 08             	mov    %eax,0x8(%ebp)
    1f61:	c9                   	leave  
    1f62:	e9 29 2f 00 00       	jmp    0x4e90
    1f67:	90                   	nop
    1f68:	90                   	nop
    1f69:	90                   	nop
    1f6a:	90                   	nop
    1f6b:	90                   	nop
    1f6c:	90                   	nop
    1f6d:	90                   	nop
    1f6e:	90                   	nop
    1f6f:	90                   	nop
    1f70:	55                   	push   %ebp
    1f71:	b8 01 00 00 00       	mov    $0x1,%eax
    1f76:	89 e5                	mov    %esp,%ebp
    1f78:	57                   	push   %edi
    1f79:	56                   	push   %esi
    1f7a:	53                   	push   %ebx
    1f7b:	83 ec 5c             	sub    $0x5c,%esp
    1f7e:	8b 0d ec 04 50 00    	mov    0x5004ec,%ecx
    1f84:	8b 15 04 01 40 00    	mov    0x400104,%edx
    1f8a:	8d 1c 95 00 00 00 00 	lea    0x0(,%edx,4),%ebx
    1f91:	f0 0f c1 83 08 01 40 	lock xadd %eax,0x400108(%ebx)
    1f98:	00 
    1f99:	8b 1d 18 04 50 00    	mov    0x500418,%ebx
    1f9f:	8b 43 20             	mov    0x20(%ebx),%eax
    1fa2:	c1 e8 18             	shr    $0x18,%eax
    1fa5:	85 c0                	test   %eax,%eax
    1fa7:	0f 85 b3 00 00 00    	jne    0x2060
    1fad:	8d 76 00             	lea    0x0(%esi),%esi
    1fb0:	8b 04 95 08 01 40 00 	mov    0x400108(,%edx,4),%eax
    1fb7:	39 c1                	cmp    %eax,%ecx
    1fb9:	77 f5                	ja     0x1fb0
    1fbb:	a1 04 01 40 00       	mov    0x400104,%eax
    1fc0:	85 c0                	test   %eax,%eax
    1fc2:	0f 94 c0             	sete   %al
    1fc5:	0f b6 c0             	movzbl %al,%eax
    1fc8:	a3 04 01 40 00       	mov    %eax,0x400104
    1fcd:	c7 04 95 08 01 40 00 	movl   $0x0,0x400108(,%edx,4)
    1fd4:	00 00 00 00 
    1fd8:	8b 43 20             	mov    0x20(%ebx),%eax
    1fdb:	c1 e8 18             	shr    $0x18,%eax
    1fde:	85 c0                	test   %eax,%eax
    1fe0:	0f 84 ba 00 00 00    	je     0x20a0
    1fe6:	8b 0d ec 04 50 00    	mov    0x5004ec,%ecx
    1fec:	b8 01 00 00 00       	mov    $0x1,%eax
    1ff1:	8b 15 04 01 40 00    	mov    0x400104,%edx
    1ff7:	8d 1c 95 00 00 00 00 	lea    0x0(,%edx,4),%ebx
    1ffe:	f0 0f c1 83 08 01 40 	lock xadd %eax,0x400108(%ebx)
    2005:	00 
    2006:	a1 18 04 50 00       	mov    0x500418,%eax
    200b:	8b 40 20             	mov    0x20(%eax),%eax
    200e:	c1 e8 18             	shr    $0x18,%eax
    2011:	85 c0                	test   %eax,%eax
    2013:	75 6b                	jne    0x2080
    2015:	8d 74 26 00          	lea    0x0(%esi,%eiz,1),%esi
    2019:	8d bc 27 00 00 00 00 	lea    0x0(%edi,%eiz,1),%edi
    2020:	8b 04 95 08 01 40 00 	mov    0x400108(,%edx,4),%eax
    2027:	39 c1                	cmp    %eax,%ecx
    2029:	77 f5                	ja     0x2020
    202b:	a1 04 01 40 00       	mov    0x400104,%eax
    2030:	85 c0                	test   %eax,%eax
    2032:	0f 94 c0             	sete   %al
    2035:	0f b6 c0             	movzbl %al,%eax
    2038:	a3 04 01 40 00       	mov    %eax,0x400104
    203d:	c7 04 95 08 01 40 00 	movl   $0x0,0x400108(,%edx,4)
    2044:	00 00 00 00 
    2048:	e8 03 0f 00 00       	call   0x2f50
    204d:	e8 9e 17 00 00       	call   0x37f0
    2052:	e8 59 18 00 00       	call   0x38b0
    2057:	83 c4 5c             	add    $0x5c,%esp
    205a:	5b                   	pop    %ebx
    205b:	5e                   	pop    %esi
    205c:	5f                   	pop    %edi
    205d:	5d                   	pop    %ebp
    205e:	c3                   	ret    
    205f:	90                   	nop
    2060:	8b 04 95 08 01 40 00 	mov    0x400108(,%edx,4),%eax
    2067:	85 c0                	test   %eax,%eax
    2069:	0f 84 69 ff ff ff    	je     0x1fd8
    206f:	8b 04 95 08 01 40 00 	mov    0x400108(,%edx,4),%eax
    2076:	85 c0                	test   %eax,%eax
    2078:	75 e6                	jne    0x2060
    207a:	e9 59 ff ff ff       	jmp    0x1fd8
    207f:	90                   	nop
    2080:	8b 04 95 08 01 40 00 	mov    0x400108(,%edx,4),%eax
    2087:	85 c0                	test   %eax,%eax
    2089:	74 bd                	je     0x2048
    208b:	8b 04 95 08 01 40 00 	mov    0x400108(,%edx,4),%eax
    2092:	85 c0                	test   %eax,%eax
    2094:	75 ea                	jne    0x2080
    2096:	eb b0                	jmp    0x2048
    2098:	90                   	nop
    2099:	8d b4 26 00 00 00 00 	lea    0x0(%esi,%eiz,1),%esi
    20a0:	e8 ab 0e 00 00       	call   0x2f50
    20a5:	a1 14 05 50 00       	mov    0x500514,%eax
    20aa:	85 c0                	test   %eax,%eax
    20ac:	74 18                	je     0x20c6
    20ae:	66 90                	xchg   %ax,%ax
    20b0:	8b 50 04             	mov    0x4(%eax),%edx
    20b3:	81 fa 43 40 00 00    	cmp    $0x4043,%edx
    20b9:	0f 87 71 01 00 00    	ja     0x2230
    20bf:	8b 40 0c             	mov    0xc(%eax),%eax
    20c2:	85 c0                	test   %eax,%eax
    20c4:	75 ea                	jne    0x20b0
    20c6:	8d 5d a8             	lea    -0x58(%ebp),%ebx
    20c9:	e8 02 07 00 00       	call   0x27d0
    20ce:	c7 04 24 88 af 00 00 	movl   $0xaf88,(%esp)
    20d5:	e8 a6 04 00 00       	call   0x2580
    20da:	c7 44 24 0c 00 00 00 	movl   $0x0,0xc(%esp)
    20e1:	00 
    20e2:	89 5c 24 08          	mov    %ebx,0x8(%esp)
    20e6:	c7 44 24 04 44 40 00 	movl   $0x4044,0x4(%esp)
    20ed:	00 
    20ee:	c7 04 24 40 02 50 00 	movl   $0x500240,(%esp)
    20f5:	e8 96 0a 00 00       	call   0x2b90
    20fa:	c6 44 05 a8 00       	movb   $0x0,-0x58(%ebp,%eax,1)
    20ff:	89 1c 24             	mov    %ebx,(%esp)
    2102:	e8 79 04 00 00       	call   0x2580
    2107:	c7 04 24 9b af 00 00 	movl   $0xaf9b,(%esp)
    210e:	e8 6d 04 00 00       	call   0x2580
    2113:	89 5c 24 08          	mov    %ebx,0x8(%esp)
    2117:	c7 44 24 04 00 00 00 	movl   $0x0,0x4(%esp)
    211e:	00 
    211f:	c7 04 24 40 02 50 00 	movl   $0x500240,(%esp)
    2126:	e8 45 0b 00 00       	call   0x2c70
    212b:	c6 44 05 a8 00       	movb   $0x0,-0x58(%ebp,%eax,1)
    2130:	89 1c 24             	mov    %ebx,(%esp)
    2133:	e8 48 04 00 00       	call   0x2580
    2138:	c7 04 24 a3 af 00 00 	movl   $0xafa3,(%esp)
    213f:	e8 3c 04 00 00       	call   0x2580
    2144:	0f b6 05 44 02 50 00 	movzbl 0x500244,%eax
    214b:	0f b6 c0             	movzbl %al,%eax
    214e:	89 04 24             	mov    %eax,(%esp)
    2151:	e8 ca 07 00 00       	call   0x2920
    2156:	c7 04 24 a7 b1 00 00 	movl   $0xb1a7,(%esp)
    215d:	e8 1e 04 00 00       	call   0x2580
    2162:	c7 05 40 02 50 00 0a 	movl   $0xa,0x500240
    2169:	00 00 00 
    216c:	c7 05 48 02 50 00 00 	movl   $0x0,0x500248
    2173:	00 00 00 
    2176:	c7 05 4c 02 50 00 00 	movl   $0x0,0x50024c
    217d:	00 00 00 
    2180:	c7 05 50 02 50 00 00 	movl   $0x0,0x500250
    2187:	00 00 00 
    218a:	c7 05 54 02 50 00 00 	movl   $0x0,0x500254
    2191:	00 00 00 
    2194:	8d b6 00 00 00 00    	lea    0x0(%esi),%esi
    219a:	8d bf 00 00 00 00    	lea    0x0(%edi),%edi
    21a0:	c7 05 58 02 50 00 48 	movl   $0x500248,0x500258
    21a7:	02 50 00 
    21aa:	e8 a1 15 00 00       	call   0x3750
    21af:	8b 0d ec 04 50 00    	mov    0x5004ec,%ecx
    21b5:	b8 01 00 00 00       	mov    $0x1,%eax
    21ba:	8b 15 04 01 40 00    	mov    0x400104,%edx
    21c0:	8d 1c 95 00 00 00 00 	lea    0x0(,%edx,4),%ebx
    21c7:	f0 0f c1 83 08 01 40 	lock xadd %eax,0x400108(%ebx)
    21ce:	00 
    21cf:	a1 18 04 50 00       	mov    0x500418,%eax
    21d4:	8b 40 20             	mov    0x20(%eax),%eax
    21d7:	c1 e8 18             	shr    $0x18,%eax
    21da:	85 c0                	test   %eax,%eax
    21dc:	0f 85 fe 01 00 00    	jne    0x23e0
    21e2:	8d b4 26 00 00 00 00 	lea    0x0(%esi,%eiz,1),%esi
    21e9:	8d bc 27 00 00 00 00 	lea    0x0(%edi,%eiz,1),%edi
    21f0:	8b 04 95 08 01 40 00 	mov    0x400108(,%edx,4),%eax
    21f7:	39 c1                	cmp    %eax,%ecx
    21f9:	77 f5                	ja     0x21f0
    21fb:	a1 04 01 40 00       	mov    0x400104,%eax
    2200:	85 c0                	test   %eax,%eax
    2202:	0f 94 c0             	sete   %al
    2205:	0f b6 c0             	movzbl %al,%eax
    2208:	a3 04 01 40 00       	mov    %eax,0x400104
    220d:	c7 04 95 08 01 40 00 	movl   $0x0,0x400108(,%edx,4)
    2214:	00 00 00 00 
    2218:	e8 73 16 00 00       	call   0x3890
    221d:	0f 31                	rdtsc  
    221f:	a3 64 02 50 00       	mov    %eax,0x500264
    2224:	83 c4 5c             	add    $0x5c,%esp
    2227:	5b                   	pop    %ebx
    2228:	5e                   	pop    %esi
    2229:	5f                   	pop    %edi
    222a:	5d                   	pop    %ebp
    222b:	c3                   	ret    
    222c:	8d 74 26 00          	lea    0x0(%esi,%eiz,1),%esi
    2230:	81 ea 44 40 00 00    	sub    $0x4044,%edx
    2236:	89 50 04             	mov    %edx,0x4(%eax)
    2239:	81 2d 1c 05 50 00 44 	subl   $0x4044,0x50051c
    2240:	40 00 00 
    2243:	8b 58 04             	mov    0x4(%eax),%ebx
    2246:	85 db                	test   %ebx,%ebx
    2248:	75 46                	jne    0x2290
    224a:	8b 0d 10 05 50 00    	mov    0x500510,%ecx
    2250:	83 f9 01             	cmp    $0x1,%ecx
    2253:	0f 84 04 02 00 00    	je     0x245d
    2259:	8b 50 08             	mov    0x8(%eax),%edx
    225c:	85 d2                	test   %edx,%edx
    225e:	0f 84 6f 02 00 00    	je     0x24d3
    2264:	8b 70 0c             	mov    0xc(%eax),%esi
    2267:	85 f6                	test   %esi,%esi
    2269:	0f 84 91 02 00 00    	je     0x2500
    226f:	89 72 0c             	mov    %esi,0xc(%edx)
    2272:	8b 48 0c             	mov    0xc(%eax),%ecx
    2275:	83 2d 10 05 50 00 01 	subl   $0x1,0x500510
    227c:	8b 58 04             	mov    0x4(%eax),%ebx
    227f:	89 51 08             	mov    %edx,0x8(%ecx)
    2282:	8d b4 26 00 00 00 00 	lea    0x0(%esi,%eiz,1),%esi
    2289:	8d bc 27 00 00 00 00 	lea    0x0(%edi,%eiz,1),%edi
    2290:	c1 e3 0c             	shl    $0xc,%ebx
    2293:	03 18                	add    (%eax),%ebx
    2295:	b8 48 02 50 00       	mov    $0x500248,%eax
    229a:	c7 05 48 02 50 00 00 	movl   $0x0,0x500248
    22a1:	00 00 00 
    22a4:	c7 05 4c 02 50 00 00 	movl   $0x0,0x50024c
    22ab:	00 00 00 
    22ae:	85 db                	test   %ebx,%ebx
    22b0:	c7 05 50 02 50 00 00 	movl   $0x0,0x500250
    22b7:	00 00 00 
    22ba:	c7 05 54 02 50 00 00 	movl   $0x0,0x500254
    22c1:	00 00 00 
    22c4:	0f 84 d6 fe ff ff    	je     0x21a0
    22ca:	89 1b                	mov    %ebx,(%ebx)
    22cc:	c7 43 04 00 40 04 04 	movl   $0x4044000,0x4(%ebx)
    22d3:	c7 43 08 00 00 00 00 	movl   $0x0,0x8(%ebx)
    22da:	c7 43 0c 00 00 00 00 	movl   $0x0,0xc(%ebx)
    22e1:	81 40 0c 00 40 04 04 	addl   $0x4044000,0xc(%eax)
    22e8:	a1 4c 02 50 00       	mov    0x50024c,%eax
    22ed:	8b 33                	mov    (%ebx),%esi
    22ef:	8b 4b 04             	mov    0x4(%ebx),%ecx
    22f2:	85 c0                	test   %eax,%eax
    22f4:	0f 84 a8 00 00 00    	je     0x23a2
    22fa:	8b 38                	mov    (%eax),%edi
    22fc:	8d 0c 0e             	lea    (%esi,%ecx,1),%ecx
    22ff:	89 c2                	mov    %eax,%edx
    2301:	39 f9                	cmp    %edi,%ecx
    2303:	74 16                	je     0x231b
    2305:	8d 74 26 00          	lea    0x0(%esi,%eiz,1),%esi
    2309:	8d bc 27 00 00 00 00 	lea    0x0(%edi,%eiz,1),%edi
    2310:	8b 52 0c             	mov    0xc(%edx),%edx
    2313:	85 d2                	test   %edx,%edx
    2315:	74 04                	je     0x231b
    2317:	3b 0a                	cmp    (%edx),%ecx
    2319:	75 f5                	jne    0x2310
    231b:	03 78 04             	add    0x4(%eax),%edi
    231e:	39 fe                	cmp    %edi,%esi
    2320:	74 1e                	je     0x2340
    2322:	8d b4 26 00 00 00 00 	lea    0x0(%esi,%eiz,1),%esi
    2329:	8d bc 27 00 00 00 00 	lea    0x0(%edi,%eiz,1),%edi
    2330:	8b 40 0c             	mov    0xc(%eax),%eax
    2333:	85 c0                	test   %eax,%eax
    2335:	74 69                	je     0x23a0
    2337:	8b 08                	mov    (%eax),%ecx
    2339:	03 48 04             	add    0x4(%eax),%ecx
    233c:	39 ce                	cmp    %ecx,%esi
    233e:	75 f0                	jne    0x2330
    2340:	89 c1                	mov    %eax,%ecx
    2342:	89 d0                	mov    %edx,%eax
    2344:	85 c0                	test   %eax,%eax
    2346:	74 3b                	je     0x2383
    2348:	8b 50 04             	mov    0x4(%eax),%edx
    234b:	01 53 04             	add    %edx,0x4(%ebx)
    234e:	8b 35 48 02 50 00    	mov    0x500248,%esi
    2354:	83 fe 01             	cmp    $0x1,%esi
    2357:	0f 84 a3 00 00 00    	je     0x2400
    235d:	8b 50 08             	mov    0x8(%eax),%edx
    2360:	85 d2                	test   %edx,%edx
    2362:	0f 84 1b 01 00 00    	je     0x2483
    2368:	8b 78 0c             	mov    0xc(%eax),%edi
    236b:	85 ff                	test   %edi,%edi
    236d:	0f 84 38 01 00 00    	je     0x24ab
    2373:	89 7a 0c             	mov    %edi,0xc(%edx)
    2376:	8b 40 0c             	mov    0xc(%eax),%eax
    2379:	83 2d 48 02 50 00 01 	subl   $0x1,0x500248
    2380:	89 50 08             	mov    %edx,0x8(%eax)
    2383:	85 c9                	test   %ecx,%ecx
    2385:	0f 84 15 fe ff ff    	je     0x21a0
    238b:	8b 43 04             	mov    0x4(%ebx),%eax
    238e:	01 41 04             	add    %eax,0x4(%ecx)
    2391:	e9 0a fe ff ff       	jmp    0x21a0
    2396:	8d 76 00             	lea    0x0(%esi),%esi
    2399:	8d bc 27 00 00 00 00 	lea    0x0(%edi,%eiz,1),%edi
    23a0:	89 d0                	mov    %edx,%eax
    23a2:	8b 35 48 02 50 00    	mov    0x500248,%esi
    23a8:	85 f6                	test   %esi,%esi
    23aa:	0f 85 80 00 00 00    	jne    0x2430
    23b0:	c7 43 08 00 00 00 00 	movl   $0x0,0x8(%ebx)
    23b7:	31 c9                	xor    %ecx,%ecx
    23b9:	c7 43 0c 00 00 00 00 	movl   $0x0,0xc(%ebx)
    23c0:	89 1d 4c 02 50 00    	mov    %ebx,0x50024c
    23c6:	89 1d 50 02 50 00    	mov    %ebx,0x500250
    23cc:	83 05 48 02 50 00 01 	addl   $0x1,0x500248
    23d3:	e9 6c ff ff ff       	jmp    0x2344
    23d8:	90                   	nop
    23d9:	8d b4 26 00 00 00 00 	lea    0x0(%esi,%eiz,1),%esi
    23e0:	8b 04 95 08 01 40 00 	mov    0x400108(,%edx,4),%eax
    23e7:	85 c0                	test   %eax,%eax
    23e9:	0f 84 29 fe ff ff    	je     0x2218
    23ef:	8b 04 95 08 01 40 00 	mov    0x400108(,%edx,4),%eax
    23f6:	85 c0                	test   %eax,%eax
    23f8:	75 e6                	jne    0x23e0
    23fa:	e9 19 fe ff ff       	jmp    0x2218
    23ff:	90                   	nop
    2400:	c7 05 4c 02 50 00 00 	movl   $0x0,0x50024c
    2407:	00 00 00 
    240a:	c7 05 50 02 50 00 00 	movl   $0x0,0x500250
    2411:	00 00 00 
    2414:	c7 05 48 02 50 00 00 	movl   $0x0,0x500248
    241b:	00 00 00 
    241e:	e9 60 ff ff ff       	jmp    0x2383
    2423:	8d b6 00 00 00 00    	lea    0x0(%esi),%esi
    2429:	8d bc 27 00 00 00 00 	lea    0x0(%edi,%eiz,1),%edi
    2430:	8b 15 50 02 50 00    	mov    0x500250,%edx
    2436:	31 c9                	xor    %ecx,%ecx
    2438:	89 5a 0c             	mov    %ebx,0xc(%edx)
    243b:	8b 15 50 02 50 00    	mov    0x500250,%edx
    2441:	c7 43 0c 00 00 00 00 	movl   $0x0,0xc(%ebx)
    2448:	89 53 08             	mov    %edx,0x8(%ebx)
    244b:	89 1d 50 02 50 00    	mov    %ebx,0x500250
    2451:	83 05 48 02 50 00 01 	addl   $0x1,0x500248
    2458:	e9 e7 fe ff ff       	jmp    0x2344
    245d:	c7 05 14 05 50 00 00 	movl   $0x0,0x500514
    2464:	00 00 00 
    2467:	c7 05 18 05 50 00 00 	movl   $0x0,0x500518
    246e:	00 00 00 
    2471:	c7 05 10 05 50 00 00 	movl   $0x0,0x500510
    2478:	00 00 00 
    247b:	8b 58 04             	mov    0x4(%eax),%ebx
    247e:	e9 0d fe ff ff       	jmp    0x2290
    2483:	85 f6                	test   %esi,%esi
    2485:	0f 84 f8 fe ff ff    	je     0x2383
    248b:	a1 4c 02 50 00       	mov    0x50024c,%eax
    2490:	8b 40 0c             	mov    0xc(%eax),%eax
    2493:	a3 4c 02 50 00       	mov    %eax,0x50024c
    2498:	c7 40 08 00 00 00 00 	movl   $0x0,0x8(%eax)
    249f:	83 2d 48 02 50 00 01 	subl   $0x1,0x500248
    24a6:	e9 d8 fe ff ff       	jmp    0x2383
    24ab:	85 f6                	test   %esi,%esi
    24ad:	0f 84 d0 fe ff ff    	je     0x2383
    24b3:	a1 50 02 50 00       	mov    0x500250,%eax
    24b8:	8b 40 08             	mov    0x8(%eax),%eax
    24bb:	a3 50 02 50 00       	mov    %eax,0x500250
    24c0:	c7 40 0c 00 00 00 00 	movl   $0x0,0xc(%eax)
    24c7:	83 2d 48 02 50 00 01 	subl   $0x1,0x500248
    24ce:	e9 b0 fe ff ff       	jmp    0x2383
    24d3:	85 c9                	test   %ecx,%ecx
    24d5:	0f 84 b5 fd ff ff    	je     0x2290
    24db:	8b 15 14 05 50 00    	mov    0x500514,%edx
    24e1:	8b 52 0c             	mov    0xc(%edx),%edx
    24e4:	89 15 14 05 50 00    	mov    %edx,0x500514
    24ea:	c7 42 08 00 00 00 00 	movl   $0x0,0x8(%edx)
    24f1:	83 2d 10 05 50 00 01 	subl   $0x1,0x500510
    24f8:	8b 58 04             	mov    0x4(%eax),%ebx
    24fb:	e9 90 fd ff ff       	jmp    0x2290
    2500:	85 c9                	test   %ecx,%ecx
    2502:	0f 84 88 fd ff ff    	je     0x2290
    2508:	8b 15 18 05 50 00    	mov    0x500518,%edx
    250e:	8b 52 08             	mov    0x8(%edx),%edx
    2511:	89 15 18 05 50 00    	mov    %edx,0x500518
    2517:	c7 42 0c 00 00 00 00 	movl   $0x0,0xc(%edx)
    251e:	83 2d 10 05 50 00 01 	subl   $0x1,0x500510
    2525:	8b 58 04             	mov    0x4(%eax),%ebx
    2528:	e9 63 fd ff ff       	jmp    0x2290
    252d:	90                   	nop
    252e:	90                   	nop
    252f:	90                   	nop
    2530:	55                   	push   %ebp
    2531:	a1 00 40 40 ff       	mov    0xff404000,%eax
    2536:	89 e5                	mov    %esp,%ebp
    2538:	c7 05 14 04 50 00 00 	movl   $0xf0002000,0x500414
    253f:	20 00 f0 
    2542:	c7 05 18 04 50 00 00 	movl   $0xf0000000,0x500418
    2549:	00 00 f0 
    254c:	a3 ec 04 50 00       	mov    %eax,0x5004ec
    2551:	c7 05 38 02 50 00 0a 	movl   $0xa,0x500238
    2558:	00 00 00 
    255b:	c6 05 3c 02 50 00 00 	movb   $0x0,0x50023c
    2562:	c7 05 40 02 50 00 0a 	movl   $0xa,0x500240
    2569:	00 00 00 
    256c:	c6 05 44 02 50 00 00 	movb   $0x0,0x500244
    2573:	5d                   	pop    %ebp
    2574:	c3                   	ret    
    2575:	90                   	nop
    2576:	90                   	nop
    2577:	90                   	nop
    2578:	90                   	nop
    2579:	90                   	nop
    257a:	90                   	nop
    257b:	90                   	nop
    257c:	90                   	nop
    257d:	90                   	nop
    257e:	90                   	nop
    257f:	90                   	nop
    2580:	55                   	push   %ebp
    2581:	31 c9                	xor    %ecx,%ecx
    2583:	89 e5                	mov    %esp,%ebp
    2585:	57                   	push   %edi
    2586:	56                   	push   %esi
    2587:	53                   	push   %ebx
    2588:	83 ec 08             	sub    $0x8,%esp
    258b:	8b 45 08             	mov    0x8(%ebp),%eax
    258e:	0f b6 18             	movzbl (%eax),%ebx
    2591:	84 db                	test   %bl,%bl
    2593:	0f 84 e0 00 00 00    	je     0x2679
    2599:	8b 0d 14 04 50 00    	mov    0x500414,%ecx
    259f:	bf d4 03 00 00       	mov    $0x3d4,%edi
    25a4:	89 45 f0             	mov    %eax,-0x10(%ebp)
    25a7:	89 f6                	mov    %esi,%esi
    25a9:	8d bc 27 00 00 00 00 	lea    0x0(%edi,%eiz,1),%edi
    25b0:	83 45 f0 01          	addl   $0x1,-0x10(%ebp)
    25b4:	89 fa                	mov    %edi,%edx
    25b6:	b8 0f 00 00 00       	mov    $0xf,%eax
    25bb:	ee                   	out    %al,(%dx)
    25bc:	be d5 03 00 00       	mov    $0x3d5,%esi
    25c1:	89 f2                	mov    %esi,%edx
    25c3:	ec                   	in     (%dx),%al
    25c4:	0f b6 c0             	movzbl %al,%eax
    25c7:	89 fa                	mov    %edi,%edx
    25c9:	89 45 ec             	mov    %eax,-0x14(%ebp)
    25cc:	b8 0e 00 00 00       	mov    $0xe,%eax
    25d1:	ee                   	out    %al,(%dx)
    25d2:	89 f2                	mov    %esi,%edx
    25d4:	ec                   	in     (%dx),%al
    25d5:	0f b6 f0             	movzbl %al,%esi
    25d8:	c1 e6 08             	shl    $0x8,%esi
    25db:	0b 75 ec             	or     -0x14(%ebp),%esi
    25de:	80 fb 09             	cmp    $0x9,%bl
    25e1:	0f 84 4c 01 00 00    	je     0x2733
    25e7:	80 fb 0a             	cmp    $0xa,%bl
    25ea:	0f 84 51 01 00 00    	je     0x2741
    25f0:	66 0f be db          	movsbw %bl,%bx
    25f4:	80 cf 07             	or     $0x7,%bh
    25f7:	66 89 1c 71          	mov    %bx,(%ecx,%esi,2)
    25fb:	8d 5e 01             	lea    0x1(%esi),%ebx
    25fe:	81 fb cf 07 00 00    	cmp    $0x7cf,%ebx
    2604:	76 3d                	jbe    0x2643
    2606:	31 c0                	xor    %eax,%eax
    2608:	90                   	nop
    2609:	8d b4 26 00 00 00 00 	lea    0x0(%esi,%eiz,1),%esi
    2610:	0f b7 94 41 a0 00 00 	movzwl 0xa0(%ecx,%eax,2),%edx
    2617:	00 
    2618:	66 89 14 41          	mov    %dx,(%ecx,%eax,2)
    261c:	83 c0 01             	add    $0x1,%eax
    261f:	3d 80 07 00 00       	cmp    $0x780,%eax
    2624:	75 ea                	jne    0x2610
    2626:	8d 76 00             	lea    0x0(%esi),%esi
    2629:	8d bc 27 00 00 00 00 	lea    0x0(%edi,%eiz,1),%edi
    2630:	66 c7 04 41 20 07    	movw   $0x720,(%ecx,%eax,2)
    2636:	83 c0 01             	add    $0x1,%eax
    2639:	3d d0 07 00 00       	cmp    $0x7d0,%eax
    263e:	75 f0                	jne    0x2630
    2640:	83 eb 50             	sub    $0x50,%ebx
    2643:	89 fa                	mov    %edi,%edx
    2645:	b8 0f 00 00 00       	mov    $0xf,%eax
    264a:	ee                   	out    %al,(%dx)
    264b:	be d5 03 00 00       	mov    $0x3d5,%esi
    2650:	89 d8                	mov    %ebx,%eax
    2652:	89 f2                	mov    %esi,%edx
    2654:	ee                   	out    %al,(%dx)
    2655:	b8 0e 00 00 00       	mov    $0xe,%eax
    265a:	89 fa                	mov    %edi,%edx
    265c:	ee                   	out    %al,(%dx)
    265d:	89 d8                	mov    %ebx,%eax
    265f:	89 f2                	mov    %esi,%edx
    2661:	c1 f8 08             	sar    $0x8,%eax
    2664:	ee                   	out    %al,(%dx)
    2665:	8b 45 f0             	mov    -0x10(%ebp),%eax
    2668:	0f b6 18             	movzbl (%eax),%ebx
    266b:	84 db                	test   %bl,%bl
    266d:	0f 85 3d ff ff ff    	jne    0x25b0
    2673:	8b 55 08             	mov    0x8(%ebp),%edx
    2676:	0f b6 0a             	movzbl (%edx),%ecx
    2679:	0f b7 35 08 04 50 00 	movzwl 0x500408,%esi
    2680:	84 c9                	test   %cl,%cl
    2682:	8d 5e 05             	lea    0x5(%esi),%ebx
    2685:	89 f7                	mov    %esi,%edi
    2687:	8b 75 08             	mov    0x8(%ebp),%esi
    268a:	0f 84 9b 00 00 00    	je     0x272b
    2690:	83 c6 01             	add    $0x1,%esi
    2693:	80 f9 09             	cmp    $0x9,%cl
    2696:	0f 84 bf 00 00 00    	je     0x275b
    269c:	80 f9 0a             	cmp    $0xa,%cl
    269f:	0f 84 d3 00 00 00    	je     0x2778
    26a5:	a1 10 04 50 00       	mov    0x500410,%eax
    26aa:	89 da                	mov    %ebx,%edx
    26ac:	83 c0 01             	add    $0x1,%eax
    26af:	89 45 f0             	mov    %eax,-0x10(%ebp)
    26b2:	a3 10 04 50 00       	mov    %eax,0x500410
    26b7:	89 f6                	mov    %esi,%esi
    26b9:	8d bc 27 00 00 00 00 	lea    0x0(%edi,%eiz,1),%edi
    26c0:	ec                   	in     (%dx),%al
    26c1:	a8 20                	test   $0x20,%al
    26c3:	74 fb                	je     0x26c0
    26c5:	89 d3                	mov    %edx,%ebx
    26c7:	89 c8                	mov    %ecx,%eax
    26c9:	89 fa                	mov    %edi,%edx
    26cb:	ee                   	out    %al,(%dx)
    26cc:	83 7d f0 4f          	cmpl   $0x4f,-0x10(%ebp)
    26d0:	7e 4e                	jle    0x2720
    26d2:	89 da                	mov    %ebx,%edx
    26d4:	8d b6 00 00 00 00    	lea    0x0(%esi),%esi
    26da:	8d bf 00 00 00 00    	lea    0x0(%edi),%edi
    26e0:	ec                   	in     (%dx),%al
    26e1:	a8 20                	test   $0x20,%al
    26e3:	74 fb                	je     0x26e0
    26e5:	89 d3                	mov    %edx,%ebx
    26e7:	b8 0d 00 00 00       	mov    $0xd,%eax
    26ec:	89 fa                	mov    %edi,%edx
    26ee:	ee                   	out    %al,(%dx)
    26ef:	89 da                	mov    %ebx,%edx
    26f1:	eb 0d                	jmp    0x2700
    26f3:	90                   	nop
    26f4:	90                   	nop
    26f5:	90                   	nop
    26f6:	90                   	nop
    26f7:	90                   	nop
    26f8:	90                   	nop
    26f9:	90                   	nop
    26fa:	90                   	nop
    26fb:	90                   	nop
    26fc:	90                   	nop
    26fd:	90                   	nop
    26fe:	90                   	nop
    26ff:	90                   	nop
    2700:	ec                   	in     (%dx),%al
    2701:	a8 20                	test   $0x20,%al
    2703:	74 fb                	je     0x2700
    2705:	c7 05 10 04 50 00 00 	movl   $0x0,0x500410
    270c:	00 00 00 
    270f:	89 d3                	mov    %edx,%ebx
    2711:	b8 0a 00 00 00       	mov    $0xa,%eax
    2716:	89 fa                	mov    %edi,%edx
    2718:	ee                   	out    %al,(%dx)
    2719:	8d b4 26 00 00 00 00 	lea    0x0(%esi,%eiz,1),%esi
    2720:	0f b6 0e             	movzbl (%esi),%ecx
    2723:	84 c9                	test   %cl,%cl
    2725:	0f 85 65 ff ff ff    	jne    0x2690
    272b:	83 c4 08             	add    $0x8,%esp
    272e:	5b                   	pop    %ebx
    272f:	5e                   	pop    %esi
    2730:	5f                   	pop    %edi
    2731:	5d                   	pop    %ebp
    2732:	c3                   	ret    
    2733:	8d 5e 08             	lea    0x8(%esi),%ebx
    2736:	81 e3 f8 ff 01 00    	and    $0x1fff8,%ebx
    273c:	e9 bd fe ff ff       	jmp    0x25fe
    2741:	83 c6 50             	add    $0x50,%esi
    2744:	ba cd cc cc cc       	mov    $0xcccccccd,%edx
    2749:	89 f0                	mov    %esi,%eax
    274b:	f7 e2                	mul    %edx
    274d:	c1 ea 06             	shr    $0x6,%edx
    2750:	8d 1c 92             	lea    (%edx,%edx,4),%ebx
    2753:	c1 e3 04             	shl    $0x4,%ebx
    2756:	e9 a3 fe ff ff       	jmp    0x25fe
    275b:	89 da                	mov    %ebx,%edx
    275d:	8d 76 00             	lea    0x0(%esi),%esi
    2760:	ec                   	in     (%dx),%al
    2761:	a8 20                	test   $0x20,%al
    2763:	74 fb                	je     0x2760
    2765:	89 d3                	mov    %edx,%ebx
    2767:	b8 09 00 00 00       	mov    $0x9,%eax
    276c:	89 fa                	mov    %edi,%edx
    276e:	ee                   	out    %al,(%dx)
    276f:	83 05 10 04 50 00 08 	addl   $0x8,0x500410
    2776:	eb a8                	jmp    0x2720
    2778:	89 da                	mov    %ebx,%edx
    277a:	8d b6 00 00 00 00    	lea    0x0(%esi),%esi
    2780:	ec                   	in     (%dx),%al
    2781:	a8 20                	test   $0x20,%al
    2783:	74 fb                	je     0x2780
    2785:	89 d3                	mov    %edx,%ebx
    2787:	b8 0d 00 00 00       	mov    $0xd,%eax
    278c:	89 fa                	mov    %edi,%edx
    278e:	ee                   	out    %al,(%dx)
    278f:	89 da                	mov    %ebx,%edx
    2791:	eb 0d                	jmp    0x27a0
    2793:	90                   	nop
    2794:	90                   	nop
    2795:	90                   	nop
    2796:	90                   	nop
    2797:	90                   	nop
    2798:	90                   	nop
    2799:	90                   	nop
    279a:	90                   	nop
    279b:	90                   	nop
    279c:	90                   	nop
    279d:	90                   	nop
    279e:	90                   	nop
    279f:	90                   	nop
    27a0:	ec                   	in     (%dx),%al
    27a1:	a8 20                	test   $0x20,%al
    27a3:	74 fb                	je     0x27a0
    27a5:	89 d3                	mov    %edx,%ebx
    27a7:	b8 0a 00 00 00       	mov    $0xa,%eax
    27ac:	89 fa                	mov    %edi,%edx
    27ae:	c7 05 10 04 50 00 00 	movl   $0x0,0x500410
    27b5:	00 00 00 
    27b8:	ee                   	out    %al,(%dx)
    27b9:	83 05 0c 04 50 00 01 	addl   $0x1,0x50040c
    27c0:	e9 5b ff ff ff       	jmp    0x2720
    27c5:	90                   	nop
    27c6:	90                   	nop
    27c7:	90                   	nop
    27c8:	90                   	nop
    27c9:	90                   	nop
    27ca:	90                   	nop
    27cb:	90                   	nop
    27cc:	90                   	nop
    27cd:	90                   	nop
    27ce:	90                   	nop
    27cf:	90                   	nop
    27d0:	55                   	push   %ebp
    27d1:	89 e5                	mov    %esp,%ebp
    27d3:	56                   	push   %esi
    27d4:	53                   	push   %ebx
    27d5:	83 ec 04             	sub    $0x4,%esp
    27d8:	a1 18 04 50 00       	mov    0x500418,%eax
    27dd:	8b 48 20             	mov    0x20(%eax),%ecx
    27e0:	b8 ff ff ff ff       	mov    $0xffffffff,%eax
    27e5:	c1 e9 18             	shr    $0x18,%ecx
    27e8:	f0 0f b1 0d e4 00 40 	lock cmpxchg %ecx,0x4000e4
    27ef:	00 
    27f0:	39 c1                	cmp    %eax,%ecx
    27f2:	0f 95 c0             	setne  %al
    27f5:	74 45                	je     0x283c
    27f7:	31 d2                	xor    %edx,%edx
    27f9:	bb ff ff ff ff       	mov    $0xffffffff,%ebx
    27fe:	eb 04                	jmp    0x2804
    2800:	39 c1                	cmp    %eax,%ecx
    2802:	74 12                	je     0x2816
    2804:	83 c2 01             	add    $0x1,%edx
    2807:	89 d8                	mov    %ebx,%eax
    2809:	f0 0f b1 0d e4 00 40 	lock cmpxchg %ecx,0x4000e4
    2810:	00 
    2811:	83 fa 09             	cmp    $0x9,%edx
    2814:	7e ea                	jle    0x2800
    2816:	a1 18 04 50 00       	mov    0x500418,%eax
    281b:	8b 40 20             	mov    0x20(%eax),%eax
    281e:	c7 04 24 ee 00 40 00 	movl   $0x4000ee,(%esp)
    2825:	c1 e8 18             	shr    $0x18,%eax
    2828:	83 c0 30             	add    $0x30,%eax
    282b:	a2 ef 00 40 00       	mov    %al,0x4000ef
    2830:	e8 4b fd ff ff       	call   0x2580
    2835:	83 c4 04             	add    $0x4,%esp
    2838:	5b                   	pop    %ebx
    2839:	5e                   	pop    %esi
    283a:	5d                   	pop    %ebp
    283b:	c3                   	ret    
    283c:	84 c0                	test   %al,%al
    283e:	74 f5                	je     0x2835
    2840:	eb d4                	jmp    0x2816
    2842:	90                   	nop
    2843:	90                   	nop
    2844:	90                   	nop
    2845:	90                   	nop
    2846:	90                   	nop
    2847:	90                   	nop
    2848:	90                   	nop
    2849:	90                   	nop
    284a:	90                   	nop
    284b:	90                   	nop
    284c:	90                   	nop
    284d:	90                   	nop
    284e:	90                   	nop
    284f:	90                   	nop
    2850:	a1 5c 02 50 00       	mov    0x50025c,%eax
    2855:	55                   	push   %ebp
    2856:	89 e5                	mov    %esp,%ebp
    2858:	83 e8 01             	sub    $0x1,%eax
    285b:	a3 5c 02 50 00       	mov    %eax,0x50025c
    2860:	a1 5c 02 50 00       	mov    0x50025c,%eax
    2865:	85 c0                	test   %eax,%eax
    2867:	7f 0a                	jg     0x2873
    2869:	c7 05 60 02 50 00 00 	movl   $0x0,0x500260
    2870:	00 00 00 
    2873:	fb                   	sti    
    2874:	5d                   	pop    %ebp
    2875:	c3                   	ret    
    2876:	90                   	nop
    2877:	90                   	nop
    2878:	90                   	nop
    2879:	90                   	nop
    287a:	90                   	nop
    287b:	90                   	nop
    287c:	90                   	nop
    287d:	90                   	nop
    287e:	90                   	nop
    287f:	90                   	nop
    2880:	55                   	push   %ebp
    2881:	89 e5                	mov    %esp,%ebp
    2883:	c7 05 5c 02 50 00 00 	movl   $0x0,0x50025c
    288a:	00 00 00 
    288d:	5d                   	pop    %ebp
    288e:	c7 05 60 02 50 00 00 	movl   $0x0,0x500260
    2895:	00 00 00 
    2898:	c3                   	ret    
    2899:	90                   	nop
    289a:	90                   	nop
    289b:	90                   	nop
    289c:	90                   	nop
    289d:	90                   	nop
    289e:	90                   	nop
    289f:	90                   	nop
    28a0:	55                   	push   %ebp
    28a1:	89 e5                	mov    %esp,%ebp
    28a3:	53                   	push   %ebx
    28a4:	83 ec 04             	sub    $0x4,%esp
    28a7:	e8 84 28 00 00       	call   0x5130
    28ac:	31 c9                	xor    %ecx,%ecx
    28ae:	89 c2                	mov    %eax,%edx
    28b0:	89 c8                	mov    %ecx,%eax
    28b2:	f0 0f b1 15 60 02 50 	lock cmpxchg %edx,0x500260
    28b9:	00 
    28ba:	39 c2                	cmp    %eax,%edx
    28bc:	75 f2                	jne    0x28b0
    28be:	a1 5c 02 50 00       	mov    0x50025c,%eax
    28c3:	83 c0 01             	add    $0x1,%eax
    28c6:	a3 5c 02 50 00       	mov    %eax,0x50025c
    28cb:	fa                   	cli    
    28cc:	83 c4 04             	add    $0x4,%esp
    28cf:	5b                   	pop    %ebx
    28d0:	5d                   	pop    %ebp
    28d1:	c3                   	ret    
    28d2:	90                   	nop
    28d3:	90                   	nop
    28d4:	90                   	nop
    28d5:	90                   	nop
    28d6:	90                   	nop
    28d7:	90                   	nop
    28d8:	90                   	nop
    28d9:	90                   	nop
    28da:	90                   	nop
    28db:	90                   	nop
    28dc:	90                   	nop
    28dd:	90                   	nop
    28de:	90                   	nop
    28df:	90                   	nop
    28e0:	55                   	push   %ebp
    28e1:	89 e5                	mov    %esp,%ebp
    28e3:	83 ec 18             	sub    $0x18,%esp
    28e6:	89 c0                	mov    %eax,%eax
    28e8:	89 04 24             	mov    %eax,(%esp)
    28eb:	e8 b0 4f 00 00       	call   0x78a0
    28f0:	c9                   	leave  
    28f1:	c3                   	ret    
    28f2:	90                   	nop
    28f3:	90                   	nop
    28f4:	90                   	nop
    28f5:	90                   	nop
    28f6:	90                   	nop
    28f7:	90                   	nop
    28f8:	90                   	nop
    28f9:	90                   	nop
    28fa:	90                   	nop
    28fb:	90                   	nop
    28fc:	90                   	nop
    28fd:	90                   	nop
    28fe:	90                   	nop
    28ff:	90                   	nop
    2900:	55                   	push   %ebp
    2901:	89 e5                	mov    %esp,%ebp
    2903:	83 ec 08             	sub    $0x8,%esp
    2906:	c9                   	leave  
    2907:	e9 94 4f 00 00       	jmp    0x78a0
    290c:	90                   	nop
    290d:	90                   	nop
    290e:	90                   	nop
    290f:	90                   	nop
    2910:	55                   	push   %ebp
    2911:	89 e5                	mov    %esp,%ebp
    2913:	83 ec 08             	sub    $0x8,%esp
    2916:	c9                   	leave  
    2917:	e9 04 72 00 00       	jmp    0x9b20
    291c:	90                   	nop
    291d:	90                   	nop
    291e:	90                   	nop
    291f:	90                   	nop
    2920:	55                   	push   %ebp
    2921:	89 e5                	mov    %esp,%ebp
    2923:	53                   	push   %ebx
    2924:	83 ec 14             	sub    $0x14,%esp
    2927:	a1 e4 00 40 00       	mov    0x4000e4,%eax
    292c:	0f b6 5d 08          	movzbl 0x8(%ebp),%ebx
    2930:	83 f8 ff             	cmp    $0xffffffff,%eax
    2933:	74 29                	je     0x295e
    2935:	a1 18 04 50 00       	mov    0x500418,%eax
    293a:	8b 40 20             	mov    0x20(%eax),%eax
    293d:	c7 04 24 e8 00 40 00 	movl   $0x4000e8,(%esp)
    2944:	c1 e8 18             	shr    $0x18,%eax
    2947:	83 c0 30             	add    $0x30,%eax
    294a:	a2 eb 00 40 00       	mov    %al,0x4000eb
    294f:	e8 2c fc ff ff       	call   0x2580
    2954:	c7 05 e4 00 40 00 ff 	movl   $0xffffffff,0x4000e4
    295b:	ff ff ff 
    295e:	84 db                	test   %bl,%bl
    2960:	75 0e                	jne    0x2970
    2962:	83 c4 14             	add    $0x14,%esp
    2965:	5b                   	pop    %ebx
    2966:	5d                   	pop    %ebp
    2967:	c3                   	ret    
    2968:	90                   	nop
    2969:	8d b4 26 00 00 00 00 	lea    0x0(%esi,%eiz,1),%esi
    2970:	83 c4 14             	add    $0x14,%esp
    2973:	5b                   	pop    %ebx
    2974:	5d                   	pop    %ebp
    2975:	e9 a6 71 00 00       	jmp    0x9b20
    297a:	90                   	nop
    297b:	90                   	nop
    297c:	90                   	nop
    297d:	90                   	nop
    297e:	90                   	nop
    297f:	90                   	nop
    2980:	55                   	push   %ebp
    2981:	89 e5                	mov    %esp,%ebp
    2983:	83 ec 18             	sub    $0x18,%esp
    2986:	e8 45 fe ff ff       	call   0x27d0
    298b:	c7 04 24 b0 af 00 00 	movl   $0xafb0,(%esp)
    2992:	c6 05 44 02 50 00 01 	movb   $0x1,0x500244
    2999:	e8 e2 fb ff ff       	call   0x2580
    299e:	0f b6 05 44 02 50 00 	movzbl 0x500244,%eax
    29a5:	0f b6 c0             	movzbl %al,%eax
    29a8:	89 04 24             	mov    %eax,(%esp)
    29ab:	e8 70 ff ff ff       	call   0x2920
    29b0:	c7 04 24 a7 b1 00 00 	movl   $0xb1a7,(%esp)
    29b7:	e8 c4 fb ff ff       	call   0x2580
    29bc:	c7 05 40 02 50 00 0a 	movl   $0xa,0x500240
    29c3:	00 00 00 
    29c6:	c9                   	leave  
    29c7:	c3                   	ret    
    29c8:	90                   	nop
    29c9:	90                   	nop
    29ca:	90                   	nop
    29cb:	90                   	nop
    29cc:	90                   	nop
    29cd:	90                   	nop
    29ce:	90                   	nop
    29cf:	90                   	nop
    29d0:	55                   	push   %ebp
    29d1:	89 e5                	mov    %esp,%ebp
    29d3:	83 ec 08             	sub    $0x8,%esp
    29d6:	c9                   	leave  
    29d7:	e9 34 ff ff ff       	jmp    0x2910
    29dc:	90                   	nop
    29dd:	90                   	nop
    29de:	90                   	nop
    29df:	90                   	nop
    29e0:	55                   	push   %ebp
    29e1:	89 e5                	mov    %esp,%ebp
    29e3:	57                   	push   %edi
    29e4:	56                   	push   %esi
    29e5:	53                   	push   %ebx
    29e6:	83 ec 08             	sub    $0x8,%esp
    29e9:	8b 45 08             	mov    0x8(%ebp),%eax
    29ec:	8b 3d 58 02 50 00    	mov    0x500258,%edi
    29f2:	8b 50 fc             	mov    -0x4(%eax),%edx
    29f5:	8d 70 fc             	lea    -0x4(%eax),%esi
    29f8:	83 fa 0f             	cmp    $0xf,%edx
    29fb:	0f 86 b9 00 00 00    	jbe    0x2aba
    2a01:	89 70 fc             	mov    %esi,-0x4(%eax)
    2a04:	89 56 04             	mov    %edx,0x4(%esi)
    2a07:	c7 46 08 00 00 00 00 	movl   $0x0,0x8(%esi)
    2a0e:	c7 46 0c 00 00 00 00 	movl   $0x0,0xc(%esi)
    2a15:	01 57 0c             	add    %edx,0xc(%edi)
    2a18:	8b 48 fc             	mov    -0x4(%eax),%ecx
    2a1b:	8b 47 04             	mov    0x4(%edi),%eax
    2a1e:	8b 5e 04             	mov    0x4(%esi),%ebx
    2a21:	85 c0                	test   %eax,%eax
    2a23:	0f 84 a9 00 00 00    	je     0x2ad2
    2a29:	8b 10                	mov    (%eax),%edx
    2a2b:	8d 1c 19             	lea    (%ecx,%ebx,1),%ebx
    2a2e:	89 55 f0             	mov    %edx,-0x10(%ebp)
    2a31:	89 c2                	mov    %eax,%edx
    2a33:	3b 5d f0             	cmp    -0x10(%ebp),%ebx
    2a36:	74 13                	je     0x2a4b
    2a38:	90                   	nop
    2a39:	8d b4 26 00 00 00 00 	lea    0x0(%esi,%eiz,1),%esi
    2a40:	8b 52 0c             	mov    0xc(%edx),%edx
    2a43:	85 d2                	test   %edx,%edx
    2a45:	74 04                	je     0x2a4b
    2a47:	3b 1a                	cmp    (%edx),%ebx
    2a49:	75 f5                	jne    0x2a40
    2a4b:	8b 5d f0             	mov    -0x10(%ebp),%ebx
    2a4e:	03 58 04             	add    0x4(%eax),%ebx
    2a51:	39 d9                	cmp    %ebx,%ecx
    2a53:	74 1b                	je     0x2a70
    2a55:	8d 74 26 00          	lea    0x0(%esi,%eiz,1),%esi
    2a59:	8d bc 27 00 00 00 00 	lea    0x0(%edi,%eiz,1),%edi
    2a60:	8b 40 0c             	mov    0xc(%eax),%eax
    2a63:	85 c0                	test   %eax,%eax
    2a65:	74 69                	je     0x2ad0
    2a67:	8b 18                	mov    (%eax),%ebx
    2a69:	03 58 04             	add    0x4(%eax),%ebx
    2a6c:	39 d9                	cmp    %ebx,%ecx
    2a6e:	75 f0                	jne    0x2a60
    2a70:	89 c1                	mov    %eax,%ecx
    2a72:	89 d0                	mov    %edx,%eax
    2a74:	85 c0                	test   %eax,%eax
    2a76:	74 38                	je     0x2ab0
    2a78:	8b 50 04             	mov    0x4(%eax),%edx
    2a7b:	01 56 04             	add    %edx,0x4(%esi)
    2a7e:	8b 1f                	mov    (%edi),%ebx
    2a80:	83 fb 01             	cmp    $0x1,%ebx
    2a83:	89 5d ec             	mov    %ebx,-0x14(%ebp)
    2a86:	74 78                	je     0x2b00
    2a88:	8b 50 08             	mov    0x8(%eax),%edx
    2a8b:	85 d2                	test   %edx,%edx
    2a8d:	0f 84 8d 00 00 00    	je     0x2b20
    2a93:	8b 58 0c             	mov    0xc(%eax),%ebx
    2a96:	85 db                	test   %ebx,%ebx
    2a98:	89 5d f0             	mov    %ebx,-0x10(%ebp)
    2a9b:	0f 84 bf 00 00 00    	je     0x2b60
    2aa1:	8b 5d f0             	mov    -0x10(%ebp),%ebx
    2aa4:	89 5a 0c             	mov    %ebx,0xc(%edx)
    2aa7:	8b 40 0c             	mov    0xc(%eax),%eax
    2aaa:	83 2f 01             	subl   $0x1,(%edi)
    2aad:	89 50 08             	mov    %edx,0x8(%eax)
    2ab0:	85 c9                	test   %ecx,%ecx
    2ab2:	74 06                	je     0x2aba
    2ab4:	8b 46 04             	mov    0x4(%esi),%eax
    2ab7:	01 41 04             	add    %eax,0x4(%ecx)
    2aba:	83 c4 08             	add    $0x8,%esp
    2abd:	5b                   	pop    %ebx
    2abe:	5e                   	pop    %esi
    2abf:	5f                   	pop    %edi
    2ac0:	5d                   	pop    %ebp
    2ac1:	c3                   	ret    
    2ac2:	8d b4 26 00 00 00 00 	lea    0x0(%esi,%eiz,1),%esi
    2ac9:	8d bc 27 00 00 00 00 	lea    0x0(%edi,%eiz,1),%edi
    2ad0:	89 d0                	mov    %edx,%eax
    2ad2:	8b 17                	mov    (%edi),%edx
    2ad4:	85 d2                	test   %edx,%edx
    2ad6:	75 68                	jne    0x2b40
    2ad8:	c7 46 08 00 00 00 00 	movl   $0x0,0x8(%esi)
    2adf:	31 c9                	xor    %ecx,%ecx
    2ae1:	c7 46 0c 00 00 00 00 	movl   $0x0,0xc(%esi)
    2ae8:	89 77 04             	mov    %esi,0x4(%edi)
    2aeb:	89 77 08             	mov    %esi,0x8(%edi)
    2aee:	83 07 01             	addl   $0x1,(%edi)
    2af1:	eb 81                	jmp    0x2a74
    2af3:	8d b6 00 00 00 00    	lea    0x0(%esi),%esi
    2af9:	8d bc 27 00 00 00 00 	lea    0x0(%edi,%eiz,1),%edi
    2b00:	c7 47 04 00 00 00 00 	movl   $0x0,0x4(%edi)
    2b07:	c7 47 08 00 00 00 00 	movl   $0x0,0x8(%edi)
    2b0e:	c7 07 00 00 00 00    	movl   $0x0,(%edi)
    2b14:	eb 9a                	jmp    0x2ab0
    2b16:	8d 76 00             	lea    0x0(%esi),%esi
    2b19:	8d bc 27 00 00 00 00 	lea    0x0(%edi,%eiz,1),%edi
    2b20:	8b 45 ec             	mov    -0x14(%ebp),%eax
    2b23:	85 c0                	test   %eax,%eax
    2b25:	74 89                	je     0x2ab0
    2b27:	8b 47 04             	mov    0x4(%edi),%eax
    2b2a:	8b 40 0c             	mov    0xc(%eax),%eax
    2b2d:	89 47 04             	mov    %eax,0x4(%edi)
    2b30:	c7 40 08 00 00 00 00 	movl   $0x0,0x8(%eax)
    2b37:	83 2f 01             	subl   $0x1,(%edi)
    2b3a:	e9 71 ff ff ff       	jmp    0x2ab0
    2b3f:	90                   	nop
    2b40:	8b 57 08             	mov    0x8(%edi),%edx
    2b43:	31 c9                	xor    %ecx,%ecx
    2b45:	89 72 0c             	mov    %esi,0xc(%edx)
    2b48:	8b 57 08             	mov    0x8(%edi),%edx
    2b4b:	c7 46 0c 00 00 00 00 	movl   $0x0,0xc(%esi)
    2b52:	89 56 08             	mov    %edx,0x8(%esi)
    2b55:	89 77 08             	mov    %esi,0x8(%edi)
    2b58:	83 07 01             	addl   $0x1,(%edi)
    2b5b:	e9 14 ff ff ff       	jmp    0x2a74
    2b60:	8b 5d ec             	mov    -0x14(%ebp),%ebx
    2b63:	85 db                	test   %ebx,%ebx
    2b65:	0f 84 45 ff ff ff    	je     0x2ab0
    2b6b:	8b 47 08             	mov    0x8(%edi),%eax
    2b6e:	8b 40 08             	mov    0x8(%eax),%eax
    2b71:	89 47 08             	mov    %eax,0x8(%edi)
    2b74:	c7 40 0c 00 00 00 00 	movl   $0x0,0xc(%eax)
    2b7b:	83 2f 01             	subl   $0x1,(%edi)
    2b7e:	e9 2d ff ff ff       	jmp    0x2ab0
    2b83:	90                   	nop
    2b84:	90                   	nop
    2b85:	90                   	nop
    2b86:	90                   	nop
    2b87:	90                   	nop
    2b88:	90                   	nop
    2b89:	90                   	nop
    2b8a:	90                   	nop
    2b8b:	90                   	nop
    2b8c:	90                   	nop
    2b8d:	90                   	nop
    2b8e:	90                   	nop
    2b8f:	90                   	nop
    2b90:	55                   	push   %ebp
    2b91:	89 e5                	mov    %esp,%ebp
    2b93:	57                   	push   %edi
    2b94:	56                   	push   %esi
    2b95:	53                   	push   %ebx
    2b96:	83 ec 04             	sub    $0x4,%esp
    2b99:	8b 5d 0c             	mov    0xc(%ebp),%ebx
    2b9c:	8b 7d 14             	mov    0x14(%ebp),%edi
    2b9f:	85 db                	test   %ebx,%ebx
    2ba1:	0f 84 a9 00 00 00    	je     0x2c50
    2ba7:	81 fb 00 01 00 00    	cmp    $0x100,%ebx
    2bad:	77 61                	ja     0x2c10
    2baf:	8b 45 08             	mov    0x8(%ebp),%eax
    2bb2:	8b 08                	mov    (%eax),%ecx
    2bb4:	89 d8                	mov    %ebx,%eax
    2bb6:	89 de                	mov    %ebx,%esi
    2bb8:	89 cb                	mov    %ecx,%ebx
    2bba:	8d b6 00 00 00 00    	lea    0x0(%esi),%esi
    2bc0:	31 d2                	xor    %edx,%edx
    2bc2:	f7 f3                	div    %ebx
    2bc4:	89 fa                	mov    %edi,%edx
    2bc6:	8d 4f 01             	lea    0x1(%edi),%ecx
    2bc9:	89 cf                	mov    %ecx,%edi
    2bcb:	85 c0                	test   %eax,%eax
    2bcd:	75 f1                	jne    0x2bc0
    2bcf:	89 4d f0             	mov    %ecx,-0x10(%ebp)
    2bd2:	89 d9                	mov    %ebx,%ecx
    2bd4:	89 f3                	mov    %esi,%ebx
    2bd6:	8b 75 10             	mov    0x10(%ebp),%esi
    2bd9:	8b 7d 08             	mov    0x8(%ebp),%edi
    2bdc:	01 d6                	add    %edx,%esi
    2bde:	66 90                	xchg   %ax,%ax
    2be0:	89 d8                	mov    %ebx,%eax
    2be2:	31 d2                	xor    %edx,%edx
    2be4:	f7 f1                	div    %ecx
    2be6:	0f b6 82 cc af 00 00 	movzbl 0xafcc(%edx),%eax
    2bed:	31 d2                	xor    %edx,%edx
    2bef:	88 06                	mov    %al,(%esi)
    2bf1:	8b 0f                	mov    (%edi),%ecx
    2bf3:	89 d8                	mov    %ebx,%eax
    2bf5:	83 ee 01             	sub    $0x1,%esi
    2bf8:	f7 f1                	div    %ecx
    2bfa:	85 c0                	test   %eax,%eax
    2bfc:	89 c3                	mov    %eax,%ebx
    2bfe:	75 e0                	jne    0x2be0
    2c00:	8b 45 f0             	mov    -0x10(%ebp),%eax
    2c03:	83 c4 04             	add    $0x4,%esp
    2c06:	5b                   	pop    %ebx
    2c07:	5e                   	pop    %esi
    2c08:	5f                   	pop    %edi
    2c09:	5d                   	pop    %ebp
    2c0a:	c3                   	ret    
    2c0b:	90                   	nop
    2c0c:	8d 74 26 00          	lea    0x0(%esi,%eiz,1),%esi
    2c10:	8b 45 08             	mov    0x8(%ebp),%eax
    2c13:	8b 08                	mov    (%eax),%ecx
    2c15:	83 f9 10             	cmp    $0x10,%ecx
    2c18:	74 05                	je     0x2c1f
    2c1a:	83 f9 08             	cmp    $0x8,%ecx
    2c1d:	75 95                	jne    0x2bb4
    2c1f:	8b 45 10             	mov    0x10(%ebp),%eax
    2c22:	c6 04 38 30          	movb   $0x30,(%eax,%edi,1)
    2c26:	8b 45 08             	mov    0x8(%ebp),%eax
    2c29:	83 c7 01             	add    $0x1,%edi
    2c2c:	8b 08                	mov    (%eax),%ecx
    2c2e:	83 f9 10             	cmp    $0x10,%ecx
    2c31:	75 81                	jne    0x2bb4
    2c33:	8b 45 10             	mov    0x10(%ebp),%eax
    2c36:	c6 04 38 78          	movb   $0x78,(%eax,%edi,1)
    2c3a:	83 c7 01             	add    $0x1,%edi
    2c3d:	e9 6d ff ff ff       	jmp    0x2baf
    2c42:	8d b4 26 00 00 00 00 	lea    0x0(%esi,%eiz,1),%esi
    2c49:	8d bc 27 00 00 00 00 	lea    0x0(%edi,%eiz,1),%edi
    2c50:	8b 45 10             	mov    0x10(%ebp),%eax
    2c53:	c6 04 38 30          	movb   $0x30,(%eax,%edi,1)
    2c57:	83 c4 04             	add    $0x4,%esp
    2c5a:	8d 47 01             	lea    0x1(%edi),%eax
    2c5d:	5b                   	pop    %ebx
    2c5e:	5e                   	pop    %esi
    2c5f:	5f                   	pop    %edi
    2c60:	5d                   	pop    %ebp
    2c61:	c3                   	ret    
    2c62:	90                   	nop
    2c63:	90                   	nop
    2c64:	90                   	nop
    2c65:	90                   	nop
    2c66:	90                   	nop
    2c67:	90                   	nop
    2c68:	90                   	nop
    2c69:	90                   	nop
    2c6a:	90                   	nop
    2c6b:	90                   	nop
    2c6c:	90                   	nop
    2c6d:	90                   	nop
    2c6e:	90                   	nop
    2c6f:	90                   	nop
    2c70:	55                   	push   %ebp
    2c71:	31 c9                	xor    %ecx,%ecx
    2c73:	89 e5                	mov    %esp,%ebp
    2c75:	83 ec 10             	sub    $0x10,%esp
    2c78:	8b 45 0c             	mov    0xc(%ebp),%eax
    2c7b:	8b 55 10             	mov    0x10(%ebp),%edx
    2c7e:	85 c0                	test   %eax,%eax
    2c80:	79 07                	jns    0x2c89
    2c82:	f7 d8                	neg    %eax
    2c84:	b1 01                	mov    $0x1,%cl
    2c86:	c6 02 2d             	movb   $0x2d,(%edx)
    2c89:	89 44 24 04          	mov    %eax,0x4(%esp)
    2c8d:	8b 45 08             	mov    0x8(%ebp),%eax
    2c90:	89 4c 24 0c          	mov    %ecx,0xc(%esp)
    2c94:	89 54 24 08          	mov    %edx,0x8(%esp)
    2c98:	89 04 24             	mov    %eax,(%esp)
    2c9b:	e8 f0 fe ff ff       	call   0x2b90
    2ca0:	c9                   	leave  
    2ca1:	c3                   	ret    
    2ca2:	90                   	nop
    2ca3:	90                   	nop
    2ca4:	90                   	nop
    2ca5:	90                   	nop
    2ca6:	90                   	nop
    2ca7:	90                   	nop
    2ca8:	90                   	nop
    2ca9:	90                   	nop
    2caa:	90                   	nop
    2cab:	90                   	nop
    2cac:	90                   	nop
    2cad:	90                   	nop
    2cae:	90                   	nop
    2caf:	90                   	nop
    2cb0:	55                   	push   %ebp
    2cb1:	89 e5                	mov    %esp,%ebp
    2cb3:	57                   	push   %edi
    2cb4:	56                   	push   %esi
    2cb5:	53                   	push   %ebx
    2cb6:	83 ec 3c             	sub    $0x3c,%esp
    2cb9:	8b 5d 10             	mov    0x10(%ebp),%ebx
    2cbc:	8b 75 0c             	mov    0xc(%ebp),%esi
    2cbf:	8b 7d 18             	mov    0x18(%ebp),%edi
    2cc2:	89 d8                	mov    %ebx,%eax
    2cc4:	09 f0                	or     %esi,%eax
    2cc6:	0f 84 14 01 00 00    	je     0x2de0
    2ccc:	83 fb 00             	cmp    $0x0,%ebx
    2ccf:	76 3f                	jbe    0x2d10
    2cd1:	8b 45 08             	mov    0x8(%ebp),%eax
    2cd4:	8b 00                	mov    (%eax),%eax
    2cd6:	83 f8 10             	cmp    $0x10,%eax
    2cd9:	89 45 dc             	mov    %eax,-0x24(%ebp)
    2cdc:	74 05                	je     0x2ce3
    2cde:	83 f8 08             	cmp    $0x8,%eax
    2ce1:	75 3d                	jne    0x2d20
    2ce3:	8b 55 14             	mov    0x14(%ebp),%edx
    2ce6:	c6 04 3a 30          	movb   $0x30,(%edx,%edi,1)
    2cea:	8b 4d 08             	mov    0x8(%ebp),%ecx
    2ced:	83 c7 01             	add    $0x1,%edi
    2cf0:	8b 09                	mov    (%ecx),%ecx
    2cf2:	83 f9 10             	cmp    $0x10,%ecx
    2cf5:	89 4d dc             	mov    %ecx,-0x24(%ebp)
    2cf8:	75 26                	jne    0x2d20
    2cfa:	c6 04 3a 78          	movb   $0x78,(%edx,%edi,1)
    2cfe:	8b 45 08             	mov    0x8(%ebp),%eax
    2d01:	83 c7 01             	add    $0x1,%edi
    2d04:	8b 00                	mov    (%eax),%eax
    2d06:	89 45 dc             	mov    %eax,-0x24(%ebp)
    2d09:	eb 15                	jmp    0x2d20
    2d0b:	90                   	nop
    2d0c:	8d 74 26 00          	lea    0x0(%esi,%eiz,1),%esi
    2d10:	81 fe 00 01 00 00    	cmp    $0x100,%esi
    2d16:	77 b9                	ja     0x2cd1
    2d18:	8b 4d 08             	mov    0x8(%ebp),%ecx
    2d1b:	8b 09                	mov    (%ecx),%ecx
    2d1d:	89 4d dc             	mov    %ecx,-0x24(%ebp)
    2d20:	8b 45 dc             	mov    -0x24(%ebp),%eax
    2d23:	89 75 d4             	mov    %esi,-0x2c(%ebp)
    2d26:	89 c2                	mov    %eax,%edx
    2d28:	c1 fa 1f             	sar    $0x1f,%edx
    2d2b:	89 45 e0             	mov    %eax,-0x20(%ebp)
    2d2e:	89 f0                	mov    %esi,%eax
    2d30:	89 de                	mov    %ebx,%esi
    2d32:	89 55 e4             	mov    %edx,-0x1c(%ebp)
    2d35:	89 da                	mov    %ebx,%edx
    2d37:	89 f6                	mov    %esi,%esi
    2d39:	8d bc 27 00 00 00 00 	lea    0x0(%edi,%eiz,1),%edi
    2d40:	8d 4f 01             	lea    0x1(%edi),%ecx
    2d43:	8b 5d e4             	mov    -0x1c(%ebp),%ebx
    2d46:	89 4d d8             	mov    %ecx,-0x28(%ebp)
    2d49:	8b 4d e0             	mov    -0x20(%ebp),%ecx
    2d4c:	89 04 24             	mov    %eax,(%esp)
    2d4f:	89 54 24 04          	mov    %edx,0x4(%esp)
    2d53:	89 5c 24 0c          	mov    %ebx,0xc(%esp)
    2d57:	89 4c 24 08          	mov    %ecx,0x8(%esp)
    2d5b:	e8 78 7f 00 00       	call   0xacd8
    2d60:	89 f9                	mov    %edi,%ecx
    2d62:	8b 7d d8             	mov    -0x28(%ebp),%edi
    2d65:	89 d3                	mov    %edx,%ebx
    2d67:	09 c3                	or     %eax,%ebx
    2d69:	75 d5                	jne    0x2d40
    2d6b:	8b 7d 14             	mov    0x14(%ebp),%edi
    2d6e:	89 f3                	mov    %esi,%ebx
    2d70:	8b 75 d4             	mov    -0x2c(%ebp),%esi
    2d73:	01 cf                	add    %ecx,%edi
    2d75:	89 7d e0             	mov    %edi,-0x20(%ebp)
    2d78:	8b 7d dc             	mov    -0x24(%ebp),%edi
    2d7b:	90                   	nop
    2d7c:	8d 74 26 00          	lea    0x0(%esi,%eiz,1),%esi
    2d80:	89 f8                	mov    %edi,%eax
    2d82:	c1 f8 1f             	sar    $0x1f,%eax
    2d85:	89 7c 24 08          	mov    %edi,0x8(%esp)
    2d89:	89 34 24             	mov    %esi,(%esp)
    2d8c:	89 5c 24 04          	mov    %ebx,0x4(%esp)
    2d90:	89 44 24 0c          	mov    %eax,0xc(%esp)
    2d94:	e8 47 80 00 00       	call   0xade0
    2d99:	8b 55 e0             	mov    -0x20(%ebp),%edx
    2d9c:	0f b6 80 cc af 00 00 	movzbl 0xafcc(%eax),%eax
    2da3:	88 02                	mov    %al,(%edx)
    2da5:	8b 4d 08             	mov    0x8(%ebp),%ecx
    2da8:	8b 39                	mov    (%ecx),%edi
    2daa:	89 34 24             	mov    %esi,(%esp)
    2dad:	89 5c 24 04          	mov    %ebx,0x4(%esp)
    2db1:	89 f8                	mov    %edi,%eax
    2db3:	c1 f8 1f             	sar    $0x1f,%eax
    2db6:	89 7c 24 08          	mov    %edi,0x8(%esp)
    2dba:	89 44 24 0c          	mov    %eax,0xc(%esp)
    2dbe:	e8 15 7f 00 00       	call   0xacd8
    2dc3:	83 6d e0 01          	subl   $0x1,-0x20(%ebp)
    2dc7:	89 c6                	mov    %eax,%esi
    2dc9:	89 d3                	mov    %edx,%ebx
    2dcb:	09 f2                	or     %esi,%edx
    2dcd:	75 b1                	jne    0x2d80
    2dcf:	8b 45 d8             	mov    -0x28(%ebp),%eax
    2dd2:	83 c4 3c             	add    $0x3c,%esp
    2dd5:	5b                   	pop    %ebx
    2dd6:	5e                   	pop    %esi
    2dd7:	5f                   	pop    %edi
    2dd8:	5d                   	pop    %ebp
    2dd9:	c3                   	ret    
    2dda:	8d b6 00 00 00 00    	lea    0x0(%esi),%esi
    2de0:	8b 55 14             	mov    0x14(%ebp),%edx
    2de3:	8d 47 01             	lea    0x1(%edi),%eax
    2de6:	c6 04 3a 30          	movb   $0x30,(%edx,%edi,1)
    2dea:	83 c4 3c             	add    $0x3c,%esp
    2ded:	5b                   	pop    %ebx
    2dee:	5e                   	pop    %esi
    2def:	5f                   	pop    %edi
    2df0:	5d                   	pop    %ebp
    2df1:	c3                   	ret    
    2df2:	90                   	nop
    2df3:	90                   	nop
    2df4:	90                   	nop
    2df5:	90                   	nop
    2df6:	90                   	nop
    2df7:	90                   	nop
    2df8:	90                   	nop
    2df9:	90                   	nop
    2dfa:	90                   	nop
    2dfb:	90                   	nop
    2dfc:	90                   	nop
    2dfd:	90                   	nop
    2dfe:	90                   	nop
    2dff:	90                   	nop
    2e00:	55                   	push   %ebp
    2e01:	b8 07 00 00 00       	mov    $0x7,%eax
    2e06:	89 e5                	mov    %esp,%ebp
    2e08:	53                   	push   %ebx
    2e09:	8b 5d 10             	mov    0x10(%ebp),%ebx
    2e0c:	8b 55 0c             	mov    0xc(%ebp),%edx
    2e0f:	c6 03 30             	movb   $0x30,(%ebx)
    2e12:	c6 43 01 78          	movb   $0x78,0x1(%ebx)
    2e16:	8d 76 00             	lea    0x0(%esi),%esi
    2e19:	8d bc 27 00 00 00 00 	lea    0x0(%edi,%eiz,1),%edi
    2e20:	89 d1                	mov    %edx,%ecx
    2e22:	83 e1 0f             	and    $0xf,%ecx
    2e25:	0f b6 89 cc af 00 00 	movzbl 0xafcc(%ecx),%ecx
    2e2c:	c1 ea 04             	shr    $0x4,%edx
    2e2f:	88 4c 03 02          	mov    %cl,0x2(%ebx,%eax,1)
    2e33:	83 e8 01             	sub    $0x1,%eax
    2e36:	83 f8 ff             	cmp    $0xffffffff,%eax
    2e39:	75 e5                	jne    0x2e20
    2e3b:	b8 0a 00 00 00       	mov    $0xa,%eax
    2e40:	5b                   	pop    %ebx
    2e41:	5d                   	pop    %ebp
    2e42:	c3                   	ret    
    2e43:	90                   	nop
    2e44:	90                   	nop
    2e45:	90                   	nop
    2e46:	90                   	nop
    2e47:	90                   	nop
    2e48:	90                   	nop
    2e49:	90                   	nop
    2e4a:	90                   	nop
    2e4b:	90                   	nop
    2e4c:	90                   	nop
    2e4d:	90                   	nop
    2e4e:	90                   	nop
    2e4f:	90                   	nop
    2e50:	55                   	push   %ebp
    2e51:	89 e5                	mov    %esp,%ebp
    2e53:	57                   	push   %edi
    2e54:	56                   	push   %esi
    2e55:	53                   	push   %ebx
    2e56:	83 ec 08             	sub    $0x8,%esp
    2e59:	8b 55 10             	mov    0x10(%ebp),%edx
    2e5c:	8b 45 08             	mov    0x8(%ebp),%eax
    2e5f:	8b 5d 0c             	mov    0xc(%ebp),%ebx
    2e62:	83 fa 0f             	cmp    $0xf,%edx
    2e65:	89 c7                	mov    %eax,%edi
    2e67:	89 de                	mov    %ebx,%esi
    2e69:	89 55 f0             	mov    %edx,-0x10(%ebp)
    2e6c:	0f 86 9b 00 00 00    	jbe    0x2f0d
    2e72:	89 d9                	mov    %ebx,%ecx
    2e74:	31 d2                	xor    %edx,%edx
    2e76:	09 c1                	or     %eax,%ecx
    2e78:	89 4d ec             	mov    %ecx,-0x14(%ebp)
    2e7b:	31 c9                	xor    %ecx,%ecx
    2e7d:	f6 45 ec 03          	testb  $0x3,-0x14(%ebp)
    2e81:	0f 85 b9 00 00 00    	jne    0x2f40
    2e87:	8b 75 10             	mov    0x10(%ebp),%esi
    2e8a:	8d b6 00 00 00 00    	lea    0x0(%esi),%esi
    2e90:	8b 14 0b             	mov    (%ebx,%ecx,1),%edx
    2e93:	89 14 08             	mov    %edx,(%eax,%ecx,1)
    2e96:	8b 54 0b 04          	mov    0x4(%ebx,%ecx,1),%edx
    2e9a:	89 54 08 04          	mov    %edx,0x4(%eax,%ecx,1)
    2e9e:	8b 54 0b 08          	mov    0x8(%ebx,%ecx,1),%edx
    2ea2:	89 54 08 08          	mov    %edx,0x8(%eax,%ecx,1)
    2ea6:	8b 54 0b 0c          	mov    0xc(%ebx,%ecx,1),%edx
    2eaa:	89 54 08 0c          	mov    %edx,0xc(%eax,%ecx,1)
    2eae:	83 c1 10             	add    $0x10,%ecx
    2eb1:	89 f2                	mov    %esi,%edx
    2eb3:	29 ca                	sub    %ecx,%edx
    2eb5:	83 fa 0f             	cmp    $0xf,%edx
    2eb8:	77 d6                	ja     0x2e90
    2eba:	8b 55 10             	mov    0x10(%ebp),%edx
    2ebd:	83 ea 10             	sub    $0x10,%edx
    2ec0:	89 d1                	mov    %edx,%ecx
    2ec2:	83 e2 f0             	and    $0xfffffff0,%edx
    2ec5:	83 e1 0f             	and    $0xf,%ecx
    2ec8:	8d 72 10             	lea    0x10(%edx),%esi
    2ecb:	83 f9 03             	cmp    $0x3,%ecx
    2ece:	8d 3c 30             	lea    (%eax,%esi,1),%edi
    2ed1:	89 4d f0             	mov    %ecx,-0x10(%ebp)
    2ed4:	8d 34 33             	lea    (%ebx,%esi,1),%esi
    2ed7:	76 34                	jbe    0x2f0d
    2ed9:	83 e9 04             	sub    $0x4,%ecx
    2edc:	31 d2                	xor    %edx,%edx
    2ede:	89 cb                	mov    %ecx,%ebx
    2ee0:	c1 eb 02             	shr    $0x2,%ebx
    2ee3:	89 4d f0             	mov    %ecx,-0x10(%ebp)
    2ee6:	83 c3 01             	add    $0x1,%ebx
    2ee9:	8d b4 26 00 00 00 00 	lea    0x0(%esi,%eiz,1),%esi
    2ef0:	8b 0c 96             	mov    (%esi,%edx,4),%ecx
    2ef3:	89 0c 97             	mov    %ecx,(%edi,%edx,4)
    2ef6:	83 c2 01             	add    $0x1,%edx
    2ef9:	39 da                	cmp    %ebx,%edx
    2efb:	75 f3                	jne    0x2ef0
    2efd:	c1 e2 02             	shl    $0x2,%edx
    2f00:	01 d7                	add    %edx,%edi
    2f02:	01 d6                	add    %edx,%esi
    2f04:	8b 55 f0             	mov    -0x10(%ebp),%edx
    2f07:	83 e2 03             	and    $0x3,%edx
    2f0a:	89 55 f0             	mov    %edx,-0x10(%ebp)
    2f0d:	8b 55 f0             	mov    -0x10(%ebp),%edx
    2f10:	85 d2                	test   %edx,%edx
    2f12:	74 1a                	je     0x2f2e
    2f14:	8b 5d f0             	mov    -0x10(%ebp),%ebx
    2f17:	31 d2                	xor    %edx,%edx
    2f19:	8d b4 26 00 00 00 00 	lea    0x0(%esi,%eiz,1),%esi
    2f20:	0f b6 0c 16          	movzbl (%esi,%edx,1),%ecx
    2f24:	88 0c 17             	mov    %cl,(%edi,%edx,1)
    2f27:	83 c2 01             	add    $0x1,%edx
    2f2a:	39 d3                	cmp    %edx,%ebx
    2f2c:	75 f2                	jne    0x2f20
    2f2e:	83 c4 08             	add    $0x8,%esp
    2f31:	5b                   	pop    %ebx
    2f32:	5e                   	pop    %esi
    2f33:	5f                   	pop    %edi
    2f34:	5d                   	pop    %ebp
    2f35:	c3                   	ret    
    2f36:	8d 76 00             	lea    0x0(%esi),%esi
    2f39:	8d bc 27 00 00 00 00 	lea    0x0(%edi,%eiz,1),%edi
    2f40:	8b 5d f0             	mov    -0x10(%ebp),%ebx
    2f43:	eb db                	jmp    0x2f20
    2f45:	90                   	nop
    2f46:	90                   	nop
    2f47:	90                   	nop
    2f48:	90                   	nop
    2f49:	90                   	nop
    2f4a:	90                   	nop
    2f4b:	90                   	nop
    2f4c:	90                   	nop
    2f4d:	90                   	nop
    2f4e:	90                   	nop
    2f4f:	90                   	nop
    2f50:	55                   	push   %ebp
    2f51:	89 e5                	mov    %esp,%ebp
    2f53:	83 ec 18             	sub    $0x18,%esp
    2f56:	a1 e0 00 40 00       	mov    0x4000e0,%eax
    2f5b:	8b 90 34 01 00 00    	mov    0x134(%eax),%edx
    2f61:	8b 80 38 01 00 00    	mov    0x138(%eax),%eax
    2f67:	89 15 08 05 50 00    	mov    %edx,0x500508
    2f6d:	8b 15 18 04 50 00    	mov    0x500418,%edx
    2f73:	a3 0c 05 50 00       	mov    %eax,0x50050c
    2f78:	8b 42 20             	mov    0x20(%edx),%eax
    2f7b:	c1 e8 18             	shr    $0x18,%eax
    2f7e:	85 c0                	test   %eax,%eax
    2f80:	74 5e                	je     0x2fe0
    2f82:	8b 42 20             	mov    0x20(%edx),%eax
    2f85:	c1 e8 18             	shr    $0x18,%eax
    2f88:	85 c0                	test   %eax,%eax
    2f8a:	74 14                	je     0x2fa0
    2f8c:	c9                   	leave  
    2f8d:	e9 7e 06 00 00       	jmp    0x3610
    2f92:	8d b4 26 00 00 00 00 	lea    0x0(%esi,%eiz,1),%esi
    2f99:	8d bc 27 00 00 00 00 	lea    0x0(%edi,%eiz,1),%edi
    2fa0:	e8 2b f8 ff ff       	call   0x27d0
    2fa5:	c7 04 24 dd af 00 00 	movl   $0xafdd,(%esp)
    2fac:	e8 cf f5 ff ff       	call   0x2580
    2fb1:	0f b6 05 44 02 50 00 	movzbl 0x500244,%eax
    2fb8:	0f b6 c0             	movzbl %al,%eax
    2fbb:	89 04 24             	mov    %eax,(%esp)
    2fbe:	e8 5d f9 ff ff       	call   0x2920
    2fc3:	c7 04 24 a7 b1 00 00 	movl   $0xb1a7,(%esp)
    2fca:	e8 b1 f5 ff ff       	call   0x2580
    2fcf:	c7 05 40 02 50 00 0a 	movl   $0xa,0x500240
    2fd6:	00 00 00 
    2fd9:	c9                   	leave  
    2fda:	e9 31 06 00 00       	jmp    0x3610
    2fdf:	90                   	nop
    2fe0:	e8 0b 00 00 00       	call   0x2ff0
    2fe5:	c9                   	leave  
    2fe6:	e9 25 06 00 00       	jmp    0x3610
    2feb:	90                   	nop
    2fec:	90                   	nop
    2fed:	90                   	nop
    2fee:	90                   	nop
    2fef:	90                   	nop
    2ff0:	55                   	push   %ebp
    2ff1:	89 e5                	mov    %esp,%ebp
    2ff3:	57                   	push   %edi
    2ff4:	56                   	push   %esi
    2ff5:	53                   	push   %ebx
    2ff6:	83 ec 08             	sub    $0x8,%esp
    2ff9:	8b 15 e0 00 40 00    	mov    0x4000e0,%edx
    2fff:	8b 82 9c 00 00 00    	mov    0x9c(%edx),%eax
    3005:	8b 9a a0 00 00 00    	mov    0xa0(%edx),%ebx
    300b:	89 c6                	mov    %eax,%esi
    300d:	81 e6 00 f0 ff ff    	and    $0xfffff000,%esi
    3013:	0f 84 f4 00 00 00    	je     0x310d
    3019:	81 c3 ff 0f 00 00    	add    $0xfff,%ebx
    301f:	29 c3                	sub    %eax,%ebx
    3021:	c1 eb 0c             	shr    $0xc,%ebx
    3024:	85 db                	test   %ebx,%ebx
    3026:	0f 84 e1 00 00 00    	je     0x310d
    302c:	89 f1                	mov    %esi,%ecx
    302e:	81 c9 00 00 00 80    	or     $0x80000000,%ecx
    3034:	89 59 04             	mov    %ebx,0x4(%ecx)
    3037:	89 31                	mov    %esi,(%ecx)
    3039:	c7 41 08 00 00 00 00 	movl   $0x0,0x8(%ecx)
    3040:	c7 41 0c 00 00 00 00 	movl   $0x0,0xc(%ecx)
    3047:	a1 14 05 50 00       	mov    0x500514,%eax
    304c:	01 1d 1c 05 50 00    	add    %ebx,0x50051c
    3052:	8b 19                	mov    (%ecx),%ebx
    3054:	8b 79 04             	mov    0x4(%ecx),%edi
    3057:	85 c0                	test   %eax,%eax
    3059:	0f 84 c3 02 00 00    	je     0x3322
    305f:	8b 30                	mov    (%eax),%esi
    3061:	c1 e7 0c             	shl    $0xc,%edi
    3064:	8d 3c 3b             	lea    (%ebx,%edi,1),%edi
    3067:	89 75 f0             	mov    %esi,-0x10(%ebp)
    306a:	89 c6                	mov    %eax,%esi
    306c:	3b 7d f0             	cmp    -0x10(%ebp),%edi
    306f:	74 1a                	je     0x308b
    3071:	eb 0d                	jmp    0x3080
    3073:	90                   	nop
    3074:	90                   	nop
    3075:	90                   	nop
    3076:	90                   	nop
    3077:	90                   	nop
    3078:	90                   	nop
    3079:	90                   	nop
    307a:	90                   	nop
    307b:	90                   	nop
    307c:	90                   	nop
    307d:	90                   	nop
    307e:	90                   	nop
    307f:	90                   	nop
    3080:	8b 76 0c             	mov    0xc(%esi),%esi
    3083:	85 f6                	test   %esi,%esi
    3085:	74 04                	je     0x308b
    3087:	3b 3e                	cmp    (%esi),%edi
    3089:	75 f5                	jne    0x3080
    308b:	8b 78 04             	mov    0x4(%eax),%edi
    308e:	c1 e7 0c             	shl    $0xc,%edi
    3091:	03 7d f0             	add    -0x10(%ebp),%edi
    3094:	39 fb                	cmp    %edi,%ebx
    3096:	74 1f                	je     0x30b7
    3098:	90                   	nop
    3099:	8d b4 26 00 00 00 00 	lea    0x0(%esi,%eiz,1),%esi
    30a0:	8b 40 0c             	mov    0xc(%eax),%eax
    30a3:	85 c0                	test   %eax,%eax
    30a5:	0f 84 75 02 00 00    	je     0x3320
    30ab:	8b 78 04             	mov    0x4(%eax),%edi
    30ae:	c1 e7 0c             	shl    $0xc,%edi
    30b1:	03 38                	add    (%eax),%edi
    30b3:	39 fb                	cmp    %edi,%ebx
    30b5:	75 e9                	jne    0x30a0
    30b7:	89 c3                	mov    %eax,%ebx
    30b9:	89 f0                	mov    %esi,%eax
    30bb:	85 c0                	test   %eax,%eax
    30bd:	74 44                	je     0x3103
    30bf:	8b 70 04             	mov    0x4(%eax),%esi
    30c2:	01 71 04             	add    %esi,0x4(%ecx)
    30c5:	8b 3d 10 05 50 00    	mov    0x500510,%edi
    30cb:	83 ff 01             	cmp    $0x1,%edi
    30ce:	89 7d ec             	mov    %edi,-0x14(%ebp)
    30d1:	0f 84 39 03 00 00    	je     0x3410
    30d7:	8b 70 08             	mov    0x8(%eax),%esi
    30da:	85 f6                	test   %esi,%esi
    30dc:	0f 84 ee 03 00 00    	je     0x34d0
    30e2:	8b 78 0c             	mov    0xc(%eax),%edi
    30e5:	85 ff                	test   %edi,%edi
    30e7:	89 7d f0             	mov    %edi,-0x10(%ebp)
    30ea:	0f 84 36 04 00 00    	je     0x3526
    30f0:	8b 7d f0             	mov    -0x10(%ebp),%edi
    30f3:	89 7e 0c             	mov    %edi,0xc(%esi)
    30f6:	8b 40 0c             	mov    0xc(%eax),%eax
    30f9:	83 2d 10 05 50 00 01 	subl   $0x1,0x500510
    3100:	89 70 08             	mov    %esi,0x8(%eax)
    3103:	85 db                	test   %ebx,%ebx
    3105:	74 06                	je     0x310d
    3107:	8b 41 04             	mov    0x4(%ecx),%eax
    310a:	01 43 04             	add    %eax,0x4(%ebx)
    310d:	8b 82 a4 00 00 00    	mov    0xa4(%edx),%eax
    3113:	8b 9a a8 00 00 00    	mov    0xa8(%edx),%ebx
    3119:	89 c6                	mov    %eax,%esi
    311b:	81 e6 00 f0 ff ff    	and    $0xfffff000,%esi
    3121:	0f 84 e6 00 00 00    	je     0x320d
    3127:	81 c3 ff 0f 00 00    	add    $0xfff,%ebx
    312d:	29 c3                	sub    %eax,%ebx
    312f:	c1 eb 0c             	shr    $0xc,%ebx
    3132:	85 db                	test   %ebx,%ebx
    3134:	0f 84 d3 00 00 00    	je     0x320d
    313a:	89 f1                	mov    %esi,%ecx
    313c:	81 c9 00 00 00 80    	or     $0x80000000,%ecx
    3142:	89 59 04             	mov    %ebx,0x4(%ecx)
    3145:	89 31                	mov    %esi,(%ecx)
    3147:	c7 41 08 00 00 00 00 	movl   $0x0,0x8(%ecx)
    314e:	c7 41 0c 00 00 00 00 	movl   $0x0,0xc(%ecx)
    3155:	a1 14 05 50 00       	mov    0x500514,%eax
    315a:	01 1d 1c 05 50 00    	add    %ebx,0x50051c
    3160:	8b 19                	mov    (%ecx),%ebx
    3162:	8b 79 04             	mov    0x4(%ecx),%edi
    3165:	85 c0                	test   %eax,%eax
    3167:	0f 84 f5 01 00 00    	je     0x3362
    316d:	8b 30                	mov    (%eax),%esi
    316f:	c1 e7 0c             	shl    $0xc,%edi
    3172:	8d 3c 3b             	lea    (%ebx,%edi,1),%edi
    3175:	89 75 f0             	mov    %esi,-0x10(%ebp)
    3178:	89 c6                	mov    %eax,%esi
    317a:	3b 7d f0             	cmp    -0x10(%ebp),%edi
    317d:	74 0c                	je     0x318b
    317f:	90                   	nop
    3180:	8b 76 0c             	mov    0xc(%esi),%esi
    3183:	85 f6                	test   %esi,%esi
    3185:	74 04                	je     0x318b
    3187:	3b 3e                	cmp    (%esi),%edi
    3189:	75 f5                	jne    0x3180
    318b:	8b 78 04             	mov    0x4(%eax),%edi
    318e:	c1 e7 0c             	shl    $0xc,%edi
    3191:	03 7d f0             	add    -0x10(%ebp),%edi
    3194:	39 fb                	cmp    %edi,%ebx
    3196:	74 1f                	je     0x31b7
    3198:	90                   	nop
    3199:	8d b4 26 00 00 00 00 	lea    0x0(%esi,%eiz,1),%esi
    31a0:	8b 40 0c             	mov    0xc(%eax),%eax
    31a3:	85 c0                	test   %eax,%eax
    31a5:	0f 84 b5 01 00 00    	je     0x3360
    31ab:	8b 78 04             	mov    0x4(%eax),%edi
    31ae:	c1 e7 0c             	shl    $0xc,%edi
    31b1:	03 38                	add    (%eax),%edi
    31b3:	39 fb                	cmp    %edi,%ebx
    31b5:	75 e9                	jne    0x31a0
    31b7:	89 c3                	mov    %eax,%ebx
    31b9:	89 f0                	mov    %esi,%eax
    31bb:	85 c0                	test   %eax,%eax
    31bd:	74 44                	je     0x3203
    31bf:	8b 70 04             	mov    0x4(%eax),%esi
    31c2:	01 71 04             	add    %esi,0x4(%ecx)
    31c5:	8b 3d 10 05 50 00    	mov    0x500510,%edi
    31cb:	83 ff 01             	cmp    $0x1,%edi
    31ce:	89 7d ec             	mov    %edi,-0x14(%ebp)
    31d1:	0f 84 69 02 00 00    	je     0x3440
    31d7:	8b 70 08             	mov    0x8(%eax),%esi
    31da:	85 f6                	test   %esi,%esi
    31dc:	0f 84 8e 02 00 00    	je     0x3470
    31e2:	8b 78 0c             	mov    0xc(%eax),%edi
    31e5:	85 ff                	test   %edi,%edi
    31e7:	89 7d f0             	mov    %edi,-0x10(%ebp)
    31ea:	0f 84 0b 03 00 00    	je     0x34fb
    31f0:	8b 7d f0             	mov    -0x10(%ebp),%edi
    31f3:	89 7e 0c             	mov    %edi,0xc(%esi)
    31f6:	8b 40 0c             	mov    0xc(%eax),%eax
    31f9:	83 2d 10 05 50 00 01 	subl   $0x1,0x500510
    3200:	89 70 08             	mov    %esi,0x8(%eax)
    3203:	85 db                	test   %ebx,%ebx
    3205:	74 06                	je     0x320d
    3207:	8b 41 04             	mov    0x4(%ecx),%eax
    320a:	01 43 04             	add    %eax,0x4(%ebx)
    320d:	8b 82 ac 00 00 00    	mov    0xac(%edx),%eax
    3213:	8b 8a b0 00 00 00    	mov    0xb0(%edx),%ecx
    3219:	89 c3                	mov    %eax,%ebx
    321b:	81 e3 00 f0 ff ff    	and    $0xfffff000,%ebx
    3221:	0f 84 dd 00 00 00    	je     0x3304
    3227:	8d 91 ff 0f 00 00    	lea    0xfff(%ecx),%edx
    322d:	29 c2                	sub    %eax,%edx
    322f:	c1 ea 0c             	shr    $0xc,%edx
    3232:	85 d2                	test   %edx,%edx
    3234:	0f 84 ca 00 00 00    	je     0x3304
    323a:	89 de                	mov    %ebx,%esi
    323c:	81 ce 00 00 00 80    	or     $0x80000000,%esi
    3242:	89 1e                	mov    %ebx,(%esi)
    3244:	89 56 04             	mov    %edx,0x4(%esi)
    3247:	c7 46 08 00 00 00 00 	movl   $0x0,0x8(%esi)
    324e:	c7 46 0c 00 00 00 00 	movl   $0x0,0xc(%esi)
    3255:	01 15 1c 05 50 00    	add    %edx,0x50051c
    325b:	8b 15 14 05 50 00    	mov    0x500514,%edx
    3261:	8b 1e                	mov    (%esi),%ebx
    3263:	8b 46 04             	mov    0x4(%esi),%eax
    3266:	85 d2                	test   %edx,%edx
    3268:	0f 84 34 01 00 00    	je     0x33a2
    326e:	8b 3a                	mov    (%edx),%edi
    3270:	c1 e0 0c             	shl    $0xc,%eax
    3273:	89 d1                	mov    %edx,%ecx
    3275:	8d 04 03             	lea    (%ebx,%eax,1),%eax
    3278:	39 f8                	cmp    %edi,%eax
    327a:	74 0f                	je     0x328b
    327c:	8d 74 26 00          	lea    0x0(%esi,%eiz,1),%esi
    3280:	8b 49 0c             	mov    0xc(%ecx),%ecx
    3283:	85 c9                	test   %ecx,%ecx
    3285:	74 04                	je     0x328b
    3287:	3b 01                	cmp    (%ecx),%eax
    3289:	75 f5                	jne    0x3280
    328b:	8b 42 04             	mov    0x4(%edx),%eax
    328e:	c1 e0 0c             	shl    $0xc,%eax
    3291:	01 c7                	add    %eax,%edi
    3293:	39 fb                	cmp    %edi,%ebx
    3295:	74 20                	je     0x32b7
    3297:	89 f6                	mov    %esi,%esi
    3299:	8d bc 27 00 00 00 00 	lea    0x0(%edi,%eiz,1),%edi
    32a0:	8b 52 0c             	mov    0xc(%edx),%edx
    32a3:	85 d2                	test   %edx,%edx
    32a5:	0f 84 f5 00 00 00    	je     0x33a0
    32ab:	8b 42 04             	mov    0x4(%edx),%eax
    32ae:	c1 e0 0c             	shl    $0xc,%eax
    32b1:	03 02                	add    (%edx),%eax
    32b3:	39 c3                	cmp    %eax,%ebx
    32b5:	75 e9                	jne    0x32a0
    32b7:	89 d0                	mov    %edx,%eax
    32b9:	89 ca                	mov    %ecx,%edx
    32bb:	85 d2                	test   %edx,%edx
    32bd:	74 3b                	je     0x32fa
    32bf:	8b 4a 04             	mov    0x4(%edx),%ecx
    32c2:	01 4e 04             	add    %ecx,0x4(%esi)
    32c5:	8b 1d 10 05 50 00    	mov    0x500510,%ebx
    32cb:	83 fb 01             	cmp    $0x1,%ebx
    32ce:	0f 84 0c 01 00 00    	je     0x33e0
    32d4:	8b 4a 08             	mov    0x8(%edx),%ecx
    32d7:	85 c9                	test   %ecx,%ecx
    32d9:	0f 84 c1 01 00 00    	je     0x34a0
    32df:	8b 7a 0c             	mov    0xc(%edx),%edi
    32e2:	85 ff                	test   %edi,%edi
    32e4:	0f 84 67 02 00 00    	je     0x3551
    32ea:	89 79 0c             	mov    %edi,0xc(%ecx)
    32ed:	8b 52 0c             	mov    0xc(%edx),%edx
    32f0:	83 2d 10 05 50 00 01 	subl   $0x1,0x500510
    32f7:	89 4a 08             	mov    %ecx,0x8(%edx)
    32fa:	85 c0                	test   %eax,%eax
    32fc:	74 06                	je     0x3304
    32fe:	8b 56 04             	mov    0x4(%esi),%edx
    3301:	01 50 04             	add    %edx,0x4(%eax)
    3304:	0f 20 d8             	mov    %cr3,%eax
    3307:	a3 20 05 50 00       	mov    %eax,0x500520
    330c:	83 c4 08             	add    $0x8,%esp
    330f:	5b                   	pop    %ebx
    3310:	5e                   	pop    %esi
    3311:	5f                   	pop    %edi
    3312:	5d                   	pop    %ebp
    3313:	c3                   	ret    
    3314:	8d b6 00 00 00 00    	lea    0x0(%esi),%esi
    331a:	8d bf 00 00 00 00    	lea    0x0(%edi),%edi
    3320:	89 f0                	mov    %esi,%eax
    3322:	8b 1d 10 05 50 00    	mov    0x500510,%ebx
    3328:	85 db                	test   %ebx,%ebx
    332a:	0f 85 b0 02 00 00    	jne    0x35e0
    3330:	c7 41 08 00 00 00 00 	movl   $0x0,0x8(%ecx)
    3337:	31 db                	xor    %ebx,%ebx
    3339:	c7 41 0c 00 00 00 00 	movl   $0x0,0xc(%ecx)
    3340:	89 0d 14 05 50 00    	mov    %ecx,0x500514
    3346:	89 0d 18 05 50 00    	mov    %ecx,0x500518
    334c:	83 05 10 05 50 00 01 	addl   $0x1,0x500510
    3353:	e9 63 fd ff ff       	jmp    0x30bb
    3358:	90                   	nop
    3359:	8d b4 26 00 00 00 00 	lea    0x0(%esi,%eiz,1),%esi
    3360:	89 f0                	mov    %esi,%eax
    3362:	8b 1d 10 05 50 00    	mov    0x500510,%ebx
    3368:	85 db                	test   %ebx,%ebx
    336a:	0f 85 10 02 00 00    	jne    0x3580
    3370:	c7 41 08 00 00 00 00 	movl   $0x0,0x8(%ecx)
    3377:	31 db                	xor    %ebx,%ebx
    3379:	c7 41 0c 00 00 00 00 	movl   $0x0,0xc(%ecx)
    3380:	89 0d 14 05 50 00    	mov    %ecx,0x500514
    3386:	89 0d 18 05 50 00    	mov    %ecx,0x500518
    338c:	83 05 10 05 50 00 01 	addl   $0x1,0x500510
    3393:	e9 23 fe ff ff       	jmp    0x31bb
    3398:	90                   	nop
    3399:	8d b4 26 00 00 00 00 	lea    0x0(%esi,%eiz,1),%esi
    33a0:	89 ca                	mov    %ecx,%edx
    33a2:	a1 10 05 50 00       	mov    0x500510,%eax
    33a7:	85 c0                	test   %eax,%eax
    33a9:	0f 85 01 02 00 00    	jne    0x35b0
    33af:	c7 46 08 00 00 00 00 	movl   $0x0,0x8(%esi)
    33b6:	31 c0                	xor    %eax,%eax
    33b8:	c7 46 0c 00 00 00 00 	movl   $0x0,0xc(%esi)
    33bf:	89 35 14 05 50 00    	mov    %esi,0x500514
    33c5:	89 35 18 05 50 00    	mov    %esi,0x500518
    33cb:	83 05 10 05 50 00 01 	addl   $0x1,0x500510
    33d2:	e9 e4 fe ff ff       	jmp    0x32bb
    33d7:	89 f6                	mov    %esi,%esi
    33d9:	8d bc 27 00 00 00 00 	lea    0x0(%edi,%eiz,1),%edi
    33e0:	c7 05 14 05 50 00 00 	movl   $0x0,0x500514
    33e7:	00 00 00 
    33ea:	c7 05 18 05 50 00 00 	movl   $0x0,0x500518
    33f1:	00 00 00 
    33f4:	c7 05 10 05 50 00 00 	movl   $0x0,0x500510
    33fb:	00 00 00 
    33fe:	e9 f7 fe ff ff       	jmp    0x32fa
    3403:	8d b6 00 00 00 00    	lea    0x0(%esi),%esi
    3409:	8d bc 27 00 00 00 00 	lea    0x0(%edi,%eiz,1),%edi
    3410:	c7 05 14 05 50 00 00 	movl   $0x0,0x500514
    3417:	00 00 00 
    341a:	c7 05 18 05 50 00 00 	movl   $0x0,0x500518
    3421:	00 00 00 
    3424:	c7 05 10 05 50 00 00 	movl   $0x0,0x500510
    342b:	00 00 00 
    342e:	e9 d0 fc ff ff       	jmp    0x3103
    3433:	8d b6 00 00 00 00    	lea    0x0(%esi),%esi
    3439:	8d bc 27 00 00 00 00 	lea    0x0(%edi,%eiz,1),%edi
    3440:	c7 05 14 05 50 00 00 	movl   $0x0,0x500514
    3447:	00 00 00 
    344a:	c7 05 18 05 50 00 00 	movl   $0x0,0x500518
    3451:	00 00 00 
    3454:	c7 05 10 05 50 00 00 	movl   $0x0,0x500510
    345b:	00 00 00 
    345e:	e9 a0 fd ff ff       	jmp    0x3203
    3463:	8d b6 00 00 00 00    	lea    0x0(%esi),%esi
    3469:	8d bc 27 00 00 00 00 	lea    0x0(%edi,%eiz,1),%edi
    3470:	8b 7d ec             	mov    -0x14(%ebp),%edi
    3473:	85 ff                	test   %edi,%edi
    3475:	0f 84 88 fd ff ff    	je     0x3203
    347b:	a1 14 05 50 00       	mov    0x500514,%eax
    3480:	8b 40 0c             	mov    0xc(%eax),%eax
    3483:	a3 14 05 50 00       	mov    %eax,0x500514
    3488:	c7 40 08 00 00 00 00 	movl   $0x0,0x8(%eax)
    348f:	83 2d 10 05 50 00 01 	subl   $0x1,0x500510
    3496:	e9 68 fd ff ff       	jmp    0x3203
    349b:	90                   	nop
    349c:	8d 74 26 00          	lea    0x0(%esi,%eiz,1),%esi
    34a0:	85 db                	test   %ebx,%ebx
    34a2:	0f 84 52 fe ff ff    	je     0x32fa
    34a8:	8b 15 14 05 50 00    	mov    0x500514,%edx
    34ae:	8b 52 0c             	mov    0xc(%edx),%edx
    34b1:	89 15 14 05 50 00    	mov    %edx,0x500514
    34b7:	c7 42 08 00 00 00 00 	movl   $0x0,0x8(%edx)
    34be:	83 2d 10 05 50 00 01 	subl   $0x1,0x500510
    34c5:	e9 30 fe ff ff       	jmp    0x32fa
    34ca:	8d b6 00 00 00 00    	lea    0x0(%esi),%esi
    34d0:	8b 7d ec             	mov    -0x14(%ebp),%edi
    34d3:	85 ff                	test   %edi,%edi
    34d5:	0f 84 28 fc ff ff    	je     0x3103
    34db:	a1 14 05 50 00       	mov    0x500514,%eax
    34e0:	8b 40 0c             	mov    0xc(%eax),%eax
    34e3:	a3 14 05 50 00       	mov    %eax,0x500514
    34e8:	c7 40 08 00 00 00 00 	movl   $0x0,0x8(%eax)
    34ef:	83 2d 10 05 50 00 01 	subl   $0x1,0x500510
    34f6:	e9 08 fc ff ff       	jmp    0x3103
    34fb:	8b 75 ec             	mov    -0x14(%ebp),%esi
    34fe:	85 f6                	test   %esi,%esi
    3500:	0f 84 fd fc ff ff    	je     0x3203
    3506:	a1 18 05 50 00       	mov    0x500518,%eax
    350b:	8b 40 08             	mov    0x8(%eax),%eax
    350e:	a3 18 05 50 00       	mov    %eax,0x500518
    3513:	c7 40 0c 00 00 00 00 	movl   $0x0,0xc(%eax)
    351a:	83 2d 10 05 50 00 01 	subl   $0x1,0x500510
    3521:	e9 dd fc ff ff       	jmp    0x3203
    3526:	8b 75 ec             	mov    -0x14(%ebp),%esi
    3529:	85 f6                	test   %esi,%esi
    352b:	0f 84 d2 fb ff ff    	je     0x3103
    3531:	a1 18 05 50 00       	mov    0x500518,%eax
    3536:	8b 40 08             	mov    0x8(%eax),%eax
    3539:	a3 18 05 50 00       	mov    %eax,0x500518
    353e:	c7 40 0c 00 00 00 00 	movl   $0x0,0xc(%eax)
    3545:	83 2d 10 05 50 00 01 	subl   $0x1,0x500510
    354c:	e9 b2 fb ff ff       	jmp    0x3103
    3551:	85 db                	test   %ebx,%ebx
    3553:	0f 84 a1 fd ff ff    	je     0x32fa
    3559:	8b 15 18 05 50 00    	mov    0x500518,%edx
    355f:	8b 52 08             	mov    0x8(%edx),%edx
    3562:	89 15 18 05 50 00    	mov    %edx,0x500518
    3568:	c7 42 0c 00 00 00 00 	movl   $0x0,0xc(%edx)
    356f:	83 2d 10 05 50 00 01 	subl   $0x1,0x500510
    3576:	e9 7f fd ff ff       	jmp    0x32fa
    357b:	90                   	nop
    357c:	8d 74 26 00          	lea    0x0(%esi,%eiz,1),%esi
    3580:	8b 1d 18 05 50 00    	mov    0x500518,%ebx
    3586:	89 4b 0c             	mov    %ecx,0xc(%ebx)
    3589:	8b 1d 18 05 50 00    	mov    0x500518,%ebx
    358f:	c7 41 0c 00 00 00 00 	movl   $0x0,0xc(%ecx)
    3596:	89 59 08             	mov    %ebx,0x8(%ecx)
    3599:	31 db                	xor    %ebx,%ebx
    359b:	89 0d 18 05 50 00    	mov    %ecx,0x500518
    35a1:	83 05 10 05 50 00 01 	addl   $0x1,0x500510
    35a8:	e9 0e fc ff ff       	jmp    0x31bb
    35ad:	8d 76 00             	lea    0x0(%esi),%esi
    35b0:	a1 18 05 50 00       	mov    0x500518,%eax
    35b5:	89 70 0c             	mov    %esi,0xc(%eax)
    35b8:	a1 18 05 50 00       	mov    0x500518,%eax
    35bd:	c7 46 0c 00 00 00 00 	movl   $0x0,0xc(%esi)
    35c4:	89 46 08             	mov    %eax,0x8(%esi)
    35c7:	31 c0                	xor    %eax,%eax
    35c9:	89 35 18 05 50 00    	mov    %esi,0x500518
    35cf:	83 05 10 05 50 00 01 	addl   $0x1,0x500510
    35d6:	e9 e0 fc ff ff       	jmp    0x32bb
    35db:	90                   	nop
    35dc:	8d 74 26 00          	lea    0x0(%esi,%eiz,1),%esi
    35e0:	8b 1d 18 05 50 00    	mov    0x500518,%ebx
    35e6:	89 4b 0c             	mov    %ecx,0xc(%ebx)
    35e9:	8b 1d 18 05 50 00    	mov    0x500518,%ebx
    35ef:	c7 41 0c 00 00 00 00 	movl   $0x0,0xc(%ecx)
    35f6:	89 59 08             	mov    %ebx,0x8(%ecx)
    35f9:	31 db                	xor    %ebx,%ebx
    35fb:	89 0d 18 05 50 00    	mov    %ecx,0x500518
    3601:	83 05 10 05 50 00 01 	addl   $0x1,0x500510
    3608:	e9 ae fa ff ff       	jmp    0x30bb
    360d:	90                   	nop
    360e:	90                   	nop
    360f:	90                   	nop
    3610:	55                   	push   %ebp
    3611:	89 e5                	mov    %esp,%ebp
    3613:	57                   	push   %edi
    3614:	56                   	push   %esi
    3615:	53                   	push   %ebx
    3616:	83 ec 2c             	sub    $0x2c,%esp
    3619:	9c                   	pushf  
    361a:	58                   	pop    %eax
    361b:	0d 00 00 20 00       	or     $0x200000,%eax
    3620:	50                   	push   %eax
    3621:	9d                   	popf   
    3622:	9c                   	pushf  
    3623:	58                   	pop    %eax
    3624:	a9 00 00 20 00       	test   $0x200000,%eax
    3629:	0f 84 c1 00 00 00    	je     0x36f0
    362f:	0f 20 e0             	mov    %cr4,%eax
    3632:	80 cc 01             	or     $0x1,%ah
    3635:	0f 22 e0             	mov    %eax,%cr4
    3638:	8b 3d 18 04 50 00    	mov    0x500418,%edi
    363e:	8b 77 20             	mov    0x20(%edi),%esi
    3641:	c1 ee 18             	shr    $0x18,%esi
    3644:	85 f6                	test   %esi,%esi
    3646:	75 25                	jne    0x366d
    3648:	8b 4d e3             	mov    -0x1d(%ebp),%ecx
    364b:	89 f0                	mov    %esi,%eax
    364d:	c6 45 e7 00          	movb   $0x0,-0x19(%ebp)
    3651:	0f a2                	cpuid  
    3653:	89 4d e3             	mov    %ecx,-0x1d(%ebp)
    3656:	31 c9                	xor    %ecx,%ecx
    3658:	85 c0                	test   %eax,%eax
    365a:	89 5d db             	mov    %ebx,-0x25(%ebp)
    365d:	89 55 df             	mov    %edx,-0x21(%ebp)
    3660:	0f 85 da 00 00 00    	jne    0x3740
    3666:	b8 0a 00 00 00       	mov    $0xa,%eax
    366b:	0f a2                	cpuid  
    366d:	fa                   	cli    
    366e:	c7 87 40 03 00 00 30 	movl   $0x30,0x340(%edi)
    3675:	00 00 00 
    3678:	8b 15 18 04 50 00    	mov    0x500418,%edx
    367e:	8b 42 20             	mov    0x20(%edx),%eax
    3681:	c1 e8 18             	shr    $0x18,%eax
    3684:	85 c0                	test   %eax,%eax
    3686:	74 48                	je     0x36d0
    3688:	8b 82 f0 00 00 00    	mov    0xf0(%edx),%eax
    368e:	c7 05 e0 04 50 00 d0 	movl   $0xacd0,0x5004e0
    3695:	ac 00 00 
    3698:	80 cc 01             	or     $0x1,%ah
    369b:	89 82 f0 00 00 00    	mov    %eax,0xf0(%edx)
    36a1:	fb                   	sti    
    36a2:	8b 15 18 04 50 00    	mov    0x500418,%edx
    36a8:	8b 82 40 03 00 00    	mov    0x340(%edx),%eax
    36ae:	25 ff ff fe ff       	and    $0xfffeffff,%eax
    36b3:	89 82 40 03 00 00    	mov    %eax,0x340(%edx)
    36b9:	83 c4 2c             	add    $0x2c,%esp
    36bc:	5b                   	pop    %ebx
    36bd:	5e                   	pop    %esi
    36be:	5f                   	pop    %edi
    36bf:	5d                   	pop    %ebp
    36c0:	c3                   	ret    
    36c1:	eb 0d                	jmp    0x36d0
    36c3:	90                   	nop
    36c4:	90                   	nop
    36c5:	90                   	nop
    36c6:	90                   	nop
    36c7:	90                   	nop
    36c8:	90                   	nop
    36c9:	90                   	nop
    36ca:	90                   	nop
    36cb:	90                   	nop
    36cc:	90                   	nop
    36cd:	90                   	nop
    36ce:	90                   	nop
    36cf:	90                   	nop
    36d0:	c7 04 85 2c 05 50 00 	movl   $0x0,0x50052c(,%eax,4)
    36d7:	00 00 00 00 
    36db:	83 c0 01             	add    $0x1,%eax
    36de:	83 f8 08             	cmp    $0x8,%eax
    36e1:	75 ed                	jne    0x36d0
    36e3:	eb a3                	jmp    0x3688
    36e5:	8d 74 26 00          	lea    0x0(%esi,%eiz,1),%esi
    36e9:	8d bc 27 00 00 00 00 	lea    0x0(%edi,%eiz,1),%edi
    36f0:	e8 db f0 ff ff       	call   0x27d0
    36f5:	c7 04 24 f0 af 00 00 	movl   $0xaff0,(%esp)
    36fc:	e8 7f ee ff ff       	call   0x2580
    3701:	0f b6 05 44 02 50 00 	movzbl 0x500244,%eax
    3708:	0f b6 c0             	movzbl %al,%eax
    370b:	89 04 24             	mov    %eax,(%esp)
    370e:	e8 0d f2 ff ff       	call   0x2920
    3713:	c7 04 24 a7 b1 00 00 	movl   $0xb1a7,(%esp)
    371a:	e8 61 ee ff ff       	call   0x2580
    371f:	c7 05 40 02 50 00 0a 	movl   $0xa,0x500240
    3726:	00 00 00 
    3729:	83 c4 2c             	add    $0x2c,%esp
    372c:	5b                   	pop    %ebx
    372d:	5e                   	pop    %esi
    372e:	5f                   	pop    %edi
    372f:	5d                   	pop    %ebp
    3730:	c3                   	ret    
    3731:	eb 0d                	jmp    0x3740
    3733:	90                   	nop
    3734:	90                   	nop
    3735:	90                   	nop
    3736:	90                   	nop
    3737:	90                   	nop
    3738:	90                   	nop
    3739:	90                   	nop
    373a:	90                   	nop
    373b:	90                   	nop
    373c:	90                   	nop
    373d:	90                   	nop
    373e:	90                   	nop
    373f:	90                   	nop
    3740:	b8 01 00 00 00       	mov    $0x1,%eax
    3745:	89 f1                	mov    %esi,%ecx
    3747:	0f a2                	cpuid  
    3749:	e9 18 ff ff ff       	jmp    0x3666
    374e:	90                   	nop
    374f:	90                   	nop
    3750:	55                   	push   %ebp
    3751:	89 e5                	mov    %esp,%ebp
    3753:	83 ec 08             	sub    $0x8,%esp
    3756:	e8 75 0e 00 00       	call   0x45d0
    375b:	e8 10 00 00 00       	call   0x3770
    3760:	c9                   	leave  
    3761:	e9 8a 00 00 00       	jmp    0x37f0
    3766:	90                   	nop
    3767:	90                   	nop
    3768:	90                   	nop
    3769:	90                   	nop
    376a:	90                   	nop
    376b:	90                   	nop
    376c:	90                   	nop
    376d:	90                   	nop
    376e:	90                   	nop
    376f:	90                   	nop
    3770:	55                   	push   %ebp
    3771:	89 e5                	mov    %esp,%ebp
    3773:	53                   	push   %ebx
    3774:	83 ec 14             	sub    $0x14,%esp
    3777:	a1 e0 00 40 00       	mov    0x4000e0,%eax
    377c:	8b 40 60             	mov    0x60(%eax),%eax
    377f:	a3 f0 04 50 00       	mov    %eax,0x5004f0
    3784:	fa                   	cli    
    3785:	b8 01 00 00 00       	mov    $0x1,%eax
    378a:	ba fb 0c 00 00       	mov    $0xcfb,%edx
    378f:	ee                   	out    %al,(%dx)
    3790:	b2 f8                	mov    $0xf8,%dl
    3792:	ed                   	in     (%dx),%eax
    3793:	89 c3                	mov    %eax,%ebx
    3795:	b8 00 00 00 80       	mov    $0x80000000,%eax
    379a:	ef                   	out    %eax,(%dx)
    379b:	ed                   	in     (%dx),%eax
    379c:	3d 00 00 00 80       	cmp    $0x80000000,%eax
    37a1:	74 39                	je     0x37dc
    37a3:	e8 28 f0 ff ff       	call   0x27d0
    37a8:	c7 04 24 2f b0 00 00 	movl   $0xb02f,(%esp)
    37af:	e8 cc ed ff ff       	call   0x2580
    37b4:	0f b6 05 44 02 50 00 	movzbl 0x500244,%eax
    37bb:	0f b6 c0             	movzbl %al,%eax
    37be:	89 04 24             	mov    %eax,(%esp)
    37c1:	e8 5a f1 ff ff       	call   0x2920
    37c6:	c7 04 24 a7 b1 00 00 	movl   $0xb1a7,(%esp)
    37cd:	e8 ae ed ff ff       	call   0x2580
    37d2:	c7 05 40 02 50 00 0a 	movl   $0xa,0x500240
    37d9:	00 00 00 
    37dc:	ba f8 0c 00 00       	mov    $0xcf8,%edx
    37e1:	89 d8                	mov    %ebx,%eax
    37e3:	ef                   	out    %eax,(%dx)
    37e4:	fb                   	sti    
    37e5:	83 c4 14             	add    $0x14,%esp
    37e8:	5b                   	pop    %ebx
    37e9:	5d                   	pop    %ebp
    37ea:	c3                   	ret    
    37eb:	90                   	nop
    37ec:	90                   	nop
    37ed:	90                   	nop
    37ee:	90                   	nop
    37ef:	90                   	nop
    37f0:	55                   	push   %ebp
    37f1:	89 e5                	mov    %esp,%ebp
    37f3:	fa                   	cli    
    37f4:	a1 0c 05 50 00       	mov    0x50050c,%eax
    37f9:	ba d3 4d 62 10       	mov    $0x10624dd3,%edx
    37fe:	c7 05 a0 04 50 00 c0 	movl   $0x9ec0,0x5004a0
    3805:	9e 00 00 
    3808:	f7 e2                	mul    %edx
    380a:	a1 18 04 50 00       	mov    0x500418,%eax
    380f:	c1 ea 0a             	shr    $0xa,%edx
    3812:	89 90 80 03 00 00    	mov    %edx,0x380(%eax)
    3818:	a1 18 04 50 00       	mov    0x500418,%eax
    381d:	c7 80 e0 03 00 00 0a 	movl   $0xa,0x3e0(%eax)
    3824:	00 00 00 
    3827:	8b 15 18 04 50 00    	mov    0x500418,%edx
    382d:	8b 82 f0 00 00 00    	mov    0xf0(%edx),%eax
    3833:	80 e4 fe             	and    $0xfe,%ah
    3836:	89 82 f0 00 00 00    	mov    %eax,0xf0(%edx)
    383c:	a1 18 04 50 00       	mov    0x500418,%eax
    3841:	8b 90 80 03 00 00    	mov    0x380(%eax),%edx
    3847:	89 90 90 03 00 00    	mov    %edx,0x390(%eax)
    384d:	8b 15 18 04 50 00    	mov    0x500418,%edx
    3853:	8b 82 f0 00 00 00    	mov    0xf0(%edx),%eax
    3859:	80 cc 01             	or     $0x1,%ah
    385c:	89 82 f0 00 00 00    	mov    %eax,0xf0(%edx)
    3862:	a1 18 04 50 00       	mov    0x500418,%eax
    3867:	c7 80 20 03 00 00 20 	movl   $0x20020,0x320(%eax)
    386e:	00 02 00 
    3871:	8b 15 18 04 50 00    	mov    0x500418,%edx
    3877:	8b 82 f0 00 00 00    	mov    0xf0(%edx),%eax
    387d:	80 cc 01             	or     $0x1,%ah
    3880:	89 82 f0 00 00 00    	mov    %eax,0xf0(%edx)
    3886:	fb                   	sti    
    3887:	5d                   	pop    %ebp
    3888:	c3                   	ret    
    3889:	90                   	nop
    388a:	90                   	nop
    388b:	90                   	nop
    388c:	90                   	nop
    388d:	90                   	nop
    388e:	90                   	nop
    388f:	90                   	nop
    3890:	55                   	push   %ebp
    3891:	89 e5                	mov    %esp,%ebp
    3893:	83 ec 08             	sub    $0x8,%esp
    3896:	e8 85 0e 00 00       	call   0x4720
    389b:	c9                   	leave  
    389c:	e9 0f 00 00 00       	jmp    0x38b0
    38a1:	90                   	nop
    38a2:	90                   	nop
    38a3:	90                   	nop
    38a4:	90                   	nop
    38a5:	90                   	nop
    38a6:	90                   	nop
    38a7:	90                   	nop
    38a8:	90                   	nop
    38a9:	90                   	nop
    38aa:	90                   	nop
    38ab:	90                   	nop
    38ac:	90                   	nop
    38ad:	90                   	nop
    38ae:	90                   	nop
    38af:	90                   	nop
    38b0:	55                   	push   %ebp
    38b1:	89 e5                	mov    %esp,%ebp
    38b3:	57                   	push   %edi
    38b4:	56                   	push   %esi
    38b5:	53                   	push   %ebx
    38b6:	81 ec ac 00 00 00    	sub    $0xac,%esp
    38bc:	a1 18 04 50 00       	mov    0x500418,%eax
    38c1:	8b 50 20             	mov    0x20(%eax),%edx
    38c4:	8d 48 20             	lea    0x20(%eax),%ecx
    38c7:	c1 ea 18             	shr    $0x18,%edx
    38ca:	85 d2                	test   %edx,%edx
    38cc:	0f 84 be 0a 00 00    	je     0x4390
    38d2:	8b 11                	mov    (%ecx),%edx
    38d4:	c1 ea 18             	shr    $0x18,%edx
    38d7:	85 d2                	test   %edx,%edx
    38d9:	0f 84 b1 08 00 00    	je     0x4190
    38df:	8b 11                	mov    (%ecx),%edx
    38e1:	c1 ea 18             	shr    $0x18,%edx
    38e4:	85 d2                	test   %edx,%edx
    38e6:	75 0a                	jne    0x38f2
    38e8:	c7 05 e4 04 50 00 e0 	movl   $0x80e0,0x5004e4
    38ef:	80 00 00 
    38f2:	8b 90 f0 00 00 00    	mov    0xf0(%eax),%edx
    38f8:	80 ce 01             	or     $0x1,%dh
    38fb:	89 90 f0 00 00 00    	mov    %edx,0xf0(%eax)
    3901:	a1 18 04 50 00       	mov    0x500418,%eax
    3906:	8b 40 20             	mov    0x20(%eax),%eax
    3909:	c1 e8 18             	shr    $0x18,%eax
    390c:	85 c0                	test   %eax,%eax
    390e:	0f 85 3d 03 00 00    	jne    0x3c51
    3914:	8d b6 00 00 00 00    	lea    0x0(%esi),%esi
    391a:	8d bf 00 00 00 00    	lea    0x0(%edi),%edi
    3920:	c7 04 85 20 03 50 00 	movl   $0x8,0x500320(,%eax,4)
    3927:	08 00 00 00 
    392b:	c7 04 85 40 03 50 00 	movl   $0x0,0x500340(,%eax,4)
    3932:	00 00 00 00 
    3936:	83 c0 01             	add    $0x1,%eax
    3939:	83 f8 08             	cmp    $0x8,%eax
    393c:	75 e2                	jne    0x3920
    393e:	c6 05 00 03 50 00 01 	movb   $0x1,0x500300
    3945:	8b 1d 58 02 50 00    	mov    0x500258,%ebx
    394b:	e8 50 ef ff ff       	call   0x28a0
    3950:	8b 43 04             	mov    0x4(%ebx),%eax
    3953:	85 c0                	test   %eax,%eax
    3955:	74 1a                	je     0x3971
    3957:	8b 50 04             	mov    0x4(%eax),%edx
    395a:	81 fa 13 80 2c 03    	cmp    $0x32c8013,%edx
    3960:	77 1e                	ja     0x3980
    3962:	81 fa 04 80 2c 03    	cmp    $0x32c8004,%edx
    3968:	74 16                	je     0x3980
    396a:	8b 40 0c             	mov    0xc(%eax),%eax
    396d:	85 c0                	test   %eax,%eax
    396f:	75 e6                	jne    0x3957
    3971:	89 1c 24             	mov    %ebx,(%esp)
    3974:	31 f6                	xor    %esi,%esi
    3976:	e8 55 f0 ff ff       	call   0x29d0
    397b:	eb 5e                	jmp    0x39db
    397d:	8d 76 00             	lea    0x0(%esi),%esi
    3980:	81 ea 04 80 2c 03    	sub    $0x32c8004,%edx
    3986:	89 50 04             	mov    %edx,0x4(%eax)
    3989:	81 6b 0c 04 80 2c 03 	subl   $0x32c8004,0xc(%ebx)
    3990:	8b 50 04             	mov    0x4(%eax),%edx
    3993:	85 d2                	test   %edx,%edx
    3995:	75 39                	jne    0x39d0
    3997:	8b 33                	mov    (%ebx),%esi
    3999:	83 fe 01             	cmp    $0x1,%esi
    399c:	0f 84 0e 0b 00 00    	je     0x44b0
    39a2:	8b 48 08             	mov    0x8(%eax),%ecx
    39a5:	85 c9                	test   %ecx,%ecx
    39a7:	0f 84 6e 0b 00 00    	je     0x451b
    39ad:	8b 78 0c             	mov    0xc(%eax),%edi
    39b0:	85 ff                	test   %edi,%edi
    39b2:	0f 84 86 0b 00 00    	je     0x453e
    39b8:	89 79 0c             	mov    %edi,0xc(%ecx)
    39bb:	8b 50 0c             	mov    0xc(%eax),%edx
    39be:	83 2b 01             	subl   $0x1,(%ebx)
    39c1:	89 4a 08             	mov    %ecx,0x8(%edx)
    39c4:	8b 50 04             	mov    0x4(%eax),%edx
    39c7:	89 f6                	mov    %esi,%esi
    39c9:	8d bc 27 00 00 00 00 	lea    0x0(%edi,%eiz,1),%edi
    39d0:	03 10                	add    (%eax),%edx
    39d2:	c7 02 04 80 2c 03    	movl   $0x32c8004,(%edx)
    39d8:	8d 72 04             	lea    0x4(%edx),%esi
    39db:	e8 70 ee ff ff       	call   0x2850
    39e0:	8b 1d 58 02 50 00    	mov    0x500258,%ebx
    39e6:	e8 b5 ee ff ff       	call   0x28a0
    39eb:	8b 43 04             	mov    0x4(%ebx),%eax
    39ee:	85 c0                	test   %eax,%eax
    39f0:	74 1a                	je     0x3a0c
    39f2:	8b 50 04             	mov    0x4(%eax),%edx
    39f5:	81 fa e3 00 00 00    	cmp    $0xe3,%edx
    39fb:	77 23                	ja     0x3a20
    39fd:	81 fa d4 00 00 00    	cmp    $0xd4,%edx
    3a03:	74 1b                	je     0x3a20
    3a05:	8b 40 0c             	mov    0xc(%eax),%eax
    3a08:	85 c0                	test   %eax,%eax
    3a0a:	75 e6                	jne    0x39f2
    3a0c:	89 1c 24             	mov    %ebx,(%esp)
    3a0f:	31 db                	xor    %ebx,%ebx
    3a11:	e8 ba ef ff ff       	call   0x29d0
    3a16:	eb 73                	jmp    0x3a8b
    3a18:	90                   	nop
    3a19:	8d b4 26 00 00 00 00 	lea    0x0(%esi,%eiz,1),%esi
    3a20:	81 ea d4 00 00 00    	sub    $0xd4,%edx
    3a26:	89 50 04             	mov    %edx,0x4(%eax)
    3a29:	81 6b 0c d4 00 00 00 	subl   $0xd4,0xc(%ebx)
    3a30:	8b 50 04             	mov    0x4(%eax),%edx
    3a33:	85 d2                	test   %edx,%edx
    3a35:	75 49                	jne    0x3a80
    3a37:	8b 0b                	mov    (%ebx),%ecx
    3a39:	83 f9 01             	cmp    $0x1,%ecx
    3a3c:	89 8d 68 ff ff ff    	mov    %ecx,-0x98(%ebp)
    3a42:	0f 84 48 0a 00 00    	je     0x4490
    3a48:	8b 48 08             	mov    0x8(%eax),%ecx
    3a4b:	85 c9                	test   %ecx,%ecx
    3a4d:	0f 84 a0 0a 00 00    	je     0x44f3
    3a53:	8b 78 0c             	mov    0xc(%eax),%edi
    3a56:	85 ff                	test   %edi,%edi
    3a58:	89 bd 70 ff ff ff    	mov    %edi,-0x90(%ebp)
    3a5e:	0f 84 fd 0a 00 00    	je     0x4561
    3a64:	8b 95 70 ff ff ff    	mov    -0x90(%ebp),%edx
    3a6a:	89 51 0c             	mov    %edx,0xc(%ecx)
    3a6d:	8b 50 0c             	mov    0xc(%eax),%edx
    3a70:	83 2b 01             	subl   $0x1,(%ebx)
    3a73:	89 4a 08             	mov    %ecx,0x8(%edx)
    3a76:	8b 50 04             	mov    0x4(%eax),%edx
    3a79:	8d b4 26 00 00 00 00 	lea    0x0(%esi,%eiz,1),%esi
    3a80:	03 10                	add    (%eax),%edx
    3a82:	c7 02 d4 00 00 00    	movl   $0xd4,(%edx)
    3a88:	8d 5a 04             	lea    0x4(%edx),%ebx
    3a8b:	e8 c0 ed ff ff       	call   0x2850
    3a90:	89 da                	mov    %ebx,%edx
    3a92:	31 c0                	xor    %eax,%eax
    3a94:	c7 43 44 00 fa 00 00 	movl   $0xfa00,0x44(%ebx)
    3a9b:	90                   	nop
    3a9c:	8d 74 26 00          	lea    0x0(%esi,%eiz,1),%esi
    3aa0:	89 42 24             	mov    %eax,0x24(%edx)
    3aa3:	89 42 04             	mov    %eax,0x4(%edx)
    3aa6:	05 00 fa 00 00       	add    $0xfa00,%eax
    3aab:	c7 42 48 00 00 00 00 	movl   $0x0,0x48(%edx)
    3ab2:	83 c2 04             	add    $0x4,%edx
    3ab5:	3d 00 d0 07 00       	cmp    $0x7d000,%eax
    3aba:	75 e4                	jne    0x3aa0
    3abc:	89 33                	mov    %esi,(%ebx)
    3abe:	8d 75 b8             	lea    -0x48(%ebp),%esi
    3ac1:	89 34 24             	mov    %esi,(%esp)
    3ac4:	e8 b7 61 00 00       	call   0x9c80
    3ac9:	83 ec 04             	sub    $0x4,%esp
    3acc:	89 34 24             	mov    %esi,(%esp)
    3acf:	c7 44 24 04 8b fa 0a 	movl   $0xafa8b,0x4(%esp)
    3ad6:	00 
    3ad7:	e8 44 54 00 00       	call   0x8f20
    3adc:	89 c6                	mov    %eax,%esi
    3ade:	b8 40 42 0f 00       	mov    $0xf4240,%eax
    3ae3:	69 ca 40 42 0f 00    	imul   $0xf4240,%edx,%ecx
    3ae9:	f7 e6                	mul    %esi
    3aeb:	01 ca                	add    %ecx,%edx
    3aed:	89 95 74 ff ff ff    	mov    %edx,-0x8c(%ebp)
    3af3:	8b 8d 74 ff ff ff    	mov    -0x8c(%ebp),%ecx
    3af9:	89 85 70 ff ff ff    	mov    %eax,-0x90(%ebp)
    3aff:	8b 95 70 ff ff ff    	mov    -0x90(%ebp),%edx
    3b05:	89 cf                	mov    %ecx,%edi
    3b07:	89 d6                	mov    %edx,%esi
    3b09:	81 c6 00 a3 e1 11    	add    $0x11e1a300,%esi
    3b0f:	83 d7 00             	adc    $0x0,%edi
    3b12:	89 53 68             	mov    %edx,0x68(%ebx)
    3b15:	89 4b 6c             	mov    %ecx,0x6c(%ebx)
    3b18:	89 73 70             	mov    %esi,0x70(%ebx)
    3b1b:	89 7b 74             	mov    %edi,0x74(%ebx)
    3b1e:	0f 31                	rdtsc  
    3b20:	89 85 68 ff ff ff    	mov    %eax,-0x98(%ebp)
    3b26:	69 ca 40 42 0f 00    	imul   $0xf4240,%edx,%ecx
    3b2c:	b8 40 42 0f 00       	mov    $0xf4240,%eax
    3b31:	f7 a5 68 ff ff ff    	mull   -0x98(%ebp)
    3b37:	c7 44 24 0c 00 00 00 	movl   $0x0,0xc(%esp)
    3b3e:	00 
    3b3f:	01 ca                	add    %ecx,%edx
    3b41:	89 95 6c ff ff ff    	mov    %edx,-0x94(%ebp)
    3b47:	8b 15 08 05 50 00    	mov    0x500508,%edx
    3b4d:	8b bd 6c ff ff ff    	mov    -0x94(%ebp),%edi
    3b53:	89 85 68 ff ff ff    	mov    %eax,-0x98(%ebp)
    3b59:	8b b5 68 ff ff ff    	mov    -0x98(%ebp),%esi
    3b5f:	89 54 24 08          	mov    %edx,0x8(%esp)
    3b63:	89 7c 24 04          	mov    %edi,0x4(%esp)
    3b67:	89 34 24             	mov    %esi,(%esp)
    3b6a:	e8 69 71 00 00       	call   0xacd8
    3b6f:	8b b5 70 ff ff ff    	mov    -0x90(%ebp),%esi
    3b75:	8b bd 74 ff ff ff    	mov    -0x8c(%ebp),%edi
    3b7b:	29 c6                	sub    %eax,%esi
    3b7d:	19 d7                	sbb    %edx,%edi
    3b7f:	89 b3 80 00 00 00    	mov    %esi,0x80(%ebx)
    3b85:	89 bb 84 00 00 00    	mov    %edi,0x84(%ebx)
    3b8b:	a1 f4 04 50 00       	mov    0x5004f4,%eax
    3b90:	0f b6 50 18          	movzbl 0x18(%eax),%edx
    3b94:	88 53 78             	mov    %dl,0x78(%ebx)
    3b97:	0f b6 50 19          	movzbl 0x19(%eax),%edx
    3b9b:	88 53 79             	mov    %dl,0x79(%ebx)
    3b9e:	0f b6 50 1a          	movzbl 0x1a(%eax),%edx
    3ba2:	88 53 7a             	mov    %dl,0x7a(%ebx)
    3ba5:	0f b6 50 1b          	movzbl 0x1b(%eax),%edx
    3ba9:	88 53 7b             	mov    %dl,0x7b(%ebx)
    3bac:	0f b6 50 1c          	movzbl 0x1c(%eax),%edx
    3bb0:	88 53 7c             	mov    %dl,0x7c(%ebx)
    3bb3:	0f b6 40 1d          	movzbl 0x1d(%eax),%eax
    3bb7:	88 43 7d             	mov    %al,0x7d(%ebx)
    3bba:	31 c0                	xor    %eax,%eax
    3bbc:	8d 74 26 00          	lea    0x0(%esi,%eiz,1),%esi
    3bc0:	83 c0 01             	add    $0x1,%eax
    3bc3:	89 c2                	mov    %eax,%edx
    3bc5:	c1 e2 10             	shl    $0x10,%edx
    3bc8:	83 ca 08             	or     $0x8,%edx
    3bcb:	83 f8 08             	cmp    $0x8,%eax
    3bce:	89 94 83 84 00 00 00 	mov    %edx,0x84(%ebx,%eax,4)
    3bd5:	75 e9                	jne    0x3bc0
    3bd7:	c7 83 a8 00 00 00 08 	movl   $0x230008,0xa8(%ebx)
    3bde:	00 23 00 
    3be1:	c7 83 ac 00 00 00 08 	movl   $0x970008,0xac(%ebx)
    3be8:	00 97 00 
    3beb:	c7 83 b0 00 00 00 08 	movl   $0xb50008,0xb0(%ebx)
    3bf2:	00 b5 00 
    3bf5:	c7 83 b4 00 00 00 08 	movl   $0x210008,0xb4(%ebx)
    3bfc:	00 21 00 
    3bff:	c7 83 b8 00 00 00 5e 	movl   $0x392b5e,0xb8(%ebx)
    3c06:	2b 39 00 
    3c09:	c7 83 bc 00 00 00 e8 	movl   $0xffbf56e8,0xbc(%ebx)
    3c10:	56 bf ff 
    3c13:	c7 83 c0 00 00 00 99 	movl   $0xfffb8499,0xc0(%ebx)
    3c1a:	84 fb ff 
    3c1d:	c7 83 c4 00 00 00 00 	movl   $0x0,0xc4(%ebx)
    3c24:	00 00 00 
    3c27:	c7 83 c8 00 00 00 00 	movl   $0x0,0xc8(%ebx)
    3c2e:	00 00 00 
    3c31:	c7 83 cc 00 00 00 01 	movl   $0x1,0xcc(%ebx)
    3c38:	00 00 00 
    3c3b:	89 1c 24             	mov    %ebx,(%esp)
    3c3e:	e8 6d 6e 00 00       	call   0xaab0
    3c43:	89 1c 24             	mov    %ebx,(%esp)
    3c46:	e8 05 64 00 00       	call   0xa050
    3c4b:	89 1d 88 02 50 00    	mov    %ebx,0x500288
    3c51:	b9 90 03 00 00       	mov    $0x390,%ecx
    3c56:	0f 32                	rdmsr  
    3c58:	83 ca 01             	or     $0x1,%edx
    3c5b:	89 85 70 ff ff ff    	mov    %eax,-0x90(%ebp)
    3c61:	8b 85 70 ff ff ff    	mov    -0x90(%ebp),%eax
    3c67:	89 95 74 ff ff ff    	mov    %edx,-0x8c(%ebp)
    3c6d:	8b 95 74 ff ff ff    	mov    -0x8c(%ebp),%edx
    3c73:	0f 30                	wrmsr  
    3c75:	be 8d 03 00 00       	mov    $0x38d,%esi
    3c7a:	89 f1                	mov    %esi,%ecx
    3c7c:	0f 32                	rdmsr  
    3c7e:	83 e0 fc             	and    $0xfffffffc,%eax
    3c81:	89 85 70 ff ff ff    	mov    %eax,-0x90(%ebp)
    3c87:	8b 85 70 ff ff ff    	mov    -0x90(%ebp),%eax
    3c8d:	89 95 74 ff ff ff    	mov    %edx,-0x8c(%ebp)
    3c93:	8b 95 74 ff ff ff    	mov    -0x8c(%ebp),%edx
    3c99:	0f 30                	wrmsr  
    3c9b:	b1 90                	mov    $0x90,%cl
    3c9d:	0f 32                	rdmsr  
    3c9f:	83 ca 02             	or     $0x2,%edx
    3ca2:	89 85 70 ff ff ff    	mov    %eax,-0x90(%ebp)
    3ca8:	8b 85 70 ff ff ff    	mov    -0x90(%ebp),%eax
    3cae:	89 95 74 ff ff ff    	mov    %edx,-0x8c(%ebp)
    3cb4:	8b 95 74 ff ff ff    	mov    -0x8c(%ebp),%edx
    3cba:	0f 30                	wrmsr  
    3cbc:	89 f1                	mov    %esi,%ecx
    3cbe:	0f 32                	rdmsr  
    3cc0:	83 e0 cf             	and    $0xffffffcf,%eax
    3cc3:	89 85 70 ff ff ff    	mov    %eax,-0x90(%ebp)
    3cc9:	8b 85 70 ff ff ff    	mov    -0x90(%ebp),%eax
    3ccf:	89 95 74 ff ff ff    	mov    %edx,-0x8c(%ebp)
    3cd5:	8b 95 74 ff ff ff    	mov    -0x8c(%ebp),%edx
    3cdb:	0f 30                	wrmsr  
    3cdd:	b1 90                	mov    $0x90,%cl
    3cdf:	0f 32                	rdmsr  
    3ce1:	83 ca 04             	or     $0x4,%edx
    3ce4:	89 85 70 ff ff ff    	mov    %eax,-0x90(%ebp)
    3cea:	8b 85 70 ff ff ff    	mov    -0x90(%ebp),%eax
    3cf0:	89 95 74 ff ff ff    	mov    %edx,-0x8c(%ebp)
    3cf6:	8b 95 74 ff ff ff    	mov    -0x8c(%ebp),%edx
    3cfc:	0f 30                	wrmsr  
    3cfe:	89 f1                	mov    %esi,%ecx
    3d00:	0f 32                	rdmsr  
    3d02:	80 e4 fc             	and    $0xfc,%ah
    3d05:	89 85 70 ff ff ff    	mov    %eax,-0x90(%ebp)
    3d0b:	8b 85 70 ff ff ff    	mov    -0x90(%ebp),%eax
    3d11:	89 95 74 ff ff ff    	mov    %edx,-0x8c(%ebp)
    3d17:	8b 95 74 ff ff ff    	mov    -0x8c(%ebp),%edx
    3d1d:	0f 30                	wrmsr  
    3d1f:	b1 8f                	mov    $0x8f,%cl
    3d21:	0f 32                	rdmsr  
    3d23:	83 e0 fe             	and    $0xfffffffe,%eax
    3d26:	89 85 70 ff ff ff    	mov    %eax,-0x90(%ebp)
    3d2c:	8b 85 70 ff ff ff    	mov    -0x90(%ebp),%eax
    3d32:	89 95 74 ff ff ff    	mov    %edx,-0x8c(%ebp)
    3d38:	8b 95 74 ff ff ff    	mov    -0x8c(%ebp),%edx
    3d3e:	0f 30                	wrmsr  
    3d40:	0f 32                	rdmsr  
    3d42:	83 e0 fd             	and    $0xfffffffd,%eax
    3d45:	89 85 70 ff ff ff    	mov    %eax,-0x90(%ebp)
    3d4b:	8b 85 70 ff ff ff    	mov    -0x90(%ebp),%eax
    3d51:	89 95 74 ff ff ff    	mov    %edx,-0x8c(%ebp)
    3d57:	8b 95 74 ff ff ff    	mov    -0x8c(%ebp),%edx
    3d5d:	0f 30                	wrmsr  
    3d5f:	0f 32                	rdmsr  
    3d61:	83 e0 fb             	and    $0xfffffffb,%eax
    3d64:	89 85 70 ff ff ff    	mov    %eax,-0x90(%ebp)
    3d6a:	89 95 74 ff ff ff    	mov    %edx,-0x8c(%ebp)
    3d70:	8b 85 70 ff ff ff    	mov    -0x90(%ebp),%eax
    3d76:	8b 95 74 ff ff ff    	mov    -0x8c(%ebp),%edx
    3d7c:	0f 30                	wrmsr  
    3d7e:	0f 32                	rdmsr  
    3d80:	83 e0 f7             	and    $0xfffffff7,%eax
    3d83:	89 85 70 ff ff ff    	mov    %eax,-0x90(%ebp)
    3d89:	8b 85 70 ff ff ff    	mov    -0x90(%ebp),%eax
    3d8f:	89 95 74 ff ff ff    	mov    %edx,-0x8c(%ebp)
    3d95:	8b 95 74 ff ff ff    	mov    -0x8c(%ebp),%edx
    3d9b:	0f 30                	wrmsr  
    3d9d:	31 c0                	xor    %eax,%eax
    3d9f:	b1 09                	mov    $0x9,%cl
    3da1:	31 d2                	xor    %edx,%edx
    3da3:	0f 30                	wrmsr  
    3da5:	b1 0a                	mov    $0xa,%cl
    3da7:	0f 30                	wrmsr  
    3da9:	b1 0b                	mov    $0xb,%cl
    3dab:	0f 30                	wrmsr  
    3dad:	bb 86 01 00 00       	mov    $0x186,%ebx
    3db2:	89 d9                	mov    %ebx,%ecx
    3db4:	0f 30                	wrmsr  
    3db6:	bf 87 01 00 00       	mov    $0x187,%edi
    3dbb:	89 f9                	mov    %edi,%ecx
    3dbd:	0f 30                	wrmsr  
    3dbf:	b1 88                	mov    $0x88,%cl
    3dc1:	0f 30                	wrmsr  
    3dc3:	b1 89                	mov    $0x89,%cl
    3dc5:	0f 30                	wrmsr  
    3dc7:	66 b9 c1 00          	mov    $0xc1,%cx
    3dcb:	0f 30                	wrmsr  
    3dcd:	b1 c2                	mov    $0xc2,%cl
    3dcf:	0f 30                	wrmsr  
    3dd1:	b1 c3                	mov    $0xc3,%cl
    3dd3:	0f 30                	wrmsr  
    3dd5:	b1 c4                	mov    $0xc4,%cl
    3dd7:	0f 30                	wrmsr  
    3dd9:	8b 0d 28 b3 00 00    	mov    0xb328,%ecx
    3ddf:	c7 85 74 ff ff ff 00 	movl   $0x0,-0x8c(%ebp)
    3de6:	00 00 00 
    3de9:	8b 95 74 ff ff ff    	mov    -0x8c(%ebp),%edx
    3def:	81 c9 00 00 43 00    	or     $0x430000,%ecx
    3df5:	89 8d 70 ff ff ff    	mov    %ecx,-0x90(%ebp)
    3dfb:	89 d9                	mov    %ebx,%ecx
    3dfd:	8b 85 70 ff ff ff    	mov    -0x90(%ebp),%eax
    3e03:	0f 30                	wrmsr  
    3e05:	66 b9 90 03          	mov    $0x390,%cx
    3e09:	0f 32                	rdmsr  
    3e0b:	83 c8 01             	or     $0x1,%eax
    3e0e:	89 85 70 ff ff ff    	mov    %eax,-0x90(%ebp)
    3e14:	8b 85 70 ff ff ff    	mov    -0x90(%ebp),%eax
    3e1a:	89 95 74 ff ff ff    	mov    %edx,-0x8c(%ebp)
    3e20:	8b 95 74 ff ff ff    	mov    -0x8c(%ebp),%edx
    3e26:	0f 30                	wrmsr  
    3e28:	b1 8f                	mov    $0x8f,%cl
    3e2a:	0f 32                	rdmsr  
    3e2c:	83 c8 01             	or     $0x1,%eax
    3e2f:	89 85 70 ff ff ff    	mov    %eax,-0x90(%ebp)
    3e35:	8b 85 70 ff ff ff    	mov    -0x90(%ebp),%eax
    3e3b:	89 95 74 ff ff ff    	mov    %edx,-0x8c(%ebp)
    3e41:	8b 95 74 ff ff ff    	mov    -0x8c(%ebp),%edx
    3e47:	0f 30                	wrmsr  
    3e49:	8b 0d f8 b4 00 00    	mov    0xb4f8,%ecx
    3e4f:	c7 85 74 ff ff ff 00 	movl   $0x0,-0x8c(%ebp)
    3e56:	00 00 00 
    3e59:	8b 95 74 ff ff ff    	mov    -0x8c(%ebp),%edx
    3e5f:	81 c9 00 00 43 00    	or     $0x430000,%ecx
    3e65:	89 8d 70 ff ff ff    	mov    %ecx,-0x90(%ebp)
    3e6b:	89 f9                	mov    %edi,%ecx
    3e6d:	8b 85 70 ff ff ff    	mov    -0x90(%ebp),%eax
    3e73:	0f 30                	wrmsr  
    3e75:	66 b9 90 03          	mov    $0x390,%cx
    3e79:	0f 32                	rdmsr  
    3e7b:	83 c8 02             	or     $0x2,%eax
    3e7e:	89 85 70 ff ff ff    	mov    %eax,-0x90(%ebp)
    3e84:	8b 85 70 ff ff ff    	mov    -0x90(%ebp),%eax
    3e8a:	89 95 74 ff ff ff    	mov    %edx,-0x8c(%ebp)
    3e90:	8b 95 74 ff ff ff    	mov    -0x8c(%ebp),%edx
    3e96:	0f 30                	wrmsr  
    3e98:	b1 8f                	mov    $0x8f,%cl
    3e9a:	0f 32                	rdmsr  
    3e9c:	83 c8 02             	or     $0x2,%eax
    3e9f:	89 85 70 ff ff ff    	mov    %eax,-0x90(%ebp)
    3ea5:	8b 85 70 ff ff ff    	mov    -0x90(%ebp),%eax
    3eab:	89 95 74 ff ff ff    	mov    %edx,-0x8c(%ebp)
    3eb1:	8b 95 74 ff ff ff    	mov    -0x8c(%ebp),%edx
    3eb7:	0f 30                	wrmsr  
    3eb9:	8b 0d 70 b5 00 00    	mov    0xb570,%ecx
    3ebf:	81 c9 00 00 43 00    	or     $0x430000,%ecx
    3ec5:	89 8d 70 ff ff ff    	mov    %ecx,-0x90(%ebp)
    3ecb:	8b 85 70 ff ff ff    	mov    -0x90(%ebp),%eax
    3ed1:	b9 88 01 00 00       	mov    $0x188,%ecx
    3ed6:	c7 85 74 ff ff ff 00 	movl   $0x0,-0x8c(%ebp)
    3edd:	00 00 00 
    3ee0:	8b 95 74 ff ff ff    	mov    -0x8c(%ebp),%edx
    3ee6:	0f 30                	wrmsr  
    3ee8:	66 b9 90 03          	mov    $0x390,%cx
    3eec:	0f 32                	rdmsr  
    3eee:	83 c8 04             	or     $0x4,%eax
    3ef1:	89 85 70 ff ff ff    	mov    %eax,-0x90(%ebp)
    3ef7:	8b 85 70 ff ff ff    	mov    -0x90(%ebp),%eax
    3efd:	89 95 74 ff ff ff    	mov    %edx,-0x8c(%ebp)
    3f03:	8b 95 74 ff ff ff    	mov    -0x8c(%ebp),%edx
    3f09:	0f 30                	wrmsr  
    3f0b:	b1 8f                	mov    $0x8f,%cl
    3f0d:	0f 32                	rdmsr  
    3f0f:	83 c8 04             	or     $0x4,%eax
    3f12:	89 85 70 ff ff ff    	mov    %eax,-0x90(%ebp)
    3f18:	8b 85 70 ff ff ff    	mov    -0x90(%ebp),%eax
    3f1e:	89 95 74 ff ff ff    	mov    %edx,-0x8c(%ebp)
    3f24:	8b 95 74 ff ff ff    	mov    -0x8c(%ebp),%edx
    3f2a:	0f 30                	wrmsr  
    3f2c:	8b 0d 20 b3 00 00    	mov    0xb320,%ecx
    3f32:	c7 85 74 ff ff ff 00 	movl   $0x0,-0x8c(%ebp)
    3f39:	00 00 00 
    3f3c:	8b 95 74 ff ff ff    	mov    -0x8c(%ebp),%edx
    3f42:	81 c9 00 00 43 00    	or     $0x430000,%ecx
    3f48:	89 8d 70 ff ff ff    	mov    %ecx,-0x90(%ebp)
    3f4e:	b9 89 01 00 00       	mov    $0x189,%ecx
    3f53:	8b 85 70 ff ff ff    	mov    -0x90(%ebp),%eax
    3f59:	0f 30                	wrmsr  
    3f5b:	66 b9 90 03          	mov    $0x390,%cx
    3f5f:	0f 32                	rdmsr  
    3f61:	83 c8 08             	or     $0x8,%eax
    3f64:	89 85 70 ff ff ff    	mov    %eax,-0x90(%ebp)
    3f6a:	8b 85 70 ff ff ff    	mov    -0x90(%ebp),%eax
    3f70:	89 95 74 ff ff ff    	mov    %edx,-0x8c(%ebp)
    3f76:	8b 95 74 ff ff ff    	mov    -0x8c(%ebp),%edx
    3f7c:	0f 30                	wrmsr  
    3f7e:	b1 8f                	mov    $0x8f,%cl
    3f80:	0f 32                	rdmsr  
    3f82:	83 c8 08             	or     $0x8,%eax
    3f85:	89 85 70 ff ff ff    	mov    %eax,-0x90(%ebp)
    3f8b:	8b 85 70 ff ff ff    	mov    -0x90(%ebp),%eax
    3f91:	89 95 74 ff ff ff    	mov    %edx,-0x8c(%ebp)
    3f97:	8b 95 74 ff ff ff    	mov    -0x8c(%ebp),%edx
    3f9d:	0f 30                	wrmsr  
    3f9f:	89 f1                	mov    %esi,%ecx
    3fa1:	0f 32                	rdmsr  
    3fa3:	83 c8 03             	or     $0x3,%eax
    3fa6:	89 85 70 ff ff ff    	mov    %eax,-0x90(%ebp)
    3fac:	8b 85 70 ff ff ff    	mov    -0x90(%ebp),%eax
    3fb2:	89 95 74 ff ff ff    	mov    %edx,-0x8c(%ebp)
    3fb8:	8b 95 74 ff ff ff    	mov    -0x8c(%ebp),%edx
    3fbe:	0f 30                	wrmsr  
    3fc0:	b1 8f                	mov    $0x8f,%cl
    3fc2:	0f 32                	rdmsr  
    3fc4:	83 ca 01             	or     $0x1,%edx
    3fc7:	89 85 70 ff ff ff    	mov    %eax,-0x90(%ebp)
    3fcd:	8b 85 70 ff ff ff    	mov    -0x90(%ebp),%eax
    3fd3:	89 95 74 ff ff ff    	mov    %edx,-0x8c(%ebp)
    3fd9:	8b 95 74 ff ff ff    	mov    -0x8c(%ebp),%edx
    3fdf:	0f 30                	wrmsr  
    3fe1:	89 f1                	mov    %esi,%ecx
    3fe3:	0f 32                	rdmsr  
    3fe5:	83 c8 30             	or     $0x30,%eax
    3fe8:	89 85 70 ff ff ff    	mov    %eax,-0x90(%ebp)
    3fee:	89 95 74 ff ff ff    	mov    %edx,-0x8c(%ebp)
    3ff4:	8b 85 70 ff ff ff    	mov    -0x90(%ebp),%eax
    3ffa:	8b 95 74 ff ff ff    	mov    -0x8c(%ebp),%edx
    4000:	0f 30                	wrmsr  
    4002:	b1 8f                	mov    $0x8f,%cl
    4004:	0f 32                	rdmsr  
    4006:	83 ca 02             	or     $0x2,%edx
    4009:	89 85 70 ff ff ff    	mov    %eax,-0x90(%ebp)
    400f:	8b 85 70 ff ff ff    	mov    -0x90(%ebp),%eax
    4015:	89 95 74 ff ff ff    	mov    %edx,-0x8c(%ebp)
    401b:	8b 95 74 ff ff ff    	mov    -0x8c(%ebp),%edx
    4021:	0f 30                	wrmsr  
    4023:	89 f1                	mov    %esi,%ecx
    4025:	0f 32                	rdmsr  
    4027:	80 cc 03             	or     $0x3,%ah
    402a:	89 85 70 ff ff ff    	mov    %eax,-0x90(%ebp)
    4030:	8b 85 70 ff ff ff    	mov    -0x90(%ebp),%eax
    4036:	89 95 74 ff ff ff    	mov    %edx,-0x8c(%ebp)
    403c:	8b 95 74 ff ff ff    	mov    -0x8c(%ebp),%edx
    4042:	0f 30                	wrmsr  
    4044:	b1 8f                	mov    $0x8f,%cl
    4046:	0f 32                	rdmsr  
    4048:	83 ca 04             	or     $0x4,%edx
    404b:	89 85 70 ff ff ff    	mov    %eax,-0x90(%ebp)
    4051:	8b 85 70 ff ff ff    	mov    -0x90(%ebp),%eax
    4057:	89 95 74 ff ff ff    	mov    %edx,-0x8c(%ebp)
    405d:	8b 95 74 ff ff ff    	mov    -0x8c(%ebp),%edx
    4063:	0f 30                	wrmsr  
    4065:	b1 90                	mov    $0x90,%cl
    4067:	0f 32                	rdmsr  
    4069:	83 c8 01             	or     $0x1,%eax
    406c:	89 85 70 ff ff ff    	mov    %eax,-0x90(%ebp)
    4072:	8b 85 70 ff ff ff    	mov    -0x90(%ebp),%eax
    4078:	89 95 74 ff ff ff    	mov    %edx,-0x8c(%ebp)
    407e:	8b 95 74 ff ff ff    	mov    -0x8c(%ebp),%edx
    4084:	0f 30                	wrmsr  
    4086:	b1 8f                	mov    $0x8f,%cl
    4088:	0f 32                	rdmsr  
    408a:	83 c8 01             	or     $0x1,%eax
    408d:	89 85 70 ff ff ff    	mov    %eax,-0x90(%ebp)
    4093:	8b 85 70 ff ff ff    	mov    -0x90(%ebp),%eax
    4099:	89 95 74 ff ff ff    	mov    %edx,-0x8c(%ebp)
    409f:	8b 95 74 ff ff ff    	mov    -0x8c(%ebp),%edx
    40a5:	0f 30                	wrmsr  
    40a7:	b1 90                	mov    $0x90,%cl
    40a9:	0f 32                	rdmsr  
    40ab:	83 c8 02             	or     $0x2,%eax
    40ae:	89 85 70 ff ff ff    	mov    %eax,-0x90(%ebp)
    40b4:	8b 85 70 ff ff ff    	mov    -0x90(%ebp),%eax
    40ba:	89 95 74 ff ff ff    	mov    %edx,-0x8c(%ebp)
    40c0:	8b 95 74 ff ff ff    	mov    -0x8c(%ebp),%edx
    40c6:	0f 30                	wrmsr  
    40c8:	b1 8f                	mov    $0x8f,%cl
    40ca:	0f 32                	rdmsr  
    40cc:	83 c8 02             	or     $0x2,%eax
    40cf:	89 85 70 ff ff ff    	mov    %eax,-0x90(%ebp)
    40d5:	8b 85 70 ff ff ff    	mov    -0x90(%ebp),%eax
    40db:	89 95 74 ff ff ff    	mov    %edx,-0x8c(%ebp)
    40e1:	8b 95 74 ff ff ff    	mov    -0x8c(%ebp),%edx
    40e7:	0f 30                	wrmsr  
    40e9:	b1 90                	mov    $0x90,%cl
    40eb:	0f 32                	rdmsr  
    40ed:	83 c8 04             	or     $0x4,%eax
    40f0:	89 85 70 ff ff ff    	mov    %eax,-0x90(%ebp)
    40f6:	8b 85 70 ff ff ff    	mov    -0x90(%ebp),%eax
    40fc:	89 95 74 ff ff ff    	mov    %edx,-0x8c(%ebp)
    4102:	8b 95 74 ff ff ff    	mov    -0x8c(%ebp),%edx
    4108:	0f 30                	wrmsr  
    410a:	b1 8f                	mov    $0x8f,%cl
    410c:	0f 32                	rdmsr  
    410e:	83 c8 04             	or     $0x4,%eax
    4111:	89 85 70 ff ff ff    	mov    %eax,-0x90(%ebp)
    4117:	8b 85 70 ff ff ff    	mov    -0x90(%ebp),%eax
    411d:	89 95 74 ff ff ff    	mov    %edx,-0x8c(%ebp)
    4123:	8b 95 74 ff ff ff    	mov    -0x8c(%ebp),%edx
    4129:	0f 30                	wrmsr  
    412b:	b1 90                	mov    $0x90,%cl
    412d:	0f 32                	rdmsr  
    412f:	83 c8 08             	or     $0x8,%eax
    4132:	89 85 70 ff ff ff    	mov    %eax,-0x90(%ebp)
    4138:	8b 85 70 ff ff ff    	mov    -0x90(%ebp),%eax
    413e:	89 95 74 ff ff ff    	mov    %edx,-0x8c(%ebp)
    4144:	8b 95 74 ff ff ff    	mov    -0x8c(%ebp),%edx
    414a:	0f 30                	wrmsr  
    414c:	b1 8f                	mov    $0x8f,%cl
    414e:	0f 32                	rdmsr  
    4150:	89 85 68 ff ff ff    	mov    %eax,-0x98(%ebp)
    4156:	83 c8 08             	or     $0x8,%eax
    4159:	89 95 6c ff ff ff    	mov    %edx,-0x94(%ebp)
    415f:	89 85 70 ff ff ff    	mov    %eax,-0x90(%ebp)
    4165:	8b 85 70 ff ff ff    	mov    -0x90(%ebp),%eax
    416b:	89 95 74 ff ff ff    	mov    %edx,-0x8c(%ebp)
    4171:	8b 95 74 ff ff ff    	mov    -0x8c(%ebp),%edx
    4177:	0f 30                	wrmsr  
    4179:	8d 65 f4             	lea    -0xc(%ebp),%esp
    417c:	5b                   	pop    %ebx
    417d:	5e                   	pop    %esi
    417e:	5f                   	pop    %edi
    417f:	5d                   	pop    %ebp
    4180:	c3                   	ret    
    4181:	eb 0d                	jmp    0x4190
    4183:	90                   	nop
    4184:	90                   	nop
    4185:	90                   	nop
    4186:	90                   	nop
    4187:	90                   	nop
    4188:	90                   	nop
    4189:	90                   	nop
    418a:	90                   	nop
    418b:	90                   	nop
    418c:	90                   	nop
    418d:	90                   	nop
    418e:	90                   	nop
    418f:	90                   	nop
    4190:	8d 45 d0             	lea    -0x30(%ebp),%eax
    4193:	89 04 24             	mov    %eax,(%esp)
    4196:	8d 9d 78 ff ff ff    	lea    -0x88(%ebp),%ebx
    419c:	e8 df 5a 00 00       	call   0x9c80
    41a1:	83 ec 04             	sub    $0x4,%esp
    41a4:	e8 27 e6 ff ff       	call   0x27d0
    41a9:	c7 04 24 42 b0 00 00 	movl   $0xb042,(%esp)
    41b0:	e8 cb e3 ff ff       	call   0x2580
    41b5:	8b 45 e4             	mov    -0x1c(%ebp),%eax
    41b8:	8b 4d e0             	mov    -0x20(%ebp),%ecx
    41bb:	8b 55 d4             	mov    -0x2c(%ebp),%edx
    41be:	8b 75 dc             	mov    -0x24(%ebp),%esi
    41c1:	89 85 70 ff ff ff    	mov    %eax,-0x90(%ebp)
    41c7:	8b 45 d0             	mov    -0x30(%ebp),%eax
    41ca:	89 8d 64 ff ff ff    	mov    %ecx,-0x9c(%ebp)
    41d0:	8b 7d d8             	mov    -0x28(%ebp),%edi
    41d3:	89 95 60 ff ff ff    	mov    %edx,-0xa0(%ebp)
    41d9:	c7 04 24 4a b0 00 00 	movl   $0xb04a,(%esp)
    41e0:	89 85 5c ff ff ff    	mov    %eax,-0xa4(%ebp)
    41e6:	e8 95 e3 ff ff       	call   0x2580
    41eb:	8b 85 5c ff ff ff    	mov    -0xa4(%ebp),%eax
    41f1:	c7 44 24 0c 00 00 00 	movl   $0x0,0xc(%esp)
    41f8:	00 
    41f9:	89 5c 24 08          	mov    %ebx,0x8(%esp)
    41fd:	c7 04 24 40 02 50 00 	movl   $0x500240,(%esp)
    4204:	89 44 24 04          	mov    %eax,0x4(%esp)
    4208:	e8 83 e9 ff ff       	call   0x2b90
    420d:	89 1c 24             	mov    %ebx,(%esp)
    4210:	c6 84 05 78 ff ff ff 	movb   $0x0,-0x88(%ebp,%eax,1)
    4217:	00 
    4218:	e8 63 e3 ff ff       	call   0x2580
    421d:	c7 04 24 4c b0 00 00 	movl   $0xb04c,(%esp)
    4224:	e8 57 e3 ff ff       	call   0x2580
    4229:	8b 95 60 ff ff ff    	mov    -0xa0(%ebp),%edx
    422f:	c7 44 24 0c 00 00 00 	movl   $0x0,0xc(%esp)
    4236:	00 
    4237:	89 5c 24 08          	mov    %ebx,0x8(%esp)
    423b:	c7 04 24 40 02 50 00 	movl   $0x500240,(%esp)
    4242:	89 54 24 04          	mov    %edx,0x4(%esp)
    4246:	e8 45 e9 ff ff       	call   0x2b90
    424b:	89 1c 24             	mov    %ebx,(%esp)
    424e:	c6 84 05 78 ff ff ff 	movb   $0x0,-0x88(%ebp,%eax,1)
    4255:	00 
    4256:	e8 25 e3 ff ff       	call   0x2580
    425b:	c7 04 24 4c b0 00 00 	movl   $0xb04c,(%esp)
    4262:	e8 19 e3 ff ff       	call   0x2580
    4267:	c7 44 24 0c 00 00 00 	movl   $0x0,0xc(%esp)
    426e:	00 
    426f:	89 5c 24 08          	mov    %ebx,0x8(%esp)
    4273:	89 7c 24 04          	mov    %edi,0x4(%esp)
    4277:	c7 04 24 40 02 50 00 	movl   $0x500240,(%esp)
    427e:	e8 0d e9 ff ff       	call   0x2b90
    4283:	89 1c 24             	mov    %ebx,(%esp)
    4286:	c6 84 05 78 ff ff ff 	movb   $0x0,-0x88(%ebp,%eax,1)
    428d:	00 
    428e:	e8 ed e2 ff ff       	call   0x2580
    4293:	c7 04 24 57 b0 00 00 	movl   $0xb057,(%esp)
    429a:	e8 e1 e2 ff ff       	call   0x2580
    429f:	c7 44 24 0c 00 00 00 	movl   $0x0,0xc(%esp)
    42a6:	00 
    42a7:	89 5c 24 08          	mov    %ebx,0x8(%esp)
    42ab:	89 74 24 04          	mov    %esi,0x4(%esp)
    42af:	c7 04 24 40 02 50 00 	movl   $0x500240,(%esp)
    42b6:	e8 d5 e8 ff ff       	call   0x2b90
    42bb:	89 1c 24             	mov    %ebx,(%esp)
    42be:	c6 84 05 78 ff ff ff 	movb   $0x0,-0x88(%ebp,%eax,1)
    42c5:	00 
    42c6:	e8 b5 e2 ff ff       	call   0x2580
    42cb:	c7 04 24 4e b0 00 00 	movl   $0xb04e,(%esp)
    42d2:	e8 a9 e2 ff ff       	call   0x2580
    42d7:	8b 8d 64 ff ff ff    	mov    -0x9c(%ebp),%ecx
    42dd:	c7 44 24 0c 00 00 00 	movl   $0x0,0xc(%esp)
    42e4:	00 
    42e5:	89 5c 24 08          	mov    %ebx,0x8(%esp)
    42e9:	c7 04 24 40 02 50 00 	movl   $0x500240,(%esp)
    42f0:	89 4c 24 04          	mov    %ecx,0x4(%esp)
    42f4:	e8 97 e8 ff ff       	call   0x2b90
    42f9:	89 1c 24             	mov    %ebx,(%esp)
    42fc:	c6 84 05 78 ff ff ff 	movb   $0x0,-0x88(%ebp,%eax,1)
    4303:	00 
    4304:	e8 77 e2 ff ff       	call   0x2580
    4309:	c7 04 24 4e b0 00 00 	movl   $0xb04e,(%esp)
    4310:	e8 6b e2 ff ff       	call   0x2580
    4315:	8b 95 70 ff ff ff    	mov    -0x90(%ebp),%edx
    431b:	c7 44 24 0c 00 00 00 	movl   $0x0,0xc(%esp)
    4322:	00 
    4323:	89 5c 24 08          	mov    %ebx,0x8(%esp)
    4327:	c7 04 24 40 02 50 00 	movl   $0x500240,(%esp)
    432e:	89 54 24 04          	mov    %edx,0x4(%esp)
    4332:	e8 59 e8 ff ff       	call   0x2b90
    4337:	89 1c 24             	mov    %ebx,(%esp)
    433a:	c6 84 05 78 ff ff ff 	movb   $0x0,-0x88(%ebp,%eax,1)
    4341:	00 
    4342:	e8 39 e2 ff ff       	call   0x2580
    4347:	c7 04 24 50 b0 00 00 	movl   $0xb050,(%esp)
    434e:	e8 2d e2 ff ff       	call   0x2580
    4353:	0f b6 05 44 02 50 00 	movzbl 0x500244,%eax
    435a:	0f b6 c0             	movzbl %al,%eax
    435d:	89 04 24             	mov    %eax,(%esp)
    4360:	e8 bb e5 ff ff       	call   0x2920
    4365:	c7 04 24 a7 b1 00 00 	movl   $0xb1a7,(%esp)
    436c:	e8 0f e2 ff ff       	call   0x2580
    4371:	a1 18 04 50 00       	mov    0x500418,%eax
    4376:	c7 05 40 02 50 00 0a 	movl   $0xa,0x500240
    437d:	00 00 00 
    4380:	8d 48 20             	lea    0x20(%eax),%ecx
    4383:	e9 57 f5 ff ff       	jmp    0x38df
    4388:	90                   	nop
    4389:	8d b4 26 00 00 00 00 	lea    0x0(%esi,%eiz,1),%esi
    4390:	8b 1d 58 02 50 00    	mov    0x500258,%ebx
    4396:	e8 05 e5 ff ff       	call   0x28a0
    439b:	8b 43 04             	mov    0x4(%ebx),%eax
    439e:	85 c0                	test   %eax,%eax
    43a0:	74 14                	je     0x43b6
    43a2:	8b 50 04             	mov    0x4(%eax),%edx
    43a5:	83 fa 43             	cmp    $0x43,%edx
    43a8:	77 26                	ja     0x43d0
    43aa:	83 fa 34             	cmp    $0x34,%edx
    43ad:	74 21                	je     0x43d0
    43af:	8b 40 0c             	mov    0xc(%eax),%eax
    43b2:	85 c0                	test   %eax,%eax
    43b4:	75 ec                	jne    0x43a2
    43b6:	89 1c 24             	mov    %ebx,(%esp)
    43b9:	31 db                	xor    %ebx,%ebx
    43bb:	e8 10 e6 ff ff       	call   0x29d0
    43c0:	eb 69                	jmp    0x442b
    43c2:	8d b4 26 00 00 00 00 	lea    0x0(%esi,%eiz,1),%esi
    43c9:	8d bc 27 00 00 00 00 	lea    0x0(%edi,%eiz,1),%edi
    43d0:	83 ea 34             	sub    $0x34,%edx
    43d3:	89 50 04             	mov    %edx,0x4(%eax)
    43d6:	83 6b 0c 34          	subl   $0x34,0xc(%ebx)
    43da:	8b 50 04             	mov    0x4(%eax),%edx
    43dd:	85 d2                	test   %edx,%edx
    43df:	75 3f                	jne    0x4420
    43e1:	8b 0b                	mov    (%ebx),%ecx
    43e3:	83 f9 01             	cmp    $0x1,%ecx
    43e6:	0f 84 eb 00 00 00    	je     0x44d7
    43ec:	8b 70 08             	mov    0x8(%eax),%esi
    43ef:	85 f6                	test   %esi,%esi
    43f1:	0f 84 b5 01 00 00    	je     0x45ac
    43f7:	8b 78 0c             	mov    0xc(%eax),%edi
    43fa:	85 ff                	test   %edi,%edi
    43fc:	0f 84 87 01 00 00    	je     0x4589
    4402:	89 7e 0c             	mov    %edi,0xc(%esi)
    4405:	8b 50 0c             	mov    0xc(%eax),%edx
    4408:	83 2b 01             	subl   $0x1,(%ebx)
    440b:	89 72 08             	mov    %esi,0x8(%edx)
    440e:	8b 50 04             	mov    0x4(%eax),%edx
    4411:	eb 0d                	jmp    0x4420
    4413:	90                   	nop
    4414:	90                   	nop
    4415:	90                   	nop
    4416:	90                   	nop
    4417:	90                   	nop
    4418:	90                   	nop
    4419:	90                   	nop
    441a:	90                   	nop
    441b:	90                   	nop
    441c:	90                   	nop
    441d:	90                   	nop
    441e:	90                   	nop
    441f:	90                   	nop
    4420:	03 10                	add    (%eax),%edx
    4422:	c7 02 34 00 00 00    	movl   $0x34,(%edx)
    4428:	8d 5a 04             	lea    0x4(%edx),%ebx
    442b:	e8 20 e4 ff ff       	call   0x2850
    4430:	ba 05 00 00 00       	mov    $0x5,%edx
    4435:	c7 03 00 00 00 00    	movl   $0x0,(%ebx)
    443b:	c7 43 04 05 00 00 00 	movl   $0x5,0x4(%ebx)
    4442:	c6 43 08 01          	movb   $0x1,0x8(%ebx)
    4446:	c7 43 2c 70 80 00 00 	movl   $0x8070,0x2c(%ebx)
    444d:	8b 35 fc 04 50 00    	mov    0x5004fc,%esi
    4453:	85 f6                	test   %esi,%esi
    4455:	74 75                	je     0x44cc
    4457:	31 c0                	xor    %eax,%eax
    4459:	eb 08                	jmp    0x4463
    445b:	90                   	nop
    445c:	8d 74 26 00          	lea    0x0(%esi,%eiz,1),%esi
    4460:	8b 53 04             	mov    0x4(%ebx),%edx
    4463:	89 54 83 0c          	mov    %edx,0xc(%ebx,%eax,4)
    4467:	83 c0 01             	add    $0x1,%eax
    446a:	83 f8 08             	cmp    $0x8,%eax
    446d:	75 f1                	jne    0x4460
    446f:	a1 18 04 50 00       	mov    0x500418,%eax
    4474:	89 1d 60 03 50 00    	mov    %ebx,0x500360
    447a:	8d 48 20             	lea    0x20(%eax),%ecx
    447d:	e9 50 f4 ff ff       	jmp    0x38d2
    4482:	8d b4 26 00 00 00 00 	lea    0x0(%esi,%eiz,1),%esi
    4489:	8d bc 27 00 00 00 00 	lea    0x0(%edi,%eiz,1),%edi
    4490:	c7 43 04 00 00 00 00 	movl   $0x0,0x4(%ebx)
    4497:	c7 43 08 00 00 00 00 	movl   $0x0,0x8(%ebx)
    449e:	c7 03 00 00 00 00    	movl   $0x0,(%ebx)
    44a4:	8b 50 04             	mov    0x4(%eax),%edx
    44a7:	e9 d4 f5 ff ff       	jmp    0x3a80
    44ac:	8d 74 26 00          	lea    0x0(%esi,%eiz,1),%esi
    44b0:	c7 43 04 00 00 00 00 	movl   $0x0,0x4(%ebx)
    44b7:	c7 43 08 00 00 00 00 	movl   $0x0,0x8(%ebx)
    44be:	c7 03 00 00 00 00    	movl   $0x0,(%ebx)
    44c4:	8b 50 04             	mov    0x4(%eax),%edx
    44c7:	e9 04 f5 ff ff       	jmp    0x39d0
    44cc:	89 1d fc 04 50 00    	mov    %ebx,0x5004fc
    44d2:	8b 53 04             	mov    0x4(%ebx),%edx
    44d5:	eb 80                	jmp    0x4457
    44d7:	c7 43 04 00 00 00 00 	movl   $0x0,0x4(%ebx)
    44de:	c7 43 08 00 00 00 00 	movl   $0x0,0x8(%ebx)
    44e5:	c7 03 00 00 00 00    	movl   $0x0,(%ebx)
    44eb:	8b 50 04             	mov    0x4(%eax),%edx
    44ee:	e9 2d ff ff ff       	jmp    0x4420
    44f3:	83 bd 68 ff ff ff 00 	cmpl   $0x0,-0x98(%ebp)
    44fa:	0f 84 80 f5 ff ff    	je     0x3a80
    4500:	8b 53 04             	mov    0x4(%ebx),%edx
    4503:	8b 52 0c             	mov    0xc(%edx),%edx
    4506:	89 53 04             	mov    %edx,0x4(%ebx)
    4509:	c7 42 08 00 00 00 00 	movl   $0x0,0x8(%edx)
    4510:	83 2b 01             	subl   $0x1,(%ebx)
    4513:	8b 50 04             	mov    0x4(%eax),%edx
    4516:	e9 65 f5 ff ff       	jmp    0x3a80
    451b:	85 f6                	test   %esi,%esi
    451d:	0f 84 ad f4 ff ff    	je     0x39d0
    4523:	8b 53 04             	mov    0x4(%ebx),%edx
    4526:	8b 52 0c             	mov    0xc(%edx),%edx
    4529:	89 53 04             	mov    %edx,0x4(%ebx)
    452c:	c7 42 08 00 00 00 00 	movl   $0x0,0x8(%edx)
    4533:	83 2b 01             	subl   $0x1,(%ebx)
    4536:	8b 50 04             	mov    0x4(%eax),%edx
    4539:	e9 92 f4 ff ff       	jmp    0x39d0
    453e:	85 f6                	test   %esi,%esi
    4540:	0f 84 8a f4 ff ff    	je     0x39d0
    4546:	8b 53 08             	mov    0x8(%ebx),%edx
    4549:	8b 52 08             	mov    0x8(%edx),%edx
    454c:	89 53 08             	mov    %edx,0x8(%ebx)
    454f:	c7 42 0c 00 00 00 00 	movl   $0x0,0xc(%edx)
    4556:	83 2b 01             	subl   $0x1,(%ebx)
    4559:	8b 50 04             	mov    0x4(%eax),%edx
    455c:	e9 6f f4 ff ff       	jmp    0x39d0
    4561:	83 bd 68 ff ff ff 00 	cmpl   $0x0,-0x98(%ebp)
    4568:	0f 84 12 f5 ff ff    	je     0x3a80
    456e:	8b 53 08             	mov    0x8(%ebx),%edx
    4571:	8b 52 08             	mov    0x8(%edx),%edx
    4574:	89 53 08             	mov    %edx,0x8(%ebx)
    4577:	c7 42 0c 00 00 00 00 	movl   $0x0,0xc(%edx)
    457e:	83 2b 01             	subl   $0x1,(%ebx)
    4581:	8b 50 04             	mov    0x4(%eax),%edx
    4584:	e9 f7 f4 ff ff       	jmp    0x3a80
    4589:	85 c9                	test   %ecx,%ecx
    458b:	0f 84 8f fe ff ff    	je     0x4420
    4591:	8b 53 08             	mov    0x8(%ebx),%edx
    4594:	8b 52 08             	mov    0x8(%edx),%edx
    4597:	89 53 08             	mov    %edx,0x8(%ebx)
    459a:	c7 42 0c 00 00 00 00 	movl   $0x0,0xc(%edx)
    45a1:	83 2b 01             	subl   $0x1,(%ebx)
    45a4:	8b 50 04             	mov    0x4(%eax),%edx
    45a7:	e9 74 fe ff ff       	jmp    0x4420
    45ac:	85 c9                	test   %ecx,%ecx
    45ae:	0f 84 6c fe ff ff    	je     0x4420
    45b4:	8b 53 04             	mov    0x4(%ebx),%edx
    45b7:	8b 52 0c             	mov    0xc(%edx),%edx
    45ba:	89 53 04             	mov    %edx,0x4(%ebx)
    45bd:	c7 42 08 00 00 00 00 	movl   $0x0,0x8(%edx)
    45c4:	83 2b 01             	subl   $0x1,(%ebx)
    45c7:	8b 50 04             	mov    0x4(%eax),%edx
    45ca:	e9 51 fe ff ff       	jmp    0x4420
    45cf:	90                   	nop
    45d0:	55                   	push   %ebp
    45d1:	89 e5                	mov    %esp,%ebp
    45d3:	57                   	push   %edi
    45d4:	56                   	push   %esi
    45d5:	53                   	push   %ebx
    45d6:	fa                   	cli    
    45d7:	be 50 93 00 00       	mov    $0x9350,%esi
    45dc:	b9 60 91 00 00       	mov    $0x9160,%ecx
    45e1:	89 f7                	mov    %esi,%edi
    45e3:	b8 06 00 40 ff       	mov    $0xff400006,%eax
    45e8:	c1 ef 10             	shr    $0x10,%edi
    45eb:	31 d2                	xor    %edx,%edx
    45ed:	eb 2c                	jmp    0x461b
    45ef:	90                   	nop
    45f0:	89 cb                	mov    %ecx,%ebx
    45f2:	c1 eb 10             	shr    $0x10,%ebx
    45f5:	66 89 18             	mov    %bx,(%eax)
    45f8:	c6 40 ff ee          	movb   $0xee,-0x1(%eax)
    45fc:	c6 40 fe 00          	movb   $0x0,-0x2(%eax)
    4600:	66 c7 40 fc 08 00    	movw   $0x8,-0x4(%eax)
    4606:	66 89 48 fa          	mov    %cx,-0x6(%eax)
    460a:	83 c2 01             	add    $0x1,%edx
    460d:	83 c1 10             	add    $0x10,%ecx
    4610:	83 c0 08             	add    $0x8,%eax
    4613:	81 fa 00 01 00 00    	cmp    $0x100,%edx
    4619:	74 25                	je     0x4640
    461b:	83 fa 31             	cmp    $0x31,%edx
    461e:	76 d0                	jbe    0x45f0
    4620:	66 89 38             	mov    %di,(%eax)
    4623:	c6 40 ff ee          	movb   $0xee,-0x1(%eax)
    4627:	c6 40 fe 00          	movb   $0x0,-0x2(%eax)
    462b:	66 c7 40 fc 08 00    	movw   $0x8,-0x4(%eax)
    4631:	66 89 70 fa          	mov    %si,-0x6(%eax)
    4635:	eb d3                	jmp    0x460a
    4637:	89 f6                	mov    %esi,%esi
    4639:	8d bc 27 00 00 00 00 	lea    0x0(%edi,%eiz,1),%edi
    4640:	b8 d0 95 00 00       	mov    $0x95d0,%eax
    4645:	89 c2                	mov    %eax,%edx
    4647:	c1 ea 10             	shr    $0x10,%edx
    464a:	66 a3 70 00 40 ff    	mov    %ax,0xff400070
    4650:	66 a3 40 00 40 ff    	mov    %ax,0xff400040
    4656:	b8 a0 98 00 00       	mov    $0x98a0,%eax
    465b:	66 89 15 76 00 40 ff 	mov    %dx,0xff400076
    4662:	66 89 15 46 00 40 ff 	mov    %dx,0xff400046
    4669:	89 c2                	mov    %eax,%edx
    466b:	c1 ea 10             	shr    $0x10,%edx
    466e:	66 a3 68 00 40 ff    	mov    %ax,0xff400068
    4674:	b8 90 94 00 00       	mov    $0x9490,%eax
    4679:	66 89 15 6e 00 40 ff 	mov    %dx,0xff40006e
    4680:	89 c2                	mov    %eax,%edx
    4682:	c1 ea 10             	shr    $0x10,%edx
    4685:	66 a3 38 00 40 ff    	mov    %ax,0xff400038
    468b:	31 c0                	xor    %eax,%eax
    468d:	c6 05 75 00 40 ff ee 	movb   $0xee,0xff400075
    4694:	c6 05 74 00 40 ff 00 	movb   $0x0,0xff400074
    469b:	66 c7 05 72 00 40 ff 	movw   $0x8,0xff400072
    46a2:	08 00 
    46a4:	c6 05 45 00 40 ff ee 	movb   $0xee,0xff400045
    46ab:	c6 05 44 00 40 ff 00 	movb   $0x0,0xff400044
    46b2:	66 c7 05 42 00 40 ff 	movw   $0x8,0xff400042
    46b9:	08 00 
    46bb:	c6 05 6d 00 40 ff ee 	movb   $0xee,0xff40006d
    46c2:	c6 05 6c 00 40 ff 00 	movb   $0x0,0xff40006c
    46c9:	66 c7 05 6a 00 40 ff 	movw   $0x8,0xff40006a
    46d0:	08 00 
    46d2:	66 89 15 3e 00 40 ff 	mov    %dx,0xff40003e
    46d9:	c6 05 3d 00 40 ff ee 	movb   $0xee,0xff40003d
    46e0:	c6 05 3c 00 40 ff 00 	movb   $0x0,0xff40003c
    46e7:	66 c7 05 3a 00 40 ff 	movw   $0x8,0xff40003a
    46ee:	08 00 
    46f0:	c7 04 85 20 04 50 00 	movl   $0x9810,0x500420(,%eax,4)
    46f7:	10 98 00 00 
    46fb:	83 c0 01             	add    $0x1,%eax
    46fe:	83 f8 32             	cmp    $0x32,%eax
    4701:	75 ed                	jne    0x46f0
    4703:	a1 f0 00 00 f0       	mov    0xf00000f0,%eax
    4708:	c7 05 18 04 50 00 00 	movl   $0xf0000000,0x500418
    470f:	00 00 f0 
    4712:	80 e4 fe             	and    $0xfe,%ah
    4715:	a3 f0 00 00 f0       	mov    %eax,0xf00000f0
    471a:	fb                   	sti    
    471b:	5b                   	pop    %ebx
    471c:	5e                   	pop    %esi
    471d:	5f                   	pop    %edi
    471e:	5d                   	pop    %ebp
    471f:	c3                   	ret    
    4720:	55                   	push   %ebp
    4721:	89 e5                	mov    %esp,%ebp
    4723:	57                   	push   %edi
    4724:	56                   	push   %esi
    4725:	53                   	push   %ebx
    4726:	83 ec 1c             	sub    $0x1c,%esp
    4729:	8b 1d 58 02 50 00    	mov    0x500258,%ebx
    472f:	e8 6c e1 ff ff       	call   0x28a0
    4734:	8b 4b 04             	mov    0x4(%ebx),%ecx
    4737:	85 c9                	test   %ecx,%ecx
    4739:	89 c8                	mov    %ecx,%eax
    473b:	0f 84 3e 01 00 00    	je     0x487f
    4741:	8b 51 04             	mov    0x4(%ecx),%edx
    4744:	83 fa 43             	cmp    $0x43,%edx
    4747:	77 1f                	ja     0x4768
    4749:	8d b4 26 00 00 00 00 	lea    0x0(%esi,%eiz,1),%esi
    4750:	83 fa 34             	cmp    $0x34,%edx
    4753:	74 13                	je     0x4768
    4755:	8b 40 0c             	mov    0xc(%eax),%eax
    4758:	85 c0                	test   %eax,%eax
    475a:	0f 84 1f 01 00 00    	je     0x487f
    4760:	8b 50 04             	mov    0x4(%eax),%edx
    4763:	83 fa 43             	cmp    $0x43,%edx
    4766:	76 e8                	jbe    0x4750
    4768:	83 ea 34             	sub    $0x34,%edx
    476b:	89 50 04             	mov    %edx,0x4(%eax)
    476e:	83 6b 0c 34          	subl   $0x34,0xc(%ebx)
    4772:	8b 50 04             	mov    0x4(%eax),%edx
    4775:	85 d2                	test   %edx,%edx
    4777:	75 37                	jne    0x47b0
    4779:	8b 3b                	mov    (%ebx),%edi
    477b:	83 ff 01             	cmp    $0x1,%edi
    477e:	0f 84 9c 00 00 00    	je     0x4820
    4784:	8b 70 08             	mov    0x8(%eax),%esi
    4787:	85 f6                	test   %esi,%esi
    4789:	0f 84 ad 00 00 00    	je     0x483c
    478f:	8b 48 0c             	mov    0xc(%eax),%ecx
    4792:	85 c9                	test   %ecx,%ecx
    4794:	0f 84 c2 00 00 00    	je     0x485c
    479a:	89 4e 0c             	mov    %ecx,0xc(%esi)
    479d:	8b 50 0c             	mov    0xc(%eax),%edx
    47a0:	83 2b 01             	subl   $0x1,(%ebx)
    47a3:	89 72 08             	mov    %esi,0x8(%edx)
    47a6:	8b 50 04             	mov    0x4(%eax),%edx
    47a9:	8d b4 26 00 00 00 00 	lea    0x0(%esi,%eiz,1),%esi
    47b0:	8b 18                	mov    (%eax),%ebx
    47b2:	01 d3                	add    %edx,%ebx
    47b4:	c7 03 34 00 00 00    	movl   $0x34,(%ebx)
    47ba:	83 c3 04             	add    $0x4,%ebx
    47bd:	e8 8e e0 ff ff       	call   0x2850
    47c2:	ba 01 00 00 00       	mov    $0x1,%edx
    47c7:	c7 03 01 00 00 00    	movl   $0x1,(%ebx)
    47cd:	c7 43 04 01 00 00 00 	movl   $0x1,0x4(%ebx)
    47d4:	c6 43 08 01          	movb   $0x1,0x8(%ebx)
    47d8:	c7 43 2c c0 48 00 00 	movl   $0x48c0,0x2c(%ebx)
    47df:	8b 35 00 05 50 00    	mov    0x500500,%esi
    47e5:	85 f6                	test   %esi,%esi
    47e7:	74 27                	je     0x4810
    47e9:	31 c0                	xor    %eax,%eax
    47eb:	eb 06                	jmp    0x47f3
    47ed:	8d 76 00             	lea    0x0(%esi),%esi
    47f0:	8b 53 04             	mov    0x4(%ebx),%edx
    47f3:	89 54 83 0c          	mov    %edx,0xc(%ebx,%eax,4)
    47f7:	83 c0 01             	add    $0x1,%eax
    47fa:	83 f8 08             	cmp    $0x8,%eax
    47fd:	75 f1                	jne    0x47f0
    47ff:	89 1d 68 02 50 00    	mov    %ebx,0x500268
    4805:	83 c4 1c             	add    $0x1c,%esp
    4808:	5b                   	pop    %ebx
    4809:	5e                   	pop    %esi
    480a:	5f                   	pop    %edi
    480b:	5d                   	pop    %ebp
    480c:	c3                   	ret    
    480d:	8d 76 00             	lea    0x0(%esi),%esi
    4810:	89 1d 00 05 50 00    	mov    %ebx,0x500500
    4816:	8b 53 04             	mov    0x4(%ebx),%edx
    4819:	eb ce                	jmp    0x47e9
    481b:	90                   	nop
    481c:	8d 74 26 00          	lea    0x0(%esi,%eiz,1),%esi
    4820:	c7 03 00 00 00 00    	movl   $0x0,(%ebx)
    4826:	8b 50 04             	mov    0x4(%eax),%edx
    4829:	c7 43 04 00 00 00 00 	movl   $0x0,0x4(%ebx)
    4830:	c7 43 08 00 00 00 00 	movl   $0x0,0x8(%ebx)
    4837:	e9 74 ff ff ff       	jmp    0x47b0
    483c:	85 ff                	test   %edi,%edi
    483e:	0f 84 6c ff ff ff    	je     0x47b0
    4844:	8b 51 0c             	mov    0xc(%ecx),%edx
    4847:	83 2b 01             	subl   $0x1,(%ebx)
    484a:	89 53 04             	mov    %edx,0x4(%ebx)
    484d:	c7 42 08 00 00 00 00 	movl   $0x0,0x8(%edx)
    4854:	8b 50 04             	mov    0x4(%eax),%edx
    4857:	e9 54 ff ff ff       	jmp    0x47b0
    485c:	85 ff                	test   %edi,%edi
    485e:	0f 84 4c ff ff ff    	je     0x47b0
    4864:	8b 53 08             	mov    0x8(%ebx),%edx
    4867:	83 2b 01             	subl   $0x1,(%ebx)
    486a:	8b 52 08             	mov    0x8(%edx),%edx
    486d:	89 53 08             	mov    %edx,0x8(%ebx)
    4870:	c7 42 0c 00 00 00 00 	movl   $0x0,0xc(%edx)
    4877:	8b 50 04             	mov    0x4(%eax),%edx
    487a:	e9 31 ff ff ff       	jmp    0x47b0
    487f:	89 1c 24             	mov    %ebx,(%esp)
    4882:	31 db                	xor    %ebx,%ebx
    4884:	e8 47 e1 ff ff       	call   0x29d0
    4889:	e9 2f ff ff ff       	jmp    0x47bd
    488e:	90                   	nop
    488f:	90                   	nop
    4890:	55                   	push   %ebp
    4891:	89 e5                	mov    %esp,%ebp
    4893:	c7 05 70 02 50 00 00 	movl   $0x0,0x500270
    489a:	00 00 00 
    489d:	c7 05 74 02 50 00 00 	movl   $0x0,0x500274
    48a4:	00 00 00 
    48a7:	c7 05 78 02 50 00 00 	movl   $0x0,0x500278
    48ae:	00 00 00 
    48b1:	5d                   	pop    %ebp
    48b2:	c3                   	ret    
    48b3:	90                   	nop
    48b4:	90                   	nop
    48b5:	90                   	nop
    48b6:	90                   	nop
    48b7:	90                   	nop
    48b8:	90                   	nop
    48b9:	90                   	nop
    48ba:	90                   	nop
    48bb:	90                   	nop
    48bc:	90                   	nop
    48bd:	90                   	nop
    48be:	90                   	nop
    48bf:	90                   	nop
    48c0:	55                   	push   %ebp
    48c1:	89 e5                	mov    %esp,%ebp
    48c3:	57                   	push   %edi
    48c4:	56                   	push   %esi
    48c5:	53                   	push   %ebx
    48c6:	83 ec 1c             	sub    $0x1c,%esp
    48c9:	fa                   	cli    
    48ca:	e8 61 08 00 00       	call   0x5130
    48cf:	31 c9                	xor    %ecx,%ecx
    48d1:	89 c2                	mov    %eax,%edx
    48d3:	8d b6 00 00 00 00    	lea    0x0(%esi),%esi
    48d9:	8d bc 27 00 00 00 00 	lea    0x0(%edi,%eiz,1),%edi
    48e0:	89 c8                	mov    %ecx,%eax
    48e2:	f0 0f b1 15 04 04 50 	lock cmpxchg %edx,0x500404
    48e9:	00 
    48ea:	39 c2                	cmp    %eax,%edx
    48ec:	75 f2                	jne    0x48e0
    48ee:	a1 00 04 50 00       	mov    0x500400,%eax
    48f3:	83 c0 01             	add    $0x1,%eax
    48f6:	a3 00 04 50 00       	mov    %eax,0x500400
    48fb:	a1 6c 02 50 00       	mov    0x50026c,%eax
    4900:	83 c0 01             	add    $0x1,%eax
    4903:	a3 6c 02 50 00       	mov    %eax,0x50026c
    4908:	a1 70 02 50 00       	mov    0x500270,%eax
    490d:	85 c0                	test   %eax,%eax
    490f:	74 13                	je     0x4924
    4911:	8b 15 74 02 50 00    	mov    0x500274,%edx
    4917:	8b 4a 04             	mov    0x4(%edx),%ecx
    491a:	83 e9 01             	sub    $0x1,%ecx
    491d:	85 c9                	test   %ecx,%ecx
    491f:	89 4a 04             	mov    %ecx,0x4(%edx)
    4922:	7e 5c                	jle    0x4980
    4924:	31 c0                	xor    %eax,%eax
    4926:	8b 15 00 04 50 00    	mov    0x500400,%edx
    492c:	83 ea 01             	sub    $0x1,%edx
    492f:	89 15 00 04 50 00    	mov    %edx,0x500400
    4935:	8b 15 00 04 50 00    	mov    0x500400,%edx
    493b:	85 d2                	test   %edx,%edx
    493d:	7e 31                	jle    0x4970
    493f:	fb                   	sti    
    4940:	85 c0                	test   %eax,%eax
    4942:	74 1c                	je     0x4960
    4944:	8b 40 08             	mov    0x8(%eax),%eax
    4947:	8b 10                	mov    (%eax),%edx
    4949:	89 45 08             	mov    %eax,0x8(%ebp)
    494c:	8b 42 08             	mov    0x8(%edx),%eax
    494f:	83 c4 1c             	add    $0x1c,%esp
    4952:	5b                   	pop    %ebx
    4953:	5e                   	pop    %esi
    4954:	5f                   	pop    %edi
    4955:	5d                   	pop    %ebp
    4956:	ff e0                	jmp    *%eax
    4958:	90                   	nop
    4959:	8d b4 26 00 00 00 00 	lea    0x0(%esi,%eiz,1),%esi
    4960:	83 c4 1c             	add    $0x1c,%esp
    4963:	5b                   	pop    %ebx
    4964:	5e                   	pop    %esi
    4965:	5f                   	pop    %edi
    4966:	5d                   	pop    %ebp
    4967:	c3                   	ret    
    4968:	90                   	nop
    4969:	8d b4 26 00 00 00 00 	lea    0x0(%esi,%eiz,1),%esi
    4970:	c7 05 04 04 50 00 00 	movl   $0x0,0x500404
    4977:	00 00 00 
    497a:	eb c3                	jmp    0x493f
    497c:	8d 74 26 00          	lea    0x0(%esi,%eiz,1),%esi
    4980:	83 f8 01             	cmp    $0x1,%eax
    4983:	0f 84 a5 00 00 00    	je     0x4a2e
    4989:	8b 42 0c             	mov    0xc(%edx),%eax
    498c:	83 2d 70 02 50 00 01 	subl   $0x1,0x500270
    4993:	a3 74 02 50 00       	mov    %eax,0x500274
    4998:	c7 40 08 00 00 00 00 	movl   $0x0,0x8(%eax)
    499f:	8b 42 0c             	mov    0xc(%edx),%eax
    49a2:	85 c0                	test   %eax,%eax
    49a4:	74 06                	je     0x49ac
    49a6:	8b 4a 04             	mov    0x4(%edx),%ecx
    49a9:	01 48 04             	add    %ecx,0x4(%eax)
    49ac:	8b 02                	mov    (%edx),%eax
    49ae:	8b 48 0c             	mov    0xc(%eax),%ecx
    49b1:	83 f9 ff             	cmp    $0xffffffff,%ecx
    49b4:	74 0e                	je     0x49c4
    49b6:	83 e9 01             	sub    $0x1,%ecx
    49b9:	85 c9                	test   %ecx,%ecx
    49bb:	89 48 0c             	mov    %ecx,0xc(%eax)
    49be:	0f 84 62 ff ff ff    	je     0x4926
    49c4:	8b 48 10             	mov    0x10(%eax),%ecx
    49c7:	89 4a 04             	mov    %ecx,0x4(%edx)
    49ca:	8b 1d 70 02 50 00    	mov    0x500270,%ebx
    49d0:	85 db                	test   %ebx,%ebx
    49d2:	89 5d e4             	mov    %ebx,-0x1c(%ebp)
    49d5:	0f 84 a3 00 00 00    	je     0x4a7e
    49db:	8b 3d 74 02 50 00    	mov    0x500274,%edi
    49e1:	8b 77 04             	mov    0x4(%edi),%esi
    49e4:	89 fb                	mov    %edi,%ebx
    49e6:	39 f1                	cmp    %esi,%ecx
    49e8:	7c 15                	jl     0x49ff
    49ea:	83 7f 0c 00          	cmpl   $0x0,0xc(%edi)
    49ee:	74 64                	je     0x4a54
    49f0:	8b 5b 0c             	mov    0xc(%ebx),%ebx
    49f3:	29 f1                	sub    %esi,%ecx
    49f5:	89 4a 04             	mov    %ecx,0x4(%edx)
    49f8:	8b 73 04             	mov    0x4(%ebx),%esi
    49fb:	39 f1                	cmp    %esi,%ecx
    49fd:	7d 4f                	jge    0x4a4e
    49ff:	83 7b 08 00          	cmpl   $0x0,0x8(%ebx)
    4a03:	0f 84 9e 00 00 00    	je     0x4aa7
    4a09:	29 ce                	sub    %ecx,%esi
    4a0b:	8b 4b 08             	mov    0x8(%ebx),%ecx
    4a0e:	89 53 08             	mov    %edx,0x8(%ebx)
    4a11:	89 73 04             	mov    %esi,0x4(%ebx)
    4a14:	89 51 0c             	mov    %edx,0xc(%ecx)
    4a17:	89 4a 08             	mov    %ecx,0x8(%edx)
    4a1a:	89 5a 0c             	mov    %ebx,0xc(%edx)
    4a1d:	8b 55 e4             	mov    -0x1c(%ebp),%edx
    4a20:	83 c2 01             	add    $0x1,%edx
    4a23:	89 15 70 02 50 00    	mov    %edx,0x500270
    4a29:	e9 f8 fe ff ff       	jmp    0x4926
    4a2e:	c7 05 74 02 50 00 00 	movl   $0x0,0x500274
    4a35:	00 00 00 
    4a38:	c7 05 78 02 50 00 00 	movl   $0x0,0x500278
    4a3f:	00 00 00 
    4a42:	83 2d 70 02 50 00 01 	subl   $0x1,0x500270
    4a49:	e9 51 ff ff ff       	jmp    0x499f
    4a4e:	83 7b 0c 00          	cmpl   $0x0,0xc(%ebx)
    4a52:	75 9c                	jne    0x49f0
    4a54:	29 f1                	sub    %esi,%ecx
    4a56:	89 4a 04             	mov    %ecx,0x4(%edx)
    4a59:	8b 0d 78 02 50 00    	mov    0x500278,%ecx
    4a5f:	83 05 70 02 50 00 01 	addl   $0x1,0x500270
    4a66:	89 51 0c             	mov    %edx,0xc(%ecx)
    4a69:	89 4a 08             	mov    %ecx,0x8(%edx)
    4a6c:	c7 42 0c 00 00 00 00 	movl   $0x0,0xc(%edx)
    4a73:	89 15 78 02 50 00    	mov    %edx,0x500278
    4a79:	e9 a8 fe ff ff       	jmp    0x4926
    4a7e:	c7 42 08 00 00 00 00 	movl   $0x0,0x8(%edx)
    4a85:	c7 42 0c 00 00 00 00 	movl   $0x0,0xc(%edx)
    4a8c:	c7 05 70 02 50 00 01 	movl   $0x1,0x500270
    4a93:	00 00 00 
    4a96:	89 15 74 02 50 00    	mov    %edx,0x500274
    4a9c:	89 15 78 02 50 00    	mov    %edx,0x500278
    4aa2:	e9 7f fe ff ff       	jmp    0x4926
    4aa7:	29 ce                	sub    %ecx,%esi
    4aa9:	c7 42 08 00 00 00 00 	movl   $0x0,0x8(%edx)
    4ab0:	89 73 04             	mov    %esi,0x4(%ebx)
    4ab3:	89 7a 0c             	mov    %edi,0xc(%edx)
    4ab6:	89 57 08             	mov    %edx,0x8(%edi)
    4ab9:	83 05 70 02 50 00 01 	addl   $0x1,0x500270
    4ac0:	89 15 74 02 50 00    	mov    %edx,0x500274
    4ac6:	e9 5b fe ff ff       	jmp    0x4926
    4acb:	90                   	nop
    4acc:	90                   	nop
    4acd:	90                   	nop
    4ace:	90                   	nop
    4acf:	90                   	nop
    4ad0:	55                   	push   %ebp
    4ad1:	89 e5                	mov    %esp,%ebp
    4ad3:	56                   	push   %esi
    4ad4:	53                   	push   %ebx
    4ad5:	8b 5d 08             	mov    0x8(%ebp),%ebx
    4ad8:	fa                   	cli    
    4ad9:	e8 52 06 00 00       	call   0x5130
    4ade:	31 c9                	xor    %ecx,%ecx
    4ae0:	89 c2                	mov    %eax,%edx
    4ae2:	8d b4 26 00 00 00 00 	lea    0x0(%esi,%eiz,1),%esi
    4ae9:	8d bc 27 00 00 00 00 	lea    0x0(%edi,%eiz,1),%edi
    4af0:	89 c8                	mov    %ecx,%eax
    4af2:	f0 0f b1 15 04 04 50 	lock cmpxchg %edx,0x500404
    4af9:	00 
    4afa:	39 c2                	cmp    %eax,%edx
    4afc:	75 f2                	jne    0x4af0
    4afe:	a1 00 04 50 00       	mov    0x500400,%eax
    4b03:	8b 15 74 02 50 00    	mov    0x500274,%edx
    4b09:	83 c0 01             	add    $0x1,%eax
    4b0c:	85 d2                	test   %edx,%edx
    4b0e:	a3 00 04 50 00       	mov    %eax,0x500400
    4b13:	74 4f                	je     0x4b64
    4b15:	3b 1a                	cmp    (%edx),%ebx
    4b17:	89 d0                	mov    %edx,%eax
    4b19:	0f 84 c1 00 00 00    	je     0x4be0
    4b1f:	90                   	nop
    4b20:	8b 40 0c             	mov    0xc(%eax),%eax
    4b23:	85 c0                	test   %eax,%eax
    4b25:	74 3d                	je     0x4b64
    4b27:	3b 18                	cmp    (%eax),%ebx
    4b29:	75 f5                	jne    0x4b20
    4b2b:	8b 0d 70 02 50 00    	mov    0x500270,%ecx
    4b31:	83 f9 01             	cmp    $0x1,%ecx
    4b34:	74 5a                	je     0x4b90
    4b36:	8b 58 08             	mov    0x8(%eax),%ebx
    4b39:	85 db                	test   %ebx,%ebx
    4b3b:	0f 84 af 00 00 00    	je     0x4bf0
    4b41:	8b 50 0c             	mov    0xc(%eax),%edx
    4b44:	85 d2                	test   %edx,%edx
    4b46:	74 6b                	je     0x4bb3
    4b48:	89 53 0c             	mov    %edx,0xc(%ebx)
    4b4b:	8b 50 0c             	mov    0xc(%eax),%edx
    4b4e:	83 e9 01             	sub    $0x1,%ecx
    4b51:	89 0d 70 02 50 00    	mov    %ecx,0x500270
    4b57:	89 5a 08             	mov    %ebx,0x8(%edx)
    4b5a:	85 d2                	test   %edx,%edx
    4b5c:	74 06                	je     0x4b64
    4b5e:	8b 40 04             	mov    0x4(%eax),%eax
    4b61:	01 42 04             	add    %eax,0x4(%edx)
    4b64:	a1 00 04 50 00       	mov    0x500400,%eax
    4b69:	83 e8 01             	sub    $0x1,%eax
    4b6c:	a3 00 04 50 00       	mov    %eax,0x500400
    4b71:	a1 00 04 50 00       	mov    0x500400,%eax
    4b76:	85 c0                	test   %eax,%eax
    4b78:	7e 06                	jle    0x4b80
    4b7a:	fb                   	sti    
    4b7b:	5b                   	pop    %ebx
    4b7c:	5e                   	pop    %esi
    4b7d:	5d                   	pop    %ebp
    4b7e:	c3                   	ret    
    4b7f:	90                   	nop
    4b80:	c7 05 04 04 50 00 00 	movl   $0x0,0x500404
    4b87:	00 00 00 
    4b8a:	eb ee                	jmp    0x4b7a
    4b8c:	8d 74 26 00          	lea    0x0(%esi,%eiz,1),%esi
    4b90:	c7 05 74 02 50 00 00 	movl   $0x0,0x500274
    4b97:	00 00 00 
    4b9a:	c7 05 78 02 50 00 00 	movl   $0x0,0x500278
    4ba1:	00 00 00 
    4ba4:	8b 50 0c             	mov    0xc(%eax),%edx
    4ba7:	c7 05 70 02 50 00 00 	movl   $0x0,0x500270
    4bae:	00 00 00 
    4bb1:	eb a7                	jmp    0x4b5a
    4bb3:	85 c9                	test   %ecx,%ecx
    4bb5:	74 ad                	je     0x4b64
    4bb7:	8b 15 78 02 50 00    	mov    0x500278,%edx
    4bbd:	83 e9 01             	sub    $0x1,%ecx
    4bc0:	89 0d 70 02 50 00    	mov    %ecx,0x500270
    4bc6:	8b 52 08             	mov    0x8(%edx),%edx
    4bc9:	89 15 78 02 50 00    	mov    %edx,0x500278
    4bcf:	c7 42 0c 00 00 00 00 	movl   $0x0,0xc(%edx)
    4bd6:	8b 50 0c             	mov    0xc(%eax),%edx
    4bd9:	e9 7c ff ff ff       	jmp    0x4b5a
    4bde:	66 90                	xchg   %ax,%ax
    4be0:	89 d0                	mov    %edx,%eax
    4be2:	e9 44 ff ff ff       	jmp    0x4b2b
    4be7:	89 f6                	mov    %esi,%esi
    4be9:	8d bc 27 00 00 00 00 	lea    0x0(%edi,%eiz,1),%edi
    4bf0:	85 c9                	test   %ecx,%ecx
    4bf2:	75 08                	jne    0x4bfc
    4bf4:	8b 50 0c             	mov    0xc(%eax),%edx
    4bf7:	e9 5e ff ff ff       	jmp    0x4b5a
    4bfc:	8b 52 0c             	mov    0xc(%edx),%edx
    4bff:	83 e9 01             	sub    $0x1,%ecx
    4c02:	89 0d 70 02 50 00    	mov    %ecx,0x500270
    4c08:	89 15 74 02 50 00    	mov    %edx,0x500274
    4c0e:	c7 42 08 00 00 00 00 	movl   $0x0,0x8(%edx)
    4c15:	eb dd                	jmp    0x4bf4
    4c17:	90                   	nop
    4c18:	90                   	nop
    4c19:	90                   	nop
    4c1a:	90                   	nop
    4c1b:	90                   	nop
    4c1c:	90                   	nop
    4c1d:	90                   	nop
    4c1e:	90                   	nop
    4c1f:	90                   	nop
    4c20:	55                   	push   %ebp
    4c21:	89 e5                	mov    %esp,%ebp
    4c23:	57                   	push   %edi
    4c24:	56                   	push   %esi
    4c25:	53                   	push   %ebx
    4c26:	83 ec 2c             	sub    $0x2c,%esp
    4c29:	8b 7d 0c             	mov    0xc(%ebp),%edi
    4c2c:	8b 45 10             	mov    0x10(%ebp),%eax
    4c2f:	8b 5d 08             	mov    0x8(%ebp),%ebx
    4c32:	8b 0d 68 02 50 00    	mov    0x500268,%ecx
    4c38:	8b 57 04             	mov    0x4(%edi),%edx
    4c3b:	89 45 e4             	mov    %eax,-0x1c(%ebp)
    4c3e:	8b 07                	mov    (%edi),%eax
    4c40:	89 53 04             	mov    %edx,0x4(%ebx)
    4c43:	8b 55 e4             	mov    -0x1c(%ebp),%edx
    4c46:	89 03                	mov    %eax,(%ebx)
    4c48:	8b 45 14             	mov    0x14(%ebp),%eax
    4c4b:	89 53 08             	mov    %edx,0x8(%ebx)
    4c4e:	31 d2                	xor    %edx,%edx
    4c50:	89 43 0c             	mov    %eax,0xc(%ebx)
    4c53:	b8 e8 03 00 00       	mov    $0x3e8,%eax
    4c58:	f7 71 04             	divl   0x4(%ecx)
    4c5b:	31 d2                	xor    %edx,%edx
    4c5d:	c7 44 24 0c 00 00 00 	movl   $0x0,0xc(%esp)
    4c64:	00 
    4c65:	89 c1                	mov    %eax,%ecx
    4c67:	b8 40 42 0f 00       	mov    $0xf4240,%eax
    4c6c:	f7 f1                	div    %ecx
    4c6e:	8b 4c 24 0c          	mov    0xc(%esp),%ecx
    4c72:	89 44 24 08          	mov    %eax,0x8(%esp)
    4c76:	8b 54 24 08          	mov    0x8(%esp),%edx
    4c7a:	0f ac ca 01          	shrd   $0x1,%ecx,%edx
    4c7e:	d1 e9                	shr    %ecx
    4c80:	03 17                	add    (%edi),%edx
    4c82:	13 4f 04             	adc    0x4(%edi),%ecx
    4c85:	89 14 24             	mov    %edx,(%esp)
    4c88:	89 4c 24 04          	mov    %ecx,0x4(%esp)
    4c8c:	e8 47 60 00 00       	call   0xacd8
    4c91:	89 5b 14             	mov    %ebx,0x14(%ebx)
    4c94:	c7 43 1c 00 00 00 00 	movl   $0x0,0x1c(%ebx)
    4c9b:	c7 43 20 00 00 00 00 	movl   $0x0,0x20(%ebx)
    4ca2:	89 43 10             	mov    %eax,0x10(%ebx)
    4ca5:	89 43 18             	mov    %eax,0x18(%ebx)
    4ca8:	fa                   	cli    
    4ca9:	e8 82 04 00 00       	call   0x5130
    4cae:	8b 75 e4             	mov    -0x1c(%ebp),%esi
    4cb1:	31 c9                	xor    %ecx,%ecx
    4cb3:	89 c2                	mov    %eax,%edx
    4cb5:	8d 74 26 00          	lea    0x0(%esi,%eiz,1),%esi
    4cb9:	8d bc 27 00 00 00 00 	lea    0x0(%edi,%eiz,1),%edi
    4cc0:	89 c8                	mov    %ecx,%eax
    4cc2:	f0 0f b1 15 04 04 50 	lock cmpxchg %edx,0x500404
    4cc9:	00 
    4cca:	39 c2                	cmp    %eax,%edx
    4ccc:	75 f2                	jne    0x4cc0
    4cce:	a1 00 04 50 00       	mov    0x500400,%eax
    4cd3:	89 75 e4             	mov    %esi,-0x1c(%ebp)
    4cd6:	83 c0 01             	add    $0x1,%eax
    4cd9:	a3 00 04 50 00       	mov    %eax,0x500400
    4cde:	8b 43 10             	mov    0x10(%ebx),%eax
    4ce1:	85 c0                	test   %eax,%eax
    4ce3:	75 3b                	jne    0x4d20
    4ce5:	a1 00 04 50 00       	mov    0x500400,%eax
    4cea:	83 e8 01             	sub    $0x1,%eax
    4ced:	a3 00 04 50 00       	mov    %eax,0x500400
    4cf2:	a1 00 04 50 00       	mov    0x500400,%eax
    4cf7:	85 c0                	test   %eax,%eax
    4cf9:	0f 8e 01 01 00 00    	jle    0x4e00
    4cff:	fb                   	sti    
    4d00:	8b 75 e4             	mov    -0x1c(%ebp),%esi
    4d03:	8b 06                	mov    (%esi),%eax
    4d05:	89 75 08             	mov    %esi,0x8(%ebp)
    4d08:	8b 40 08             	mov    0x8(%eax),%eax
    4d0b:	83 c4 2c             	add    $0x2c,%esp
    4d0e:	5b                   	pop    %ebx
    4d0f:	5e                   	pop    %esi
    4d10:	5f                   	pop    %edi
    4d11:	5d                   	pop    %ebp
    4d12:	ff e0                	jmp    *%eax
    4d14:	8d b6 00 00 00 00    	lea    0x0(%esi),%esi
    4d1a:	8d bf 00 00 00 00    	lea    0x0(%edi),%edi
    4d20:	8b 15 70 02 50 00    	mov    0x500270,%edx
    4d26:	8d 73 14             	lea    0x14(%ebx),%esi
    4d29:	85 d2                	test   %edx,%edx
    4d2b:	89 55 e4             	mov    %edx,-0x1c(%ebp)
    4d2e:	0f 84 8c 00 00 00    	je     0x4dc0
    4d34:	8b 3d 74 02 50 00    	mov    0x500274,%edi
    4d3a:	8b 43 18             	mov    0x18(%ebx),%eax
    4d3d:	8b 4f 04             	mov    0x4(%edi),%ecx
    4d40:	89 fa                	mov    %edi,%edx
    4d42:	39 c8                	cmp    %ecx,%eax
    4d44:	0f 8c c6 00 00 00    	jl     0x4e10
    4d4a:	83 7f 0c 00          	cmpl   $0x0,0xc(%edi)
    4d4e:	74 1e                	je     0x4d6e
    4d50:	8b 52 0c             	mov    0xc(%edx),%edx
    4d53:	29 c8                	sub    %ecx,%eax
    4d55:	89 46 04             	mov    %eax,0x4(%esi)
    4d58:	8b 4a 04             	mov    0x4(%edx),%ecx
    4d5b:	39 c8                	cmp    %ecx,%eax
    4d5d:	0f 8d 8d 00 00 00    	jge    0x4df0
    4d63:	8b 43 18             	mov    0x18(%ebx),%eax
    4d66:	39 c1                	cmp    %eax,%ecx
    4d68:	0f 8f a2 00 00 00    	jg     0x4e10
    4d6e:	29 c8                	sub    %ecx,%eax
    4d70:	89 43 18             	mov    %eax,0x18(%ebx)
    4d73:	a1 78 02 50 00       	mov    0x500278,%eax
    4d78:	83 05 70 02 50 00 01 	addl   $0x1,0x500270
    4d7f:	89 70 0c             	mov    %esi,0xc(%eax)
    4d82:	89 43 1c             	mov    %eax,0x1c(%ebx)
    4d85:	c7 43 20 00 00 00 00 	movl   $0x0,0x20(%ebx)
    4d8c:	89 35 78 02 50 00    	mov    %esi,0x500278
    4d92:	a1 00 04 50 00       	mov    0x500400,%eax
    4d97:	83 e8 01             	sub    $0x1,%eax
    4d9a:	a3 00 04 50 00       	mov    %eax,0x500400
    4d9f:	a1 00 04 50 00       	mov    0x500400,%eax
    4da4:	85 c0                	test   %eax,%eax
    4da6:	7f 0a                	jg     0x4db2
    4da8:	c7 05 04 04 50 00 00 	movl   $0x0,0x500404
    4daf:	00 00 00 
    4db2:	fb                   	sti    
    4db3:	83 c4 2c             	add    $0x2c,%esp
    4db6:	5b                   	pop    %ebx
    4db7:	5e                   	pop    %esi
    4db8:	5f                   	pop    %edi
    4db9:	5d                   	pop    %ebp
    4dba:	c3                   	ret    
    4dbb:	90                   	nop
    4dbc:	8d 74 26 00          	lea    0x0(%esi,%eiz,1),%esi
    4dc0:	c7 43 1c 00 00 00 00 	movl   $0x0,0x1c(%ebx)
    4dc7:	c7 43 20 00 00 00 00 	movl   $0x0,0x20(%ebx)
    4dce:	c7 05 70 02 50 00 01 	movl   $0x1,0x500270
    4dd5:	00 00 00 
    4dd8:	89 35 74 02 50 00    	mov    %esi,0x500274
    4dde:	89 35 78 02 50 00    	mov    %esi,0x500278
    4de4:	eb ac                	jmp    0x4d92
    4de6:	8d 76 00             	lea    0x0(%esi),%esi
    4de9:	8d bc 27 00 00 00 00 	lea    0x0(%edi,%eiz,1),%edi
    4df0:	83 7a 0c 00          	cmpl   $0x0,0xc(%edx)
    4df4:	0f 85 56 ff ff ff    	jne    0x4d50
    4dfa:	e9 64 ff ff ff       	jmp    0x4d63
    4dff:	90                   	nop
    4e00:	c7 05 04 04 50 00 00 	movl   $0x0,0x500404
    4e07:	00 00 00 
    4e0a:	e9 f0 fe ff ff       	jmp    0x4cff
    4e0f:	90                   	nop
    4e10:	83 7a 08 00          	cmpl   $0x0,0x8(%edx)
    4e14:	74 24                	je     0x4e3a
    4e16:	29 c1                	sub    %eax,%ecx
    4e18:	8b 42 08             	mov    0x8(%edx),%eax
    4e1b:	89 72 08             	mov    %esi,0x8(%edx)
    4e1e:	89 4a 04             	mov    %ecx,0x4(%edx)
    4e21:	89 70 0c             	mov    %esi,0xc(%eax)
    4e24:	89 43 1c             	mov    %eax,0x1c(%ebx)
    4e27:	8b 45 e4             	mov    -0x1c(%ebp),%eax
    4e2a:	89 53 20             	mov    %edx,0x20(%ebx)
    4e2d:	83 c0 01             	add    $0x1,%eax
    4e30:	a3 70 02 50 00       	mov    %eax,0x500270
    4e35:	e9 58 ff ff ff       	jmp    0x4d92
    4e3a:	29 c1                	sub    %eax,%ecx
    4e3c:	c7 43 1c 00 00 00 00 	movl   $0x0,0x1c(%ebx)
    4e43:	89 4a 04             	mov    %ecx,0x4(%edx)
    4e46:	89 7b 20             	mov    %edi,0x20(%ebx)
    4e49:	89 77 08             	mov    %esi,0x8(%edi)
    4e4c:	83 05 70 02 50 00 01 	addl   $0x1,0x500270
    4e53:	89 35 74 02 50 00    	mov    %esi,0x500274
    4e59:	e9 34 ff ff ff       	jmp    0x4d92
    4e5e:	90                   	nop
    4e5f:	90                   	nop
    4e60:	55                   	push   %ebp
    4e61:	89 e5                	mov    %esp,%ebp
    4e63:	8b 45 08             	mov    0x8(%ebp),%eax
    4e66:	8b 55 0c             	mov    0xc(%ebp),%edx
    4e69:	c7 00 00 00 00 00    	movl   $0x0,(%eax)
    4e6f:	c7 40 04 00 00 00 00 	movl   $0x0,0x4(%eax)
    4e76:	c7 40 08 00 00 00 00 	movl   $0x0,0x8(%eax)
    4e7d:	89 50 0c             	mov    %edx,0xc(%eax)
    4e80:	5d                   	pop    %ebp
    4e81:	c3                   	ret    
    4e82:	90                   	nop
    4e83:	90                   	nop
    4e84:	90                   	nop
    4e85:	90                   	nop
    4e86:	90                   	nop
    4e87:	90                   	nop
    4e88:	90                   	nop
    4e89:	90                   	nop
    4e8a:	90                   	nop
    4e8b:	90                   	nop
    4e8c:	90                   	nop
    4e8d:	90                   	nop
    4e8e:	90                   	nop
    4e8f:	90                   	nop
    4e90:	55                   	push   %ebp
    4e91:	89 e5                	mov    %esp,%ebp
    4e93:	56                   	push   %esi
    4e94:	53                   	push   %ebx
    4e95:	8b 5d 08             	mov    0x8(%ebp),%ebx
    4e98:	fa                   	cli    
    4e99:	e8 92 02 00 00       	call   0x5130
    4e9e:	31 c9                	xor    %ecx,%ecx
    4ea0:	89 c2                	mov    %eax,%edx
    4ea2:	8d b4 26 00 00 00 00 	lea    0x0(%esi,%eiz,1),%esi
    4ea9:	8d bc 27 00 00 00 00 	lea    0x0(%edi,%eiz,1),%edi
    4eb0:	89 c8                	mov    %ecx,%eax
    4eb2:	f0 0f b1 15 04 04 50 	lock cmpxchg %edx,0x500404
    4eb9:	00 
    4eba:	39 c2                	cmp    %eax,%edx
    4ebc:	75 f2                	jne    0x4eb0
    4ebe:	a1 00 04 50 00       	mov    0x500400,%eax
    4ec3:	83 c0 01             	add    $0x1,%eax
    4ec6:	a3 00 04 50 00       	mov    %eax,0x500400
    4ecb:	b8 01 00 00 00       	mov    $0x1,%eax
    4ed0:	f0 0f c1 43 0c       	lock xadd %eax,0xc(%ebx)
    4ed5:	85 c0                	test   %eax,%eax
    4ed7:	78 57                	js     0x4f30
    4ed9:	8b 43 0c             	mov    0xc(%ebx),%eax
    4edc:	83 f8 01             	cmp    $0x1,%eax
    4edf:	7e 1b                	jle    0x4efc
    4ee1:	a1 18 04 50 00       	mov    0x500418,%eax
    4ee6:	83 05 c0 02 50 00 01 	addl   $0x1,0x5002c0
    4eed:	8b 40 20             	mov    0x20(%eax),%eax
    4ef0:	c1 e8 18             	shr    $0x18,%eax
    4ef3:	c1 e0 04             	shl    $0x4,%eax
    4ef6:	8b 80 8c 03 50 00    	mov    0x50038c(%eax),%eax
    4efc:	a1 00 04 50 00       	mov    0x500400,%eax
    4f01:	83 e8 01             	sub    $0x1,%eax
    4f04:	a3 00 04 50 00       	mov    %eax,0x500400
    4f09:	a1 00 04 50 00       	mov    0x500400,%eax
    4f0e:	85 c0                	test   %eax,%eax
    4f10:	7e 0e                	jle    0x4f20
    4f12:	fb                   	sti    
    4f13:	5b                   	pop    %ebx
    4f14:	5e                   	pop    %esi
    4f15:	5d                   	pop    %ebp
    4f16:	c3                   	ret    
    4f17:	89 f6                	mov    %esi,%esi
    4f19:	8d bc 27 00 00 00 00 	lea    0x0(%edi,%eiz,1),%edi
    4f20:	c7 05 04 04 50 00 00 	movl   $0x0,0x500404
    4f27:	00 00 00 
    4f2a:	eb e6                	jmp    0x4f12
    4f2c:	8d 74 26 00          	lea    0x0(%esi,%eiz,1),%esi
    4f30:	89 5d 08             	mov    %ebx,0x8(%ebp)
    4f33:	5b                   	pop    %ebx
    4f34:	5e                   	pop    %esi
    4f35:	5d                   	pop    %ebp
    4f36:	e9 45 35 00 00       	jmp    0x8480
    4f3b:	90                   	nop
    4f3c:	90                   	nop
    4f3d:	90                   	nop
    4f3e:	90                   	nop
    4f3f:	90                   	nop
    4f40:	55                   	push   %ebp
    4f41:	89 e5                	mov    %esp,%ebp
    4f43:	56                   	push   %esi
    4f44:	53                   	push   %ebx
    4f45:	8b 5d 08             	mov    0x8(%ebp),%ebx
    4f48:	fa                   	cli    
    4f49:	e8 e2 01 00 00       	call   0x5130
    4f4e:	31 c9                	xor    %ecx,%ecx
    4f50:	89 c2                	mov    %eax,%edx
    4f52:	8d b4 26 00 00 00 00 	lea    0x0(%esi,%eiz,1),%esi
    4f59:	8d bc 27 00 00 00 00 	lea    0x0(%edi,%eiz,1),%edi
    4f60:	89 c8                	mov    %ecx,%eax
    4f62:	f0 0f b1 15 04 04 50 	lock cmpxchg %edx,0x500404
    4f69:	00 
    4f6a:	39 c2                	cmp    %eax,%edx
    4f6c:	75 f2                	jne    0x4f60
    4f6e:	a1 00 04 50 00       	mov    0x500400,%eax
    4f73:	83 c0 01             	add    $0x1,%eax
    4f76:	a3 00 04 50 00       	mov    %eax,0x500400
    4f7b:	b8 ff ff ff ff       	mov    $0xffffffff,%eax
    4f80:	f0 0f c1 43 0c       	lock xadd %eax,0xc(%ebx)
    4f85:	85 c0                	test   %eax,%eax
    4f87:	7e 37                	jle    0x4fc0
    4f89:	a1 00 04 50 00       	mov    0x500400,%eax
    4f8e:	83 e8 01             	sub    $0x1,%eax
    4f91:	a3 00 04 50 00       	mov    %eax,0x500400
    4f96:	a1 00 04 50 00       	mov    0x500400,%eax
    4f9b:	85 c0                	test   %eax,%eax
    4f9d:	7e 11                	jle    0x4fb0
    4f9f:	fb                   	sti    
    4fa0:	5b                   	pop    %ebx
    4fa1:	5e                   	pop    %esi
    4fa2:	5d                   	pop    %ebp
    4fa3:	c3                   	ret    
    4fa4:	8d b6 00 00 00 00    	lea    0x0(%esi),%esi
    4faa:	8d bf 00 00 00 00    	lea    0x0(%edi),%edi
    4fb0:	c7 05 04 04 50 00 00 	movl   $0x0,0x500404
    4fb7:	00 00 00 
    4fba:	eb e3                	jmp    0x4f9f
    4fbc:	8d 74 26 00          	lea    0x0(%esi,%eiz,1),%esi
    4fc0:	89 5d 08             	mov    %ebx,0x8(%ebp)
    4fc3:	5b                   	pop    %ebx
    4fc4:	5e                   	pop    %esi
    4fc5:	5d                   	pop    %ebp
    4fc6:	e9 f5 1d 00 00       	jmp    0x6dc0
    4fcb:	90                   	nop
    4fcc:	90                   	nop
    4fcd:	90                   	nop
    4fce:	90                   	nop
    4fcf:	90                   	nop
    4fd0:	55                   	push   %ebp
    4fd1:	89 e5                	mov    %esp,%ebp
    4fd3:	56                   	push   %esi
    4fd4:	53                   	push   %ebx
    4fd5:	8b 5d 08             	mov    0x8(%ebp),%ebx
    4fd8:	fa                   	cli    
    4fd9:	e8 52 01 00 00       	call   0x5130
    4fde:	31 c9                	xor    %ecx,%ecx
    4fe0:	89 c2                	mov    %eax,%edx
    4fe2:	8d b4 26 00 00 00 00 	lea    0x0(%esi,%eiz,1),%esi
    4fe9:	8d bc 27 00 00 00 00 	lea    0x0(%edi,%eiz,1),%edi
    4ff0:	89 c8                	mov    %ecx,%eax
    4ff2:	f0 0f b1 15 04 04 50 	lock cmpxchg %edx,0x500404
    4ff9:	00 
    4ffa:	39 c2                	cmp    %eax,%edx
    4ffc:	75 f2                	jne    0x4ff0
    4ffe:	a1 00 04 50 00       	mov    0x500400,%eax
    5003:	83 c0 01             	add    $0x1,%eax
    5006:	a3 00 04 50 00       	mov    %eax,0x500400
    500b:	89 5d 08             	mov    %ebx,0x8(%ebp)
    500e:	5b                   	pop    %ebx
    500f:	5e                   	pop    %esi
    5010:	5d                   	pop    %ebp
    5011:	e9 aa 31 00 00       	jmp    0x81c0
    5016:	90                   	nop
    5017:	90                   	nop
    5018:	90                   	nop
    5019:	90                   	nop
    501a:	90                   	nop
    501b:	90                   	nop
    501c:	90                   	nop
    501d:	90                   	nop
    501e:	90                   	nop
    501f:	90                   	nop
    5020:	55                   	push   %ebp
    5021:	89 e5                	mov    %esp,%ebp
    5023:	83 ec 38             	sub    $0x38,%esp
    5026:	8b 45 08             	mov    0x8(%ebp),%eax
    5029:	89 5d f4             	mov    %ebx,-0xc(%ebp)
    502c:	8b 1d 08 05 50 00    	mov    0x500508,%ebx
    5032:	c7 44 24 08 10 27 00 	movl   $0x2710,0x8(%esp)
    5039:	00 
    503a:	c7 44 24 0c 00 00 00 	movl   $0x0,0xc(%esp)
    5041:	00 
    5042:	89 45 e4             	mov    %eax,-0x1c(%ebp)
    5045:	b8 53 07 00 00       	mov    $0x753,%eax
    504a:	f7 e3                	mul    %ebx
    504c:	89 75 f8             	mov    %esi,-0x8(%ebp)
    504f:	31 f6                	xor    %esi,%esi
    5051:	89 7d fc             	mov    %edi,-0x4(%ebp)
    5054:	8b 7d 0c             	mov    0xc(%ebp),%edi
    5057:	89 04 24             	mov    %eax,(%esp)
    505a:	89 54 24 04          	mov    %edx,0x4(%esp)
    505e:	e8 75 5c 00 00       	call   0xacd8
    5063:	39 fa                	cmp    %edi,%edx
    5065:	72 1e                	jb     0x5085
    5067:	76 17                	jbe    0x5080
    5069:	b8 13 00 00 00       	mov    $0x13,%eax
    506e:	31 d2                	xor    %edx,%edx
    5070:	e9 85 00 00 00       	jmp    0x50fa
    5075:	8d 74 26 00          	lea    0x0(%esi,%eiz,1),%esi
    5079:	8d bc 27 00 00 00 00 	lea    0x0(%edi,%eiz,1),%edi
    5080:	3b 45 e4             	cmp    -0x1c(%ebp),%eax
    5083:	73 e4                	jae    0x5069
    5085:	b8 9f 24 00 00       	mov    $0x249f,%eax
    508a:	f7 e3                	mul    %ebx
    508c:	c7 44 24 08 10 27 00 	movl   $0x2710,0x8(%esp)
    5093:	00 
    5094:	c7 44 24 0c 00 00 00 	movl   $0x0,0xc(%esp)
    509b:	00 
    509c:	89 04 24             	mov    %eax,(%esp)
    509f:	89 54 24 04          	mov    %edx,0x4(%esp)
    50a3:	e8 30 5c 00 00       	call   0xacd8
    50a8:	39 d7                	cmp    %edx,%edi
    50aa:	73 64                	jae    0x5110
    50ac:	69 ff 10 27 00 00    	imul   $0x2710,%edi,%edi
    50b2:	b8 10 27 00 00       	mov    $0x2710,%eax
    50b7:	f7 65 e4             	mull   -0x1c(%ebp)
    50ba:	89 5c 24 08          	mov    %ebx,0x8(%esp)
    50be:	89 74 24 0c          	mov    %esi,0xc(%esp)
    50c2:	8d 14 17             	lea    (%edi,%edx,1),%edx
    50c5:	89 04 24             	mov    %eax,(%esp)
    50c8:	89 54 24 04          	mov    %edx,0x4(%esp)
    50cc:	e8 07 5c 00 00       	call   0xacd8
    50d1:	c7 44 24 08 71 02 00 	movl   $0x271,0x8(%esp)
    50d8:	00 
    50d9:	c7 44 24 0c 00 00 00 	movl   $0x0,0xc(%esp)
    50e0:	00 
    50e1:	05 71 02 00 00       	add    $0x271,%eax
    50e6:	83 d2 00             	adc    $0x0,%edx
    50e9:	89 04 24             	mov    %eax,(%esp)
    50ec:	89 54 24 04          	mov    %edx,0x4(%esp)
    50f0:	e8 e3 5b 00 00       	call   0xacd8
    50f5:	31 d2                	xor    %edx,%edx
    50f7:	83 c8 11             	or     $0x11,%eax
    50fa:	b9 9a 01 00 00       	mov    $0x19a,%ecx
    50ff:	0f 30                	wrmsr  
    5101:	8b 5d f4             	mov    -0xc(%ebp),%ebx
    5104:	8b 75 f8             	mov    -0x8(%ebp),%esi
    5107:	8b 7d fc             	mov    -0x4(%ebp),%edi
    510a:	89 ec                	mov    %ebp,%esp
    510c:	5d                   	pop    %ebp
    510d:	c3                   	ret    
    510e:	66 90                	xchg   %ax,%ax
    5110:	76 0e                	jbe    0x5120
    5112:	b8 09 00 00 00       	mov    $0x9,%eax
    5117:	31 d2                	xor    %edx,%edx
    5119:	eb df                	jmp    0x50fa
    511b:	90                   	nop
    511c:	8d 74 26 00          	lea    0x0(%esi,%eiz,1),%esi
    5120:	39 45 e4             	cmp    %eax,-0x1c(%ebp)
    5123:	72 87                	jb     0x50ac
    5125:	eb eb                	jmp    0x5112
    5127:	90                   	nop
    5128:	90                   	nop
    5129:	90                   	nop
    512a:	90                   	nop
    512b:	90                   	nop
    512c:	90                   	nop
    512d:	90                   	nop
    512e:	90                   	nop
    512f:	90                   	nop
    5130:	80 3d 84 02 50 00 00 	cmpb   $0x0,0x500284
    5137:	55                   	push   %ebp
    5138:	89 e5                	mov    %esp,%ebp
    513a:	75 14                	jne    0x5150
    513c:	a1 18 04 50 00       	mov    0x500418,%eax
    5141:	5d                   	pop    %ebp
    5142:	8b 40 20             	mov    0x20(%eax),%eax
    5145:	c1 e8 18             	shr    $0x18,%eax
    5148:	83 c0 01             	add    $0x1,%eax
    514b:	c3                   	ret    
    514c:	8d 74 26 00          	lea    0x0(%esi,%eiz,1),%esi
    5150:	a1 18 04 50 00       	mov    0x500418,%eax
    5155:	5d                   	pop    %ebp
    5156:	8b 40 20             	mov    0x20(%eax),%eax
    5159:	c1 e8 18             	shr    $0x18,%eax
    515c:	c1 e0 04             	shl    $0x4,%eax
    515f:	8b 80 8c 03 50 00    	mov    0x50038c(%eax),%eax
    5165:	8b 00                	mov    (%eax),%eax
    5167:	c3                   	ret    
    5168:	90                   	nop
    5169:	90                   	nop
    516a:	90                   	nop
    516b:	90                   	nop
    516c:	90                   	nop
    516d:	90                   	nop
    516e:	90                   	nop
    516f:	90                   	nop
    5170:	55                   	push   %ebp
    5171:	89 e5                	mov    %esp,%ebp
    5173:	57                   	push   %edi
    5174:	56                   	push   %esi
    5175:	53                   	push   %ebx
    5176:	83 ec 10             	sub    $0x10,%esp
    5179:	8b 75 08             	mov    0x8(%ebp),%esi
    517c:	8b 55 0c             	mov    0xc(%ebp),%edx
    517f:	8b 06                	mov    (%esi),%eax
    5181:	85 c0                	test   %eax,%eax
    5183:	89 45 ec             	mov    %eax,-0x14(%ebp)
    5186:	0f 84 84 00 00 00    	je     0x5210
    518c:	8b 4e 04             	mov    0x4(%esi),%ecx
    518f:	8d 42 04             	lea    0x4(%edx),%eax
    5192:	89 45 f0             	mov    %eax,-0x10(%ebp)
    5195:	89 cf                	mov    %ecx,%edi
    5197:	89 4d e8             	mov    %ecx,-0x18(%ebp)
    519a:	8b 49 04             	mov    0x4(%ecx),%ecx
    519d:	83 c7 04             	add    $0x4,%edi
    51a0:	8b 42 04             	mov    0x4(%edx),%eax
    51a3:	39 c8                	cmp    %ecx,%eax
    51a5:	0f 8c b8 00 00 00    	jl     0x5263
    51ab:	8b 4d e8             	mov    -0x18(%ebp),%ecx
    51ae:	8b 41 28             	mov    0x28(%ecx),%eax
    51b1:	85 c0                	test   %eax,%eax
    51b3:	0f 84 aa 00 00 00    	je     0x5263
    51b9:	89 55 e4             	mov    %edx,-0x1c(%ebp)
    51bc:	8d 74 26 00          	lea    0x0(%esi,%eiz,1),%esi
    51c0:	8b 55 f0             	mov    -0x10(%ebp),%edx
    51c3:	8d 78 04             	lea    0x4(%eax),%edi
    51c6:	8b 58 04             	mov    0x4(%eax),%ebx
    51c9:	8b 0a                	mov    (%edx),%ecx
    51cb:	39 cb                	cmp    %ecx,%ebx
    51cd:	7e 31                	jle    0x5200
    51cf:	8b 55 e4             	mov    -0x1c(%ebp),%edx
    51d2:	8b 0f                	mov    (%edi),%ecx
    51d4:	8b 5a 04             	mov    0x4(%edx),%ebx
    51d7:	39 d9                	cmp    %ebx,%ecx
    51d9:	7f 65                	jg     0x5240
    51db:	8b 46 08             	mov    0x8(%esi),%eax
    51de:	83 06 01             	addl   $0x1,(%esi)
    51e1:	89 50 28             	mov    %edx,0x28(%eax)
    51e4:	89 42 24             	mov    %eax,0x24(%edx)
    51e7:	c7 42 28 00 00 00 00 	movl   $0x0,0x28(%edx)
    51ee:	89 56 08             	mov    %edx,0x8(%esi)
    51f1:	83 c4 10             	add    $0x10,%esp
    51f4:	5b                   	pop    %ebx
    51f5:	5e                   	pop    %esi
    51f6:	5f                   	pop    %edi
    51f7:	5d                   	pop    %ebp
    51f8:	c3                   	ret    
    51f9:	8d b4 26 00 00 00 00 	lea    0x0(%esi,%eiz,1),%esi
    5200:	8b 48 28             	mov    0x28(%eax),%ecx
    5203:	85 c9                	test   %ecx,%ecx
    5205:	74 c8                	je     0x51cf
    5207:	89 c8                	mov    %ecx,%eax
    5209:	eb b5                	jmp    0x51c0
    520b:	90                   	nop
    520c:	8d 74 26 00          	lea    0x0(%esi,%eiz,1),%esi
    5210:	c7 42 24 00 00 00 00 	movl   $0x0,0x24(%edx)
    5217:	c7 42 28 00 00 00 00 	movl   $0x0,0x28(%edx)
    521e:	c7 06 01 00 00 00    	movl   $0x1,(%esi)
    5224:	89 56 04             	mov    %edx,0x4(%esi)
    5227:	89 56 08             	mov    %edx,0x8(%esi)
    522a:	83 c4 10             	add    $0x10,%esp
    522d:	5b                   	pop    %ebx
    522e:	5e                   	pop    %esi
    522f:	5f                   	pop    %edi
    5230:	5d                   	pop    %ebp
    5231:	c3                   	ret    
    5232:	8d b4 26 00 00 00 00 	lea    0x0(%esi,%eiz,1),%esi
    5239:	8d bc 27 00 00 00 00 	lea    0x0(%edi,%eiz,1),%edi
    5240:	8b 48 24             	mov    0x24(%eax),%ecx
    5243:	85 c9                	test   %ecx,%ecx
    5245:	74 29                	je     0x5270
    5247:	89 50 24             	mov    %edx,0x24(%eax)
    524a:	89 51 28             	mov    %edx,0x28(%ecx)
    524d:	89 42 28             	mov    %eax,0x28(%edx)
    5250:	8b 45 ec             	mov    -0x14(%ebp),%eax
    5253:	89 4a 24             	mov    %ecx,0x24(%edx)
    5256:	83 c0 01             	add    $0x1,%eax
    5259:	89 06                	mov    %eax,(%esi)
    525b:	83 c4 10             	add    $0x10,%esp
    525e:	5b                   	pop    %ebx
    525f:	5e                   	pop    %esi
    5260:	5f                   	pop    %edi
    5261:	5d                   	pop    %ebp
    5262:	c3                   	ret    
    5263:	8b 45 e8             	mov    -0x18(%ebp),%eax
    5266:	e9 67 ff ff ff       	jmp    0x51d2
    526b:	90                   	nop
    526c:	8d 74 26 00          	lea    0x0(%esi,%eiz,1),%esi
    5270:	8b 4d e8             	mov    -0x18(%ebp),%ecx
    5273:	c7 42 24 00 00 00 00 	movl   $0x0,0x24(%edx)
    527a:	83 06 01             	addl   $0x1,(%esi)
    527d:	89 4a 28             	mov    %ecx,0x28(%edx)
    5280:	89 51 24             	mov    %edx,0x24(%ecx)
    5283:	89 56 04             	mov    %edx,0x4(%esi)
    5286:	e9 66 ff ff ff       	jmp    0x51f1
    528b:	90                   	nop
    528c:	90                   	nop
    528d:	90                   	nop
    528e:	90                   	nop
    528f:	90                   	nop
    5290:	55                   	push   %ebp
    5291:	b8 80 03 50 00       	mov    $0x500380,%eax
    5296:	89 e5                	mov    %esp,%ebp
    5298:	90                   	nop
    5299:	8d b4 26 00 00 00 00 	lea    0x0(%esi,%eiz,1),%esi
    52a0:	c7 00 00 00 00 00    	movl   $0x0,(%eax)
    52a6:	c7 40 04 00 00 00 00 	movl   $0x0,0x4(%eax)
    52ad:	c7 40 08 00 00 00 00 	movl   $0x0,0x8(%eax)
    52b4:	c7 40 0c 00 00 00 00 	movl   $0x0,0xc(%eax)
    52bb:	83 c0 10             	add    $0x10,%eax
    52be:	3d 00 04 50 00       	cmp    $0x500400,%eax
    52c3:	75 db                	jne    0x52a0
    52c5:	c7 05 00 04 50 00 00 	movl   $0x0,0x500400
    52cc:	00 00 00 
    52cf:	5d                   	pop    %ebp
    52d0:	c7 05 04 04 50 00 00 	movl   $0x0,0x500404
    52d7:	00 00 00 
    52da:	c3                   	ret    
    52db:	90                   	nop
    52dc:	90                   	nop
    52dd:	90                   	nop
    52de:	90                   	nop
    52df:	90                   	nop
    52e0:	55                   	push   %ebp
    52e1:	89 e5                	mov    %esp,%ebp
    52e3:	57                   	push   %edi
    52e4:	56                   	push   %esi
    52e5:	53                   	push   %ebx
    52e6:	83 ec 18             	sub    $0x18,%esp
    52e9:	a1 18 04 50 00       	mov    0x500418,%eax
    52ee:	8b 55 08             	mov    0x8(%ebp),%edx
    52f1:	8b 75 0c             	mov    0xc(%ebp),%esi
    52f4:	89 45 e8             	mov    %eax,-0x18(%ebp)
    52f7:	8b 40 20             	mov    0x20(%eax),%eax
    52fa:	8d 5a 1c             	lea    0x1c(%edx),%ebx
    52fd:	89 5d ec             	mov    %ebx,-0x14(%ebp)
    5300:	c1 e8 18             	shr    $0x18,%eax
    5303:	c1 e0 04             	shl    $0x4,%eax
    5306:	8b 80 8c 03 50 00    	mov    0x50038c(%eax),%eax
    530c:	8b 4a 3c             	mov    0x3c(%edx),%ecx
    530f:	89 c8                	mov    %ecx,%eax
    5311:	c1 e0 04             	shl    $0x4,%eax
    5314:	8b 98 8c 03 50 00    	mov    0x50038c(%eax),%ebx
    531a:	39 5d ec             	cmp    %ebx,-0x14(%ebp)
    531d:	0f 84 6d 01 00 00    	je     0x5490
    5323:	8b b8 80 03 50 00    	mov    0x500380(%eax),%edi
    5329:	83 ff 01             	cmp    $0x1,%edi
    532c:	0f 84 de 01 00 00    	je     0x5510
    5332:	8b 4a 40             	mov    0x40(%edx),%ecx
    5335:	85 c9                	test   %ecx,%ecx
    5337:	0f 84 a3 01 00 00    	je     0x54e0
    533d:	8b 5a 44             	mov    0x44(%edx),%ebx
    5340:	85 db                	test   %ebx,%ebx
    5342:	0f 84 f8 01 00 00    	je     0x5540
    5348:	89 59 28             	mov    %ebx,0x28(%ecx)
    534b:	8b 5a 44             	mov    0x44(%edx),%ebx
    534e:	83 ef 01             	sub    $0x1,%edi
    5351:	89 b8 80 03 50 00    	mov    %edi,0x500380(%eax)
    5357:	89 4b 24             	mov    %ecx,0x24(%ebx)
    535a:	8b 06                	mov    (%esi),%eax
    535c:	c7 42 10 02 00 00 00 	movl   $0x2,0x10(%edx)
    5363:	85 c0                	test   %eax,%eax
    5365:	89 45 e4             	mov    %eax,-0x1c(%ebp)
    5368:	0f 84 92 00 00 00    	je     0x5400
    536e:	8b 4e 04             	mov    0x4(%esi),%ecx
    5371:	8d 42 20             	lea    0x20(%edx),%eax
    5374:	89 45 f0             	mov    %eax,-0x10(%ebp)
    5377:	89 cf                	mov    %ecx,%edi
    5379:	89 cb                	mov    %ecx,%ebx
    537b:	89 4d e0             	mov    %ecx,-0x20(%ebp)
    537e:	8b 49 04             	mov    0x4(%ecx),%ecx
    5381:	83 c7 04             	add    $0x4,%edi
    5384:	8b 42 20             	mov    0x20(%edx),%eax
    5387:	39 c8                	cmp    %ecx,%eax
    5389:	0f 8d c1 00 00 00    	jge    0x5450
    538f:	8b 45 e0             	mov    -0x20(%ebp),%eax
    5392:	8d b4 26 00 00 00 00 	lea    0x0(%esi,%eiz,1),%esi
    5399:	8d bc 27 00 00 00 00 	lea    0x0(%edi,%eiz,1),%edi
    53a0:	8b 0f                	mov    (%edi),%ecx
    53a2:	8b 5a 20             	mov    0x20(%edx),%ebx
    53a5:	39 d9                	cmp    %ebx,%ecx
    53a7:	7f 77                	jg     0x5420
    53a9:	8b 46 08             	mov    0x8(%esi),%eax
    53ac:	8b 4d ec             	mov    -0x14(%ebp),%ecx
    53af:	83 06 01             	addl   $0x1,(%esi)
    53b2:	89 42 40             	mov    %eax,0x40(%edx)
    53b5:	89 48 28             	mov    %ecx,0x28(%eax)
    53b8:	c7 42 44 00 00 00 00 	movl   $0x0,0x44(%edx)
    53bf:	89 4e 08             	mov    %ecx,0x8(%esi)
    53c2:	8d b4 26 00 00 00 00 	lea    0x0(%esi,%eiz,1),%esi
    53c9:	8d bc 27 00 00 00 00 	lea    0x0(%edi,%eiz,1),%edi
    53d0:	8b 55 e8             	mov    -0x18(%ebp),%edx
    53d3:	8b 42 20             	mov    0x20(%edx),%eax
    53d6:	c1 e8 18             	shr    $0x18,%eax
    53d9:	8b 14 85 e0 02 50 00 	mov    0x5002e0(,%eax,4),%edx
    53e0:	83 c2 01             	add    $0x1,%edx
    53e3:	89 14 85 e0 02 50 00 	mov    %edx,0x5002e0(,%eax,4)
    53ea:	83 c4 18             	add    $0x18,%esp
    53ed:	5b                   	pop    %ebx
    53ee:	5e                   	pop    %esi
    53ef:	5f                   	pop    %edi
    53f0:	5d                   	pop    %ebp
    53f1:	c3                   	ret    
    53f2:	8d b4 26 00 00 00 00 	lea    0x0(%esi,%eiz,1),%esi
    53f9:	8d bc 27 00 00 00 00 	lea    0x0(%edi,%eiz,1),%edi
    5400:	c7 42 40 00 00 00 00 	movl   $0x0,0x40(%edx)
    5407:	c7 42 44 00 00 00 00 	movl   $0x0,0x44(%edx)
    540e:	8b 55 ec             	mov    -0x14(%ebp),%edx
    5411:	c7 06 01 00 00 00    	movl   $0x1,(%esi)
    5417:	89 56 04             	mov    %edx,0x4(%esi)
    541a:	89 56 08             	mov    %edx,0x8(%esi)
    541d:	eb b1                	jmp    0x53d0
    541f:	90                   	nop
    5420:	8b 48 24             	mov    0x24(%eax),%ecx
    5423:	85 c9                	test   %ecx,%ecx
    5425:	0f 84 75 01 00 00    	je     0x55a0
    542b:	8b 5d ec             	mov    -0x14(%ebp),%ebx
    542e:	89 58 24             	mov    %ebx,0x24(%eax)
    5431:	89 59 28             	mov    %ebx,0x28(%ecx)
    5434:	89 42 44             	mov    %eax,0x44(%edx)
    5437:	8b 45 e4             	mov    -0x1c(%ebp),%eax
    543a:	89 4a 40             	mov    %ecx,0x40(%edx)
    543d:	83 c0 01             	add    $0x1,%eax
    5440:	89 06                	mov    %eax,(%esi)
    5442:	eb 8c                	jmp    0x53d0
    5444:	8d b6 00 00 00 00    	lea    0x0(%esi),%esi
    544a:	8d bf 00 00 00 00    	lea    0x0(%edi),%edi
    5450:	8b 43 28             	mov    0x28(%ebx),%eax
    5453:	85 c0                	test   %eax,%eax
    5455:	0f 84 34 ff ff ff    	je     0x538f
    545b:	89 55 dc             	mov    %edx,-0x24(%ebp)
    545e:	66 90                	xchg   %ax,%ax
    5460:	8b 55 f0             	mov    -0x10(%ebp),%edx
    5463:	8d 78 04             	lea    0x4(%eax),%edi
    5466:	8b 58 04             	mov    0x4(%eax),%ebx
    5469:	8b 0a                	mov    (%edx),%ecx
    546b:	39 cb                	cmp    %ecx,%ebx
    546d:	7e 11                	jle    0x5480
    546f:	8b 55 dc             	mov    -0x24(%ebp),%edx
    5472:	e9 29 ff ff ff       	jmp    0x53a0
    5477:	89 f6                	mov    %esi,%esi
    5479:	8d bc 27 00 00 00 00 	lea    0x0(%edi,%eiz,1),%edi
    5480:	8b 48 28             	mov    0x28(%eax),%ecx
    5483:	85 c9                	test   %ecx,%ecx
    5485:	74 e8                	je     0x546f
    5487:	89 c8                	mov    %ecx,%eax
    5489:	eb d5                	jmp    0x5460
    548b:	90                   	nop
    548c:	8d 74 26 00          	lea    0x0(%esi,%eiz,1),%esi
    5490:	8b 98 80 03 50 00    	mov    0x500380(%eax),%ebx
    5496:	31 ff                	xor    %edi,%edi
    5498:	85 db                	test   %ebx,%ebx
    549a:	89 5d f0             	mov    %ebx,-0x10(%ebp)
    549d:	74 2b                	je     0x54ca
    549f:	83 fb 01             	cmp    $0x1,%ebx
    54a2:	0f 84 c8 00 00 00    	je     0x5570
    54a8:	8b b8 84 03 50 00    	mov    0x500384(%eax),%edi
    54ae:	8b 5f 28             	mov    0x28(%edi),%ebx
    54b1:	89 98 84 03 50 00    	mov    %ebx,0x500384(%eax)
    54b7:	c7 43 24 00 00 00 00 	movl   $0x0,0x24(%ebx)
    54be:	8b 5d f0             	mov    -0x10(%ebp),%ebx
    54c1:	83 eb 01             	sub    $0x1,%ebx
    54c4:	89 98 80 03 50 00    	mov    %ebx,0x500380(%eax)
    54ca:	c1 e1 04             	shl    $0x4,%ecx
    54cd:	89 b9 8c 03 50 00    	mov    %edi,0x50038c(%ecx)
    54d3:	e9 82 fe ff ff       	jmp    0x535a
    54d8:	90                   	nop
    54d9:	8d b4 26 00 00 00 00 	lea    0x0(%esi,%eiz,1),%esi
    54e0:	85 ff                	test   %edi,%edi
    54e2:	0f 84 72 fe ff ff    	je     0x535a
    54e8:	8b 88 84 03 50 00    	mov    0x500384(%eax),%ecx
    54ee:	83 ef 01             	sub    $0x1,%edi
    54f1:	89 b8 80 03 50 00    	mov    %edi,0x500380(%eax)
    54f7:	8b 49 28             	mov    0x28(%ecx),%ecx
    54fa:	89 88 84 03 50 00    	mov    %ecx,0x500384(%eax)
    5500:	c7 41 24 00 00 00 00 	movl   $0x0,0x24(%ecx)
    5507:	e9 4e fe ff ff       	jmp    0x535a
    550c:	8d 74 26 00          	lea    0x0(%esi,%eiz,1),%esi
    5510:	c7 80 84 03 50 00 00 	movl   $0x0,0x500384(%eax)
    5517:	00 00 00 
    551a:	c7 80 88 03 50 00 00 	movl   $0x0,0x500388(%eax)
    5521:	00 00 00 
    5524:	c7 80 80 03 50 00 00 	movl   $0x0,0x500380(%eax)
    552b:	00 00 00 
    552e:	e9 27 fe ff ff       	jmp    0x535a
    5533:	8d b6 00 00 00 00    	lea    0x0(%esi),%esi
    5539:	8d bc 27 00 00 00 00 	lea    0x0(%edi,%eiz,1),%edi
    5540:	85 ff                	test   %edi,%edi
    5542:	0f 84 12 fe ff ff    	je     0x535a
    5548:	8b 88 88 03 50 00    	mov    0x500388(%eax),%ecx
    554e:	83 ef 01             	sub    $0x1,%edi
    5551:	89 b8 80 03 50 00    	mov    %edi,0x500380(%eax)
    5557:	8b 49 24             	mov    0x24(%ecx),%ecx
    555a:	89 88 88 03 50 00    	mov    %ecx,0x500388(%eax)
    5560:	c7 41 28 00 00 00 00 	movl   $0x0,0x28(%ecx)
    5567:	e9 ee fd ff ff       	jmp    0x535a
    556c:	8d 74 26 00          	lea    0x0(%esi,%eiz,1),%esi
    5570:	8b b8 84 03 50 00    	mov    0x500384(%eax),%edi
    5576:	c7 80 88 03 50 00 00 	movl   $0x0,0x500388(%eax)
    557d:	00 00 00 
    5580:	c7 80 84 03 50 00 00 	movl   $0x0,0x500384(%eax)
    5587:	00 00 00 
    558a:	c7 80 80 03 50 00 00 	movl   $0x0,0x500380(%eax)
    5591:	00 00 00 
    5594:	e9 31 ff ff ff       	jmp    0x54ca
    5599:	8d b4 26 00 00 00 00 	lea    0x0(%esi,%eiz,1),%esi
    55a0:	8b 5d e0             	mov    -0x20(%ebp),%ebx
    55a3:	8b 45 ec             	mov    -0x14(%ebp),%eax
    55a6:	c7 42 40 00 00 00 00 	movl   $0x0,0x40(%edx)
    55ad:	83 06 01             	addl   $0x1,(%esi)
    55b0:	89 5a 44             	mov    %ebx,0x44(%edx)
    55b3:	89 43 24             	mov    %eax,0x24(%ebx)
    55b6:	89 46 04             	mov    %eax,0x4(%esi)
    55b9:	e9 12 fe ff ff       	jmp    0x53d0
    55be:	90                   	nop
    55bf:	90                   	nop
    55c0:	55                   	push   %ebp
    55c1:	89 e5                	mov    %esp,%ebp
    55c3:	57                   	push   %edi
    55c4:	56                   	push   %esi
    55c5:	53                   	push   %ebx
    55c6:	83 ec 3c             	sub    $0x3c,%esp
    55c9:	fa                   	cli    
    55ca:	80 3d 84 02 50 00 00 	cmpb   $0x0,0x500284
    55d1:	0f 84 c9 01 00 00    	je     0x57a0
    55d7:	a1 18 04 50 00       	mov    0x500418,%eax
    55dc:	8b 40 20             	mov    0x20(%eax),%eax
    55df:	c1 e8 18             	shr    $0x18,%eax
    55e2:	c1 e0 04             	shl    $0x4,%eax
    55e5:	8b 80 8c 03 50 00    	mov    0x50038c(%eax),%eax
    55eb:	8b 10                	mov    (%eax),%edx
    55ed:	31 c9                	xor    %ecx,%ecx
    55ef:	90                   	nop
    55f0:	89 c8                	mov    %ecx,%eax
    55f2:	f0 0f b1 15 04 04 50 	lock cmpxchg %edx,0x500404
    55f9:	00 
    55fa:	39 c2                	cmp    %eax,%edx
    55fc:	75 f2                	jne    0x55f0
    55fe:	a1 00 04 50 00       	mov    0x500400,%eax
    5603:	8b 1d 18 04 50 00    	mov    0x500418,%ebx
    5609:	8b 55 08             	mov    0x8(%ebp),%edx
    560c:	8b 7d 08             	mov    0x8(%ebp),%edi
    560f:	83 c0 01             	add    $0x1,%eax
    5612:	a3 00 04 50 00       	mov    %eax,0x500400
    5617:	a1 c4 02 50 00       	mov    0x5002c4,%eax
    561c:	83 c7 1c             	add    $0x1c,%edi
    561f:	83 c0 01             	add    $0x1,%eax
    5622:	a3 c4 02 50 00       	mov    %eax,0x5002c4
    5627:	8b 43 20             	mov    0x20(%ebx),%eax
    562a:	c1 e8 18             	shr    $0x18,%eax
    562d:	c1 e0 04             	shl    $0x4,%eax
    5630:	8b 80 8c 03 50 00    	mov    0x50038c(%eax),%eax
    5636:	8b 52 3c             	mov    0x3c(%edx),%edx
    5639:	89 d0                	mov    %edx,%eax
    563b:	c1 e0 04             	shl    $0x4,%eax
    563e:	89 55 e0             	mov    %edx,-0x20(%ebp)
    5641:	8b 90 8c 03 50 00    	mov    0x50038c(%eax),%edx
    5647:	85 d2                	test   %edx,%edx
    5649:	0f 84 9a 02 00 00    	je     0x58e9
    564f:	8b 88 80 03 50 00    	mov    0x500380(%eax),%ecx
    5655:	85 c9                	test   %ecx,%ecx
    5657:	89 4d dc             	mov    %ecx,-0x24(%ebp)
    565a:	0f 84 53 01 00 00    	je     0x57b3
    5660:	8b 80 84 03 50 00    	mov    0x500384(%eax),%eax
    5666:	8b 4d 08             	mov    0x8(%ebp),%ecx
    5669:	8b 50 04             	mov    0x4(%eax),%edx
    566c:	89 c6                	mov    %eax,%esi
    566e:	89 45 d8             	mov    %eax,-0x28(%ebp)
    5671:	8b 45 08             	mov    0x8(%ebp),%eax
    5674:	83 c6 04             	add    $0x4,%esi
    5677:	83 c0 20             	add    $0x20,%eax
    567a:	89 45 e4             	mov    %eax,-0x1c(%ebp)
    567d:	8b 41 20             	mov    0x20(%ecx),%eax
    5680:	39 d0                	cmp    %edx,%eax
    5682:	0f 8d 8b 02 00 00    	jge    0x5913
    5688:	8b 16                	mov    (%esi),%edx
    568a:	8b 75 08             	mov    0x8(%ebp),%esi
    568d:	8b 45 d8             	mov    -0x28(%ebp),%eax
    5690:	8b 4e 20             	mov    0x20(%esi),%ecx
    5693:	39 ca                	cmp    %ecx,%edx
    5695:	0f 8f b7 02 00 00    	jg     0x5952
    569b:	90                   	nop
    569c:	8d 74 26 00          	lea    0x0(%esi,%eiz,1),%esi
    56a0:	8b 45 e0             	mov    -0x20(%ebp),%eax
    56a3:	c1 e0 04             	shl    $0x4,%eax
    56a6:	8b 90 88 03 50 00    	mov    0x500388(%eax),%edx
    56ac:	83 80 80 03 50 00 01 	addl   $0x1,0x500380(%eax)
    56b3:	89 7a 28             	mov    %edi,0x28(%edx)
    56b6:	89 56 40             	mov    %edx,0x40(%esi)
    56b9:	c7 46 44 00 00 00 00 	movl   $0x0,0x44(%esi)
    56c0:	89 b8 88 03 50 00    	mov    %edi,0x500388(%eax)
    56c6:	8b 43 20             	mov    0x20(%ebx),%eax
    56c9:	c1 e8 18             	shr    $0x18,%eax
    56cc:	85 c0                	test   %eax,%eax
    56ce:	0f 84 14 01 00 00    	je     0x57e8
    56d4:	8d b6 00 00 00 00    	lea    0x0(%esi),%esi
    56da:	8d bf 00 00 00 00    	lea    0x0(%edi),%edi
    56e0:	8b 1d 58 02 50 00    	mov    0x500258,%ebx
    56e6:	31 f6                	xor    %esi,%esi
    56e8:	e8 b3 d1 ff ff       	call   0x28a0
    56ed:	8b 7d 10             	mov    0x10(%ebp),%edi
    56f0:	85 ff                	test   %edi,%edi
    56f2:	0f 84 8f 00 00 00    	je     0x5787
    56f8:	8b 4d 10             	mov    0x10(%ebp),%ecx
    56fb:	83 c1 04             	add    $0x4,%ecx
    56fe:	83 f9 0f             	cmp    $0xf,%ecx
    5701:	77 05                	ja     0x5708
    5703:	b9 10 00 00 00       	mov    $0x10,%ecx
    5708:	8b 7b 04             	mov    0x4(%ebx),%edi
    570b:	85 ff                	test   %edi,%edi
    570d:	89 f8                	mov    %edi,%eax
    570f:	0f 84 3d 03 00 00    	je     0x5a52
    5715:	8b 57 04             	mov    0x4(%edi),%edx
    5718:	8d 71 10             	lea    0x10(%ecx),%esi
    571b:	39 d6                	cmp    %edx,%esi
    571d:	76 17                	jbe    0x5736
    571f:	90                   	nop
    5720:	39 ca                	cmp    %ecx,%edx
    5722:	74 12                	je     0x5736
    5724:	8b 40 0c             	mov    0xc(%eax),%eax
    5727:	85 c0                	test   %eax,%eax
    5729:	0f 84 23 03 00 00    	je     0x5a52
    572f:	8b 50 04             	mov    0x4(%eax),%edx
    5732:	39 d6                	cmp    %edx,%esi
    5734:	77 ea                	ja     0x5720
    5736:	29 ca                	sub    %ecx,%edx
    5738:	89 50 04             	mov    %edx,0x4(%eax)
    573b:	29 4b 0c             	sub    %ecx,0xc(%ebx)
    573e:	8b 50 04             	mov    0x4(%eax),%edx
    5741:	85 d2                	test   %edx,%edx
    5743:	75 3b                	jne    0x5780
    5745:	8b 33                	mov    (%ebx),%esi
    5747:	83 fe 01             	cmp    $0x1,%esi
    574a:	89 75 e4             	mov    %esi,-0x1c(%ebp)
    574d:	0f 84 2c 02 00 00    	je     0x597f
    5753:	8b 70 08             	mov    0x8(%eax),%esi
    5756:	85 f6                	test   %esi,%esi
    5758:	0f 84 9e 02 00 00    	je     0x59fc
    575e:	8b 78 0c             	mov    0xc(%eax),%edi
    5761:	85 ff                	test   %edi,%edi
    5763:	0f 84 b5 02 00 00    	je     0x5a1e
    5769:	89 7e 0c             	mov    %edi,0xc(%esi)
    576c:	8b 50 0c             	mov    0xc(%eax),%edx
    576f:	83 2b 01             	subl   $0x1,(%ebx)
    5772:	89 72 08             	mov    %esi,0x8(%edx)
    5775:	8b 50 04             	mov    0x4(%eax),%edx
    5778:	90                   	nop
    5779:	8d b4 26 00 00 00 00 	lea    0x0(%esi,%eiz,1),%esi
    5780:	03 10                	add    (%eax),%edx
    5782:	89 0a                	mov    %ecx,(%edx)
    5784:	8d 72 04             	lea    0x4(%edx),%esi
    5787:	e8 c4 d0 ff ff       	call   0x2850
    578c:	8b 7d 08             	mov    0x8(%ebp),%edi
    578f:	89 77 08             	mov    %esi,0x8(%edi)
    5792:	83 c4 3c             	add    $0x3c,%esp
    5795:	5b                   	pop    %ebx
    5796:	5e                   	pop    %esi
    5797:	5f                   	pop    %edi
    5798:	5d                   	pop    %ebp
    5799:	c3                   	ret    
    579a:	8d b6 00 00 00 00    	lea    0x0(%esi),%esi
    57a0:	a1 18 04 50 00       	mov    0x500418,%eax
    57a5:	8b 50 20             	mov    0x20(%eax),%edx
    57a8:	c1 ea 18             	shr    $0x18,%edx
    57ab:	83 c2 01             	add    $0x1,%edx
    57ae:	e9 3a fe ff ff       	jmp    0x55ed
    57b3:	8b 75 08             	mov    0x8(%ebp),%esi
    57b6:	c7 80 80 03 50 00 01 	movl   $0x1,0x500380(%eax)
    57bd:	00 00 00 
    57c0:	c7 46 40 00 00 00 00 	movl   $0x0,0x40(%esi)
    57c7:	c7 46 44 00 00 00 00 	movl   $0x0,0x44(%esi)
    57ce:	89 b8 84 03 50 00    	mov    %edi,0x500384(%eax)
    57d4:	89 b8 88 03 50 00    	mov    %edi,0x500388(%eax)
    57da:	8b 43 20             	mov    0x20(%ebx),%eax
    57dd:	c1 e8 18             	shr    $0x18,%eax
    57e0:	85 c0                	test   %eax,%eax
    57e2:	0f 85 f8 fe ff ff    	jne    0x56e0
    57e8:	a1 ec 04 50 00       	mov    0x5004ec,%eax
    57ed:	85 c0                	test   %eax,%eax
    57ef:	0f 84 eb fe ff ff    	je     0x56e0
    57f5:	31 f6                	xor    %esi,%esi
    57f7:	89 f6                	mov    %esi,%esi
    57f9:	8d bc 27 00 00 00 00 	lea    0x0(%edi,%eiz,1),%edi
    5800:	8b 1d 58 02 50 00    	mov    0x500258,%ebx
    5806:	e8 95 d0 ff ff       	call   0x28a0
    580b:	8b 4b 04             	mov    0x4(%ebx),%ecx
    580e:	85 c9                	test   %ecx,%ecx
    5810:	89 c8                	mov    %ecx,%eax
    5812:	0f 84 2b 02 00 00    	je     0x5a43
    5818:	8b 51 04             	mov    0x4(%ecx),%edx
    581b:	83 fa 1f             	cmp    $0x1f,%edx
    581e:	77 18                	ja     0x5838
    5820:	83 fa 10             	cmp    $0x10,%edx
    5823:	74 13                	je     0x5838
    5825:	8b 40 0c             	mov    0xc(%eax),%eax
    5828:	85 c0                	test   %eax,%eax
    582a:	0f 84 13 02 00 00    	je     0x5a43
    5830:	8b 50 04             	mov    0x4(%eax),%edx
    5833:	83 fa 1f             	cmp    $0x1f,%edx
    5836:	76 e8                	jbe    0x5820
    5838:	83 ea 10             	sub    $0x10,%edx
    583b:	89 50 04             	mov    %edx,0x4(%eax)
    583e:	83 6b 0c 10          	subl   $0x10,0xc(%ebx)
    5842:	8b 50 04             	mov    0x4(%eax),%edx
    5845:	85 d2                	test   %edx,%edx
    5847:	75 37                	jne    0x5880
    5849:	8b 3b                	mov    (%ebx),%edi
    584b:	83 ff 01             	cmp    $0x1,%edi
    584e:	89 7d e4             	mov    %edi,-0x1c(%ebp)
    5851:	74 7d                	je     0x58d0
    5853:	8b 78 08             	mov    0x8(%eax),%edi
    5856:	85 ff                	test   %edi,%edi
    5858:	0f 84 96 00 00 00    	je     0x58f4
    585e:	8b 48 0c             	mov    0xc(%eax),%ecx
    5861:	85 c9                	test   %ecx,%ecx
    5863:	0f 84 42 01 00 00    	je     0x59ab
    5869:	89 4f 0c             	mov    %ecx,0xc(%edi)
    586c:	8b 50 0c             	mov    0xc(%eax),%edx
    586f:	83 2b 01             	subl   $0x1,(%ebx)
    5872:	89 7a 08             	mov    %edi,0x8(%edx)
    5875:	8b 50 04             	mov    0x4(%eax),%edx
    5878:	90                   	nop
    5879:	8d b4 26 00 00 00 00 	lea    0x0(%esi,%eiz,1),%esi
    5880:	03 10                	add    (%eax),%edx
    5882:	c7 02 10 00 00 00    	movl   $0x10,(%edx)
    5888:	8d 5a 04             	lea    0x4(%edx),%ebx
    588b:	e8 c0 cf ff ff       	call   0x2850
    5890:	c7 03 00 00 00 00    	movl   $0x0,(%ebx)
    5896:	c7 43 04 00 00 00 00 	movl   $0x0,0x4(%ebx)
    589d:	c7 43 08 00 00 00 00 	movl   $0x0,0x8(%ebx)
    58a4:	c7 04 b5 e0 02 50 00 	movl   $0x0,0x5002e0(,%esi,4)
    58ab:	00 00 00 00 
    58af:	a1 ec 04 50 00       	mov    0x5004ec,%eax
    58b4:	89 1c b5 a0 02 50 00 	mov    %ebx,0x5002a0(,%esi,4)
    58bb:	83 c6 01             	add    $0x1,%esi
    58be:	39 c6                	cmp    %eax,%esi
    58c0:	0f 82 3a ff ff ff    	jb     0x5800
    58c6:	e9 15 fe ff ff       	jmp    0x56e0
    58cb:	90                   	nop
    58cc:	8d 74 26 00          	lea    0x0(%esi,%eiz,1),%esi
    58d0:	c7 03 00 00 00 00    	movl   $0x0,(%ebx)
    58d6:	8b 50 04             	mov    0x4(%eax),%edx
    58d9:	c7 43 04 00 00 00 00 	movl   $0x0,0x4(%ebx)
    58e0:	c7 43 08 00 00 00 00 	movl   $0x0,0x8(%ebx)
    58e7:	eb 97                	jmp    0x5880
    58e9:	89 b8 8c 03 50 00    	mov    %edi,0x50038c(%eax)
    58ef:	e9 e6 fe ff ff       	jmp    0x57da
    58f4:	8b 7d e4             	mov    -0x1c(%ebp),%edi
    58f7:	85 ff                	test   %edi,%edi
    58f9:	74 85                	je     0x5880
    58fb:	8b 51 0c             	mov    0xc(%ecx),%edx
    58fe:	83 2b 01             	subl   $0x1,(%ebx)
    5901:	89 53 04             	mov    %edx,0x4(%ebx)
    5904:	c7 42 08 00 00 00 00 	movl   $0x0,0x8(%edx)
    590b:	8b 50 04             	mov    0x4(%eax),%edx
    590e:	e9 6d ff ff ff       	jmp    0x5880
    5913:	8b 55 d8             	mov    -0x28(%ebp),%edx
    5916:	8b 42 28             	mov    0x28(%edx),%eax
    5919:	85 c0                	test   %eax,%eax
    591b:	0f 84 67 fd ff ff    	je     0x5688
    5921:	89 5d d4             	mov    %ebx,-0x2c(%ebp)
    5924:	8d b6 00 00 00 00    	lea    0x0(%esi),%esi
    592a:	8d bf 00 00 00 00    	lea    0x0(%edi),%edi
    5930:	8b 5d e4             	mov    -0x1c(%ebp),%ebx
    5933:	8d 70 04             	lea    0x4(%eax),%esi
    5936:	8b 48 04             	mov    0x4(%eax),%ecx
    5939:	8b 13                	mov    (%ebx),%edx
    593b:	39 d1                	cmp    %edx,%ecx
    593d:	7e 61                	jle    0x59a0
    593f:	8b 16                	mov    (%esi),%edx
    5941:	8b 75 08             	mov    0x8(%ebp),%esi
    5944:	8b 5d d4             	mov    -0x2c(%ebp),%ebx
    5947:	8b 4e 20             	mov    0x20(%esi),%ecx
    594a:	39 ca                	cmp    %ecx,%edx
    594c:	0f 8e 4e fd ff ff    	jle    0x56a0
    5952:	8b 50 24             	mov    0x24(%eax),%edx
    5955:	85 d2                	test   %edx,%edx
    5957:	74 78                	je     0x59d1
    5959:	8b 4d 08             	mov    0x8(%ebp),%ecx
    595c:	89 7a 28             	mov    %edi,0x28(%edx)
    595f:	89 78 24             	mov    %edi,0x24(%eax)
    5962:	89 41 44             	mov    %eax,0x44(%ecx)
    5965:	8b 45 e0             	mov    -0x20(%ebp),%eax
    5968:	89 51 40             	mov    %edx,0x40(%ecx)
    596b:	8b 55 dc             	mov    -0x24(%ebp),%edx
    596e:	c1 e0 04             	shl    $0x4,%eax
    5971:	83 c2 01             	add    $0x1,%edx
    5974:	89 90 80 03 50 00    	mov    %edx,0x500380(%eax)
    597a:	e9 5b fe ff ff       	jmp    0x57da
    597f:	c7 03 00 00 00 00    	movl   $0x0,(%ebx)
    5985:	8b 50 04             	mov    0x4(%eax),%edx
    5988:	c7 43 04 00 00 00 00 	movl   $0x0,0x4(%ebx)
    598f:	c7 43 08 00 00 00 00 	movl   $0x0,0x8(%ebx)
    5996:	e9 e5 fd ff ff       	jmp    0x5780
    599b:	90                   	nop
    599c:	8d 74 26 00          	lea    0x0(%esi,%eiz,1),%esi
    59a0:	8b 50 28             	mov    0x28(%eax),%edx
    59a3:	85 d2                	test   %edx,%edx
    59a5:	74 98                	je     0x593f
    59a7:	89 d0                	mov    %edx,%eax
    59a9:	eb 85                	jmp    0x5930
    59ab:	8b 4d e4             	mov    -0x1c(%ebp),%ecx
    59ae:	85 c9                	test   %ecx,%ecx
    59b0:	0f 84 ca fe ff ff    	je     0x5880
    59b6:	8b 53 08             	mov    0x8(%ebx),%edx
    59b9:	83 2b 01             	subl   $0x1,(%ebx)
    59bc:	8b 52 08             	mov    0x8(%edx),%edx
    59bf:	89 53 08             	mov    %edx,0x8(%ebx)
    59c2:	c7 42 0c 00 00 00 00 	movl   $0x0,0xc(%edx)
    59c9:	8b 50 04             	mov    0x4(%eax),%edx
    59cc:	e9 af fe ff ff       	jmp    0x5880
    59d1:	8b 45 08             	mov    0x8(%ebp),%eax
    59d4:	8b 55 d8             	mov    -0x28(%ebp),%edx
    59d7:	c7 40 40 00 00 00 00 	movl   $0x0,0x40(%eax)
    59de:	89 50 44             	mov    %edx,0x44(%eax)
    59e1:	8b 45 e0             	mov    -0x20(%ebp),%eax
    59e4:	89 7a 24             	mov    %edi,0x24(%edx)
    59e7:	c1 e0 04             	shl    $0x4,%eax
    59ea:	89 b8 84 03 50 00    	mov    %edi,0x500384(%eax)
    59f0:	83 80 80 03 50 00 01 	addl   $0x1,0x500380(%eax)
    59f7:	e9 de fd ff ff       	jmp    0x57da
    59fc:	83 7d e4 00          	cmpl   $0x0,-0x1c(%ebp)
    5a00:	0f 84 7a fd ff ff    	je     0x5780
    5a06:	8b 57 0c             	mov    0xc(%edi),%edx
    5a09:	83 2b 01             	subl   $0x1,(%ebx)
    5a0c:	89 53 04             	mov    %edx,0x4(%ebx)
    5a0f:	c7 42 08 00 00 00 00 	movl   $0x0,0x8(%edx)
    5a16:	8b 50 04             	mov    0x4(%eax),%edx
    5a19:	e9 62 fd ff ff       	jmp    0x5780
    5a1e:	83 7d e4 00          	cmpl   $0x0,-0x1c(%ebp)
    5a22:	0f 84 58 fd ff ff    	je     0x5780
    5a28:	8b 53 08             	mov    0x8(%ebx),%edx
    5a2b:	83 2b 01             	subl   $0x1,(%ebx)
    5a2e:	8b 52 08             	mov    0x8(%edx),%edx
    5a31:	89 53 08             	mov    %edx,0x8(%ebx)
    5a34:	c7 42 0c 00 00 00 00 	movl   $0x0,0xc(%edx)
    5a3b:	8b 50 04             	mov    0x4(%eax),%edx
    5a3e:	e9 3d fd ff ff       	jmp    0x5780
    5a43:	89 1c 24             	mov    %ebx,(%esp)
    5a46:	31 db                	xor    %ebx,%ebx
    5a48:	e8 83 cf ff ff       	call   0x29d0
    5a4d:	e9 39 fe ff ff       	jmp    0x588b
    5a52:	89 1c 24             	mov    %ebx,(%esp)
    5a55:	31 f6                	xor    %esi,%esi
    5a57:	e8 74 cf ff ff       	call   0x29d0
    5a5c:	e9 26 fd ff ff       	jmp    0x5787
    5a61:	90                   	nop
    5a62:	90                   	nop
    5a63:	90                   	nop
    5a64:	90                   	nop
    5a65:	90                   	nop
    5a66:	90                   	nop
    5a67:	90                   	nop
    5a68:	90                   	nop
    5a69:	90                   	nop
    5a6a:	90                   	nop
    5a6b:	90                   	nop
    5a6c:	90                   	nop
    5a6d:	90                   	nop
    5a6e:	90                   	nop
    5a6f:	90                   	nop
    5a70:	55                   	push   %ebp
    5a71:	89 e5                	mov    %esp,%ebp
    5a73:	57                   	push   %edi
    5a74:	56                   	push   %esi
    5a75:	53                   	push   %ebx
    5a76:	83 ec 10             	sub    $0x10,%esp
    5a79:	8b 15 18 04 50 00    	mov    0x500418,%edx
    5a7f:	8b 42 20             	mov    0x20(%edx),%eax
    5a82:	c1 e8 18             	shr    $0x18,%eax
    5a85:	c1 e0 04             	shl    $0x4,%eax
    5a88:	8b 80 8c 03 50 00    	mov    0x50038c(%eax),%eax
    5a8e:	8b 42 20             	mov    0x20(%edx),%eax
    5a91:	c1 e8 18             	shr    $0x18,%eax
    5a94:	89 c2                	mov    %eax,%edx
    5a96:	c1 e2 04             	shl    $0x4,%edx
    5a99:	8b 9a 80 03 50 00    	mov    0x500380(%edx),%ebx
    5a9f:	85 db                	test   %ebx,%ebx
    5aa1:	0f 84 d9 00 00 00    	je     0x5b80
    5aa7:	8b b2 84 03 50 00    	mov    0x500384(%edx),%esi
    5aad:	8b 4e 04             	mov    0x4(%esi),%ecx
    5ab0:	81 f9 ff ff ff 7f    	cmp    $0x7fffffff,%ecx
    5ab6:	0f 84 c4 00 00 00    	je     0x5b80
    5abc:	83 fb 01             	cmp    $0x1,%ebx
    5abf:	8b 8a 8c 03 50 00    	mov    0x50038c(%edx),%ecx
    5ac5:	0f 84 45 01 00 00    	je     0x5c10
    5acb:	8b 7e 28             	mov    0x28(%esi),%edi
    5ace:	83 eb 01             	sub    $0x1,%ebx
    5ad1:	89 9a 80 03 50 00    	mov    %ebx,0x500380(%edx)
    5ad7:	89 ba 84 03 50 00    	mov    %edi,0x500384(%edx)
    5add:	c7 47 24 00 00 00 00 	movl   $0x0,0x24(%edi)
    5ae4:	89 c2                	mov    %eax,%edx
    5ae6:	c1 e2 04             	shl    $0x4,%edx
    5ae9:	8b 9a 80 03 50 00    	mov    0x500380(%edx),%ebx
    5aef:	89 b2 8c 03 50 00    	mov    %esi,0x50038c(%edx)
    5af5:	85 db                	test   %ebx,%ebx
    5af7:	89 5d ec             	mov    %ebx,-0x14(%ebp)
    5afa:	0f 84 b0 00 00 00    	je     0x5bb0
    5b00:	8b ba 84 03 50 00    	mov    0x500384(%edx),%edi
    5b06:	8d 51 04             	lea    0x4(%ecx),%edx
    5b09:	89 55 e8             	mov    %edx,-0x18(%ebp)
    5b0c:	8b 5f 04             	mov    0x4(%edi),%ebx
    5b0f:	8d 77 04             	lea    0x4(%edi),%esi
    5b12:	8b 51 04             	mov    0x4(%ecx),%edx
    5b15:	39 da                	cmp    %ebx,%edx
    5b17:	0f 8c 23 01 00 00    	jl     0x5c40
    5b1d:	8b 57 28             	mov    0x28(%edi),%edx
    5b20:	85 d2                	test   %edx,%edx
    5b22:	0f 84 18 01 00 00    	je     0x5c40
    5b28:	89 45 e4             	mov    %eax,-0x1c(%ebp)
    5b2b:	8b 45 e8             	mov    -0x18(%ebp),%eax
    5b2e:	8d 72 04             	lea    0x4(%edx),%esi
    5b31:	8b 5a 04             	mov    0x4(%edx),%ebx
    5b34:	8b 00                	mov    (%eax),%eax
    5b36:	39 c3                	cmp    %eax,%ebx
    5b38:	7e 66                	jle    0x5ba0
    5b3a:	8b 45 e4             	mov    -0x1c(%ebp),%eax
    5b3d:	8b 1e                	mov    (%esi),%ebx
    5b3f:	8b 71 04             	mov    0x4(%ecx),%esi
    5b42:	39 f3                	cmp    %esi,%ebx
    5b44:	0f 8e 96 00 00 00    	jle    0x5be0
    5b4a:	8b 5a 24             	mov    0x24(%edx),%ebx
    5b4d:	85 db                	test   %ebx,%ebx
    5b4f:	0f 84 fb 00 00 00    	je     0x5c50
    5b55:	89 4a 24             	mov    %ecx,0x24(%edx)
    5b58:	89 4b 28             	mov    %ecx,0x28(%ebx)
    5b5b:	89 59 24             	mov    %ebx,0x24(%ecx)
    5b5e:	89 51 28             	mov    %edx,0x28(%ecx)
    5b61:	8b 4d ec             	mov    -0x14(%ebp),%ecx
    5b64:	89 c2                	mov    %eax,%edx
    5b66:	c1 e2 04             	shl    $0x4,%edx
    5b69:	83 c1 01             	add    $0x1,%ecx
    5b6c:	89 8a 80 03 50 00    	mov    %ecx,0x500380(%edx)
    5b72:	8d b4 26 00 00 00 00 	lea    0x0(%esi,%eiz,1),%esi
    5b79:	8d bc 27 00 00 00 00 	lea    0x0(%edi,%eiz,1),%edi
    5b80:	c1 e0 04             	shl    $0x4,%eax
    5b83:	8b 80 8c 03 50 00    	mov    0x50038c(%eax),%eax
    5b89:	8b 00                	mov    (%eax),%eax
    5b8b:	83 c4 10             	add    $0x10,%esp
    5b8e:	5b                   	pop    %ebx
    5b8f:	5e                   	pop    %esi
    5b90:	5f                   	pop    %edi
    5b91:	5d                   	pop    %ebp
    5b92:	c3                   	ret    
    5b93:	8d b6 00 00 00 00    	lea    0x0(%esi),%esi
    5b99:	8d bc 27 00 00 00 00 	lea    0x0(%edi,%eiz,1),%edi
    5ba0:	8b 5a 28             	mov    0x28(%edx),%ebx
    5ba3:	85 db                	test   %ebx,%ebx
    5ba5:	74 93                	je     0x5b3a
    5ba7:	89 da                	mov    %ebx,%edx
    5ba9:	eb 80                	jmp    0x5b2b
    5bab:	90                   	nop
    5bac:	8d 74 26 00          	lea    0x0(%esi,%eiz,1),%esi
    5bb0:	c7 41 24 00 00 00 00 	movl   $0x0,0x24(%ecx)
    5bb7:	c7 41 28 00 00 00 00 	movl   $0x0,0x28(%ecx)
    5bbe:	c7 82 80 03 50 00 01 	movl   $0x1,0x500380(%edx)
    5bc5:	00 00 00 
    5bc8:	89 8a 84 03 50 00    	mov    %ecx,0x500384(%edx)
    5bce:	89 8a 88 03 50 00    	mov    %ecx,0x500388(%edx)
    5bd4:	eb aa                	jmp    0x5b80
    5bd6:	8d 76 00             	lea    0x0(%esi),%esi
    5bd9:	8d bc 27 00 00 00 00 	lea    0x0(%edi,%eiz,1),%edi
    5be0:	89 c2                	mov    %eax,%edx
    5be2:	c1 e2 04             	shl    $0x4,%edx
    5be5:	8b 9a 88 03 50 00    	mov    0x500388(%edx),%ebx
    5beb:	83 82 80 03 50 00 01 	addl   $0x1,0x500380(%edx)
    5bf2:	89 4b 28             	mov    %ecx,0x28(%ebx)
    5bf5:	89 59 24             	mov    %ebx,0x24(%ecx)
    5bf8:	c7 41 28 00 00 00 00 	movl   $0x0,0x28(%ecx)
    5bff:	89 8a 88 03 50 00    	mov    %ecx,0x500388(%edx)
    5c05:	e9 76 ff ff ff       	jmp    0x5b80
    5c0a:	8d b6 00 00 00 00    	lea    0x0(%esi),%esi
    5c10:	c7 82 84 03 50 00 00 	movl   $0x0,0x500384(%edx)
    5c17:	00 00 00 
    5c1a:	c7 82 88 03 50 00 00 	movl   $0x0,0x500388(%edx)
    5c21:	00 00 00 
    5c24:	c7 82 80 03 50 00 00 	movl   $0x0,0x500380(%edx)
    5c2b:	00 00 00 
    5c2e:	e9 b1 fe ff ff       	jmp    0x5ae4
    5c33:	8d b6 00 00 00 00    	lea    0x0(%esi),%esi
    5c39:	8d bc 27 00 00 00 00 	lea    0x0(%edi,%eiz,1),%edi
    5c40:	89 fa                	mov    %edi,%edx
    5c42:	e9 f6 fe ff ff       	jmp    0x5b3d
    5c47:	89 f6                	mov    %esi,%esi
    5c49:	8d bc 27 00 00 00 00 	lea    0x0(%edi,%eiz,1),%edi
    5c50:	89 c2                	mov    %eax,%edx
    5c52:	c1 e2 04             	shl    $0x4,%edx
    5c55:	c7 41 24 00 00 00 00 	movl   $0x0,0x24(%ecx)
    5c5c:	89 79 28             	mov    %edi,0x28(%ecx)
    5c5f:	89 4f 24             	mov    %ecx,0x24(%edi)
    5c62:	83 82 80 03 50 00 01 	addl   $0x1,0x500380(%edx)
    5c69:	89 8a 84 03 50 00    	mov    %ecx,0x500384(%edx)
    5c6f:	e9 0c ff ff ff       	jmp    0x5b80
    5c74:	90                   	nop
    5c75:	90                   	nop
    5c76:	90                   	nop
    5c77:	90                   	nop
    5c78:	90                   	nop
    5c79:	90                   	nop
    5c7a:	90                   	nop
    5c7b:	90                   	nop
    5c7c:	90                   	nop
    5c7d:	90                   	nop
    5c7e:	90                   	nop
    5c7f:	90                   	nop
    5c80:	55                   	push   %ebp
    5c81:	89 e5                	mov    %esp,%ebp
    5c83:	83 ec 24             	sub    $0x24,%esp
    5c86:	8b 45 08             	mov    0x8(%ebp),%eax
    5c89:	89 5d f4             	mov    %ebx,-0xc(%ebp)
    5c8c:	89 75 f8             	mov    %esi,-0x8(%ebp)
    5c8f:	89 7d fc             	mov    %edi,-0x4(%ebp)
    5c92:	8b 10                	mov    (%eax),%edx
    5c94:	85 d2                	test   %edx,%edx
    5c96:	0f 84 14 01 00 00    	je     0x5db0
    5c9c:	83 fa 01             	cmp    $0x1,%edx
    5c9f:	0f 84 1b 01 00 00    	je     0x5dc0
    5ca5:	8b 50 04             	mov    0x4(%eax),%edx
    5ca8:	83 28 01             	subl   $0x1,(%eax)
    5cab:	8b 4a 28             	mov    0x28(%edx),%ecx
    5cae:	89 48 04             	mov    %ecx,0x4(%eax)
    5cb1:	c7 41 24 00 00 00 00 	movl   $0x0,0x24(%ecx)
    5cb8:	8b 12                	mov    (%edx),%edx
    5cba:	8b 35 18 04 50 00    	mov    0x500418,%esi
    5cc0:	c7 42 10 01 00 00 00 	movl   $0x1,0x10(%edx)
    5cc7:	8b 46 20             	mov    0x20(%esi),%eax
    5cca:	c7 42 14 00 00 00 00 	movl   $0x0,0x14(%edx)
    5cd1:	c1 e8 18             	shr    $0x18,%eax
    5cd4:	c1 e0 04             	shl    $0x4,%eax
    5cd7:	8b 80 8c 03 50 00    	mov    0x50038c(%eax),%eax
    5cdd:	8d 42 1c             	lea    0x1c(%edx),%eax
    5ce0:	8b 4a 3c             	mov    0x3c(%edx),%ecx
    5ce3:	89 45 f0             	mov    %eax,-0x10(%ebp)
    5ce6:	89 c8                	mov    %ecx,%eax
    5ce8:	c1 e0 04             	shl    $0x4,%eax
    5ceb:	89 4d ec             	mov    %ecx,-0x14(%ebp)
    5cee:	8b 88 8c 03 50 00    	mov    0x50038c(%eax),%ecx
    5cf4:	85 c9                	test   %ecx,%ecx
    5cf6:	0f 84 94 00 00 00    	je     0x5d90
    5cfc:	8b 98 80 03 50 00    	mov    0x500380(%eax),%ebx
    5d02:	85 db                	test   %ebx,%ebx
    5d04:	89 5d e4             	mov    %ebx,-0x1c(%ebp)
    5d07:	0f 84 f3 00 00 00    	je     0x5e00
    5d0d:	8b 80 84 03 50 00    	mov    0x500384(%eax),%eax
    5d13:	8d 5a 20             	lea    0x20(%edx),%ebx
    5d16:	89 5d e8             	mov    %ebx,-0x18(%ebp)
    5d19:	89 c7                	mov    %eax,%edi
    5d1b:	8b 48 04             	mov    0x4(%eax),%ecx
    5d1e:	89 45 e0             	mov    %eax,-0x20(%ebp)
    5d21:	8b 42 20             	mov    0x20(%edx),%eax
    5d24:	83 c7 04             	add    $0x4,%edi
    5d27:	39 c8                	cmp    %ecx,%eax
    5d29:	0f 8c 2e 01 00 00    	jl     0x5e5d
    5d2f:	8b 4d e0             	mov    -0x20(%ebp),%ecx
    5d32:	8b 41 28             	mov    0x28(%ecx),%eax
    5d35:	85 c0                	test   %eax,%eax
    5d37:	0f 84 20 01 00 00    	je     0x5e5d
    5d3d:	89 55 dc             	mov    %edx,-0x24(%ebp)
    5d40:	8b 55 e8             	mov    -0x18(%ebp),%edx
    5d43:	8d 78 04             	lea    0x4(%eax),%edi
    5d46:	8b 58 04             	mov    0x4(%eax),%ebx
    5d49:	8b 0a                	mov    (%edx),%ecx
    5d4b:	39 cb                	cmp    %ecx,%ebx
    5d4d:	0f 8e 8d 00 00 00    	jle    0x5de0
    5d53:	8b 55 dc             	mov    -0x24(%ebp),%edx
    5d56:	8b 0f                	mov    (%edi),%ecx
    5d58:	8b 5a 20             	mov    0x20(%edx),%ebx
    5d5b:	39 d9                	cmp    %ebx,%ecx
    5d5d:	0f 8f cd 00 00 00    	jg     0x5e30
    5d63:	8b 45 ec             	mov    -0x14(%ebp),%eax
    5d66:	8b 5d f0             	mov    -0x10(%ebp),%ebx
    5d69:	c1 e0 04             	shl    $0x4,%eax
    5d6c:	8b 88 88 03 50 00    	mov    0x500388(%eax),%ecx
    5d72:	83 80 80 03 50 00 01 	addl   $0x1,0x500380(%eax)
    5d79:	89 59 28             	mov    %ebx,0x28(%ecx)
    5d7c:	89 4a 40             	mov    %ecx,0x40(%edx)
    5d7f:	c7 42 44 00 00 00 00 	movl   $0x0,0x44(%edx)
    5d86:	89 98 88 03 50 00    	mov    %ebx,0x500388(%eax)
    5d8c:	eb 0b                	jmp    0x5d99
    5d8e:	66 90                	xchg   %ax,%ax
    5d90:	8b 55 f0             	mov    -0x10(%ebp),%edx
    5d93:	89 90 8c 03 50 00    	mov    %edx,0x50038c(%eax)
    5d99:	8b 46 20             	mov    0x20(%esi),%eax
    5d9c:	c1 e8 18             	shr    $0x18,%eax
    5d9f:	8b 14 85 e0 02 50 00 	mov    0x5002e0(,%eax,4),%edx
    5da6:	83 ea 01             	sub    $0x1,%edx
    5da9:	89 14 85 e0 02 50 00 	mov    %edx,0x5002e0(,%eax,4)
    5db0:	8b 5d f4             	mov    -0xc(%ebp),%ebx
    5db3:	8b 75 f8             	mov    -0x8(%ebp),%esi
    5db6:	8b 7d fc             	mov    -0x4(%ebp),%edi
    5db9:	89 ec                	mov    %ebp,%esp
    5dbb:	5d                   	pop    %ebp
    5dbc:	c3                   	ret    
    5dbd:	8d 76 00             	lea    0x0(%esi),%esi
    5dc0:	8b 50 04             	mov    0x4(%eax),%edx
    5dc3:	c7 40 08 00 00 00 00 	movl   $0x0,0x8(%eax)
    5dca:	c7 40 04 00 00 00 00 	movl   $0x0,0x4(%eax)
    5dd1:	c7 00 00 00 00 00    	movl   $0x0,(%eax)
    5dd7:	e9 dc fe ff ff       	jmp    0x5cb8
    5ddc:	8d 74 26 00          	lea    0x0(%esi,%eiz,1),%esi
    5de0:	8b 48 28             	mov    0x28(%eax),%ecx
    5de3:	85 c9                	test   %ecx,%ecx
    5de5:	0f 84 68 ff ff ff    	je     0x5d53
    5deb:	89 c8                	mov    %ecx,%eax
    5ded:	e9 4e ff ff ff       	jmp    0x5d40
    5df2:	8d b4 26 00 00 00 00 	lea    0x0(%esi,%eiz,1),%esi
    5df9:	8d bc 27 00 00 00 00 	lea    0x0(%edi,%eiz,1),%edi
    5e00:	c7 42 40 00 00 00 00 	movl   $0x0,0x40(%edx)
    5e07:	c7 42 44 00 00 00 00 	movl   $0x0,0x44(%edx)
    5e0e:	8b 55 f0             	mov    -0x10(%ebp),%edx
    5e11:	c7 80 80 03 50 00 01 	movl   $0x1,0x500380(%eax)
    5e18:	00 00 00 
    5e1b:	89 90 84 03 50 00    	mov    %edx,0x500384(%eax)
    5e21:	89 90 88 03 50 00    	mov    %edx,0x500388(%eax)
    5e27:	e9 6d ff ff ff       	jmp    0x5d99
    5e2c:	8d 74 26 00          	lea    0x0(%esi,%eiz,1),%esi
    5e30:	8b 48 24             	mov    0x24(%eax),%ecx
    5e33:	85 c9                	test   %ecx,%ecx
    5e35:	74 39                	je     0x5e70
    5e37:	8b 5d f0             	mov    -0x10(%ebp),%ebx
    5e3a:	89 58 24             	mov    %ebx,0x24(%eax)
    5e3d:	89 59 28             	mov    %ebx,0x28(%ecx)
    5e40:	89 4a 40             	mov    %ecx,0x40(%edx)
    5e43:	89 42 44             	mov    %eax,0x44(%edx)
    5e46:	8b 45 ec             	mov    -0x14(%ebp),%eax
    5e49:	8b 55 e4             	mov    -0x1c(%ebp),%edx
    5e4c:	c1 e0 04             	shl    $0x4,%eax
    5e4f:	83 c2 01             	add    $0x1,%edx
    5e52:	89 90 80 03 50 00    	mov    %edx,0x500380(%eax)
    5e58:	e9 3c ff ff ff       	jmp    0x5d99
    5e5d:	8b 45 e0             	mov    -0x20(%ebp),%eax
    5e60:	e9 f1 fe ff ff       	jmp    0x5d56
    5e65:	8d 74 26 00          	lea    0x0(%esi,%eiz,1),%esi
    5e69:	8d bc 27 00 00 00 00 	lea    0x0(%edi,%eiz,1),%edi
    5e70:	8b 45 e0             	mov    -0x20(%ebp),%eax
    5e73:	c7 42 40 00 00 00 00 	movl   $0x0,0x40(%edx)
    5e7a:	89 42 44             	mov    %eax,0x44(%edx)
    5e7d:	8b 55 f0             	mov    -0x10(%ebp),%edx
    5e80:	89 50 24             	mov    %edx,0x24(%eax)
    5e83:	8b 45 ec             	mov    -0x14(%ebp),%eax
    5e86:	c1 e0 04             	shl    $0x4,%eax
    5e89:	89 90 84 03 50 00    	mov    %edx,0x500384(%eax)
    5e8f:	83 80 80 03 50 00 01 	addl   $0x1,0x500380(%eax)
    5e96:	e9 fe fe ff ff       	jmp    0x5d99
    5e9b:	90                   	nop
    5e9c:	90                   	nop
    5e9d:	90                   	nop
    5e9e:	90                   	nop
    5e9f:	90                   	nop
    5ea0:	55                   	push   %ebp
    5ea1:	89 e5                	mov    %esp,%ebp
    5ea3:	83 ec 1c             	sub    $0x1c,%esp
    5ea6:	8b 15 18 04 50 00    	mov    0x500418,%edx
    5eac:	89 5d f4             	mov    %ebx,-0xc(%ebp)
    5eaf:	89 75 f8             	mov    %esi,-0x8(%ebp)
    5eb2:	89 7d fc             	mov    %edi,-0x4(%ebp)
    5eb5:	8b 42 20             	mov    0x20(%edx),%eax
    5eb8:	c1 e8 18             	shr    $0x18,%eax
    5ebb:	c1 e0 04             	shl    $0x4,%eax
    5ebe:	8b 80 8c 03 50 00    	mov    0x50038c(%eax),%eax
    5ec4:	8b 42 20             	mov    0x20(%edx),%eax
    5ec7:	c1 e8 18             	shr    $0x18,%eax
    5eca:	89 c2                	mov    %eax,%edx
    5ecc:	c1 e2 04             	shl    $0x4,%edx
    5ecf:	8b 8a 80 03 50 00    	mov    0x500380(%edx),%ecx
    5ed5:	85 c9                	test   %ecx,%ecx
    5ed7:	75 27                	jne    0x5f00
    5ed9:	c1 e0 04             	shl    $0x4,%eax
    5edc:	8b 5d f4             	mov    -0xc(%ebp),%ebx
    5edf:	8b 80 8c 03 50 00    	mov    0x50038c(%eax),%eax
    5ee5:	8b 75 f8             	mov    -0x8(%ebp),%esi
    5ee8:	8b 7d fc             	mov    -0x4(%ebp),%edi
    5eeb:	8b 00                	mov    (%eax),%eax
    5eed:	89 ec                	mov    %ebp,%esp
    5eef:	5d                   	pop    %ebp
    5ef0:	c3                   	ret    
    5ef1:	eb 0d                	jmp    0x5f00
    5ef3:	90                   	nop
    5ef4:	90                   	nop
    5ef5:	90                   	nop
    5ef6:	90                   	nop
    5ef7:	90                   	nop
    5ef8:	90                   	nop
    5ef9:	90                   	nop
    5efa:	90                   	nop
    5efb:	90                   	nop
    5efc:	90                   	nop
    5efd:	90                   	nop
    5efe:	90                   	nop
    5eff:	90                   	nop
    5f00:	8b ba 84 03 50 00    	mov    0x500384(%edx),%edi
    5f06:	8b 9a 8c 03 50 00    	mov    0x50038c(%edx),%ebx
    5f0c:	8d 57 04             	lea    0x4(%edi),%edx
    5f0f:	8b 77 04             	mov    0x4(%edi),%esi
    5f12:	89 55 ec             	mov    %edx,-0x14(%ebp)
    5f15:	8d 53 04             	lea    0x4(%ebx),%edx
    5f18:	89 55 e8             	mov    %edx,-0x18(%ebp)
    5f1b:	8b 53 04             	mov    0x4(%ebx),%edx
    5f1e:	39 f2                	cmp    %esi,%edx
    5f20:	0f 8c 3a 01 00 00    	jl     0x6060
    5f26:	8b 57 28             	mov    0x28(%edi),%edx
    5f29:	85 d2                	test   %edx,%edx
    5f2b:	0f 84 2f 01 00 00    	je     0x6060
    5f31:	89 45 e4             	mov    %eax,-0x1c(%ebp)
    5f34:	8b 45 e8             	mov    -0x18(%ebp),%eax
    5f37:	8d 72 04             	lea    0x4(%edx),%esi
    5f3a:	89 75 ec             	mov    %esi,-0x14(%ebp)
    5f3d:	8b 72 04             	mov    0x4(%edx),%esi
    5f40:	8b 00                	mov    (%eax),%eax
    5f42:	39 c6                	cmp    %eax,%esi
    5f44:	0f 8e 86 00 00 00    	jle    0x5fd0
    5f4a:	8b 45 e4             	mov    -0x1c(%ebp),%eax
    5f4d:	8b 75 ec             	mov    -0x14(%ebp),%esi
    5f50:	8b 36                	mov    (%esi),%esi
    5f52:	89 75 ec             	mov    %esi,-0x14(%ebp)
    5f55:	8b 73 04             	mov    0x4(%ebx),%esi
    5f58:	39 75 ec             	cmp    %esi,-0x14(%ebp)
    5f5b:	0f 8e 8f 00 00 00    	jle    0x5ff0
    5f61:	8b 72 24             	mov    0x24(%edx),%esi
    5f64:	85 f6                	test   %esi,%esi
    5f66:	0f 84 04 01 00 00    	je     0x6070
    5f6c:	89 5a 24             	mov    %ebx,0x24(%edx)
    5f6f:	83 c1 01             	add    $0x1,%ecx
    5f72:	89 5e 28             	mov    %ebx,0x28(%esi)
    5f75:	89 53 28             	mov    %edx,0x28(%ebx)
    5f78:	89 c2                	mov    %eax,%edx
    5f7a:	c1 e2 04             	shl    $0x4,%edx
    5f7d:	89 73 24             	mov    %esi,0x24(%ebx)
    5f80:	89 8a 80 03 50 00    	mov    %ecx,0x500380(%edx)
    5f86:	31 d2                	xor    %edx,%edx
    5f88:	85 c9                	test   %ecx,%ecx
    5f8a:	74 2b                	je     0x5fb7
    5f8c:	83 f9 01             	cmp    $0x1,%ecx
    5f8f:	0f 84 9b 00 00 00    	je     0x6030
    5f95:	89 c1                	mov    %eax,%ecx
    5f97:	c1 e1 04             	shl    $0x4,%ecx
    5f9a:	8b 91 84 03 50 00    	mov    0x500384(%ecx),%edx
    5fa0:	83 a9 80 03 50 00 01 	subl   $0x1,0x500380(%ecx)
    5fa7:	8b 5a 28             	mov    0x28(%edx),%ebx
    5faa:	89 99 84 03 50 00    	mov    %ebx,0x500384(%ecx)
    5fb0:	c7 43 24 00 00 00 00 	movl   $0x0,0x24(%ebx)
    5fb7:	89 c1                	mov    %eax,%ecx
    5fb9:	c1 e1 04             	shl    $0x4,%ecx
    5fbc:	89 91 8c 03 50 00    	mov    %edx,0x50038c(%ecx)
    5fc2:	e9 12 ff ff ff       	jmp    0x5ed9
    5fc7:	89 f6                	mov    %esi,%esi
    5fc9:	8d bc 27 00 00 00 00 	lea    0x0(%edi,%eiz,1),%edi
    5fd0:	8b 72 28             	mov    0x28(%edx),%esi
    5fd3:	85 f6                	test   %esi,%esi
    5fd5:	0f 84 6f ff ff ff    	je     0x5f4a
    5fdb:	89 f2                	mov    %esi,%edx
    5fdd:	e9 52 ff ff ff       	jmp    0x5f34
    5fe2:	8d b4 26 00 00 00 00 	lea    0x0(%esi,%eiz,1),%esi
    5fe9:	8d bc 27 00 00 00 00 	lea    0x0(%edi,%eiz,1),%edi
    5ff0:	89 c2                	mov    %eax,%edx
    5ff2:	c1 e2 04             	shl    $0x4,%edx
    5ff5:	8b 8a 88 03 50 00    	mov    0x500388(%edx),%ecx
    5ffb:	89 59 28             	mov    %ebx,0x28(%ecx)
    5ffe:	89 4b 24             	mov    %ecx,0x24(%ebx)
    6001:	8b 8a 80 03 50 00    	mov    0x500380(%edx),%ecx
    6007:	c7 43 28 00 00 00 00 	movl   $0x0,0x28(%ebx)
    600e:	89 9a 88 03 50 00    	mov    %ebx,0x500388(%edx)
    6014:	83 c1 01             	add    $0x1,%ecx
    6017:	89 8a 80 03 50 00    	mov    %ecx,0x500380(%edx)
    601d:	e9 64 ff ff ff       	jmp    0x5f86
    6022:	8d b4 26 00 00 00 00 	lea    0x0(%esi,%eiz,1),%esi
    6029:	8d bc 27 00 00 00 00 	lea    0x0(%edi,%eiz,1),%edi
    6030:	89 c1                	mov    %eax,%ecx
    6032:	c1 e1 04             	shl    $0x4,%ecx
    6035:	8b 91 84 03 50 00    	mov    0x500384(%ecx),%edx
    603b:	c7 81 88 03 50 00 00 	movl   $0x0,0x500388(%ecx)
    6042:	00 00 00 
    6045:	c7 81 84 03 50 00 00 	movl   $0x0,0x500384(%ecx)
    604c:	00 00 00 
    604f:	83 a9 80 03 50 00 01 	subl   $0x1,0x500380(%ecx)
    6056:	e9 5c ff ff ff       	jmp    0x5fb7
    605b:	90                   	nop
    605c:	8d 74 26 00          	lea    0x0(%esi,%eiz,1),%esi
    6060:	89 fa                	mov    %edi,%edx
    6062:	e9 e6 fe ff ff       	jmp    0x5f4d
    6067:	89 f6                	mov    %esi,%esi
    6069:	8d bc 27 00 00 00 00 	lea    0x0(%edi,%eiz,1),%edi
    6070:	89 c2                	mov    %eax,%edx
    6072:	c1 e2 04             	shl    $0x4,%edx
    6075:	8b 8a 80 03 50 00    	mov    0x500380(%edx),%ecx
    607b:	c7 43 24 00 00 00 00 	movl   $0x0,0x24(%ebx)
    6082:	89 7b 28             	mov    %edi,0x28(%ebx)
    6085:	89 5f 24             	mov    %ebx,0x24(%edi)
    6088:	83 c1 01             	add    $0x1,%ecx
    608b:	89 9a 84 03 50 00    	mov    %ebx,0x500384(%edx)
    6091:	89 8a 80 03 50 00    	mov    %ecx,0x500380(%edx)
    6097:	e9 ea fe ff ff       	jmp    0x5f86
    609c:	90                   	nop
    609d:	90                   	nop
    609e:	90                   	nop
    609f:	90                   	nop
    60a0:	55                   	push   %ebp
    60a1:	89 e5                	mov    %esp,%ebp
    60a3:	57                   	push   %edi
    60a4:	56                   	push   %esi
    60a5:	53                   	push   %ebx
    60a6:	81 ec fc 00 00 00    	sub    $0xfc,%esp
    60ac:	8b 75 08             	mov    0x8(%ebp),%esi
    60af:	80 7d 10 00          	cmpb   $0x0,0x10(%ebp)
    60b3:	8b 5d 0c             	mov    0xc(%ebp),%ebx
    60b6:	74 30                	je     0x60e8
    60b8:	8b 15 18 04 50 00    	mov    0x500418,%edx
    60be:	a1 60 03 50 00       	mov    0x500360,%eax
    60c3:	8b 4a 20             	mov    0x20(%edx),%ecx
    60c6:	8b 4a 20             	mov    0x20(%edx),%ecx
    60c9:	c1 e9 18             	shr    $0x18,%ecx
    60cc:	8b 4c 88 0c          	mov    0xc(%eax,%ecx,4),%ecx
    60d0:	8b 52 20             	mov    0x20(%edx),%edx
    60d3:	8b 48 04             	mov    0x4(%eax),%ecx
    60d6:	c1 ea 18             	shr    $0x18,%edx
    60d9:	89 4c 90 0c          	mov    %ecx,0xc(%eax,%edx,4)
    60dd:	0f b6 05 00 03 50 00 	movzbl 0x500300,%eax
    60e4:	84 c0                	test   %al,%al
    60e6:	74 78                	je     0x6160
    60e8:	39 de                	cmp    %ebx,%esi
    60ea:	0f 84 d0 07 00 00    	je     0x68c0
    60f0:	8b 46 10             	mov    0x10(%esi),%eax
    60f3:	85 c0                	test   %eax,%eax
    60f5:	74 59                	je     0x6150
    60f7:	c7 43 10 00 00 00 00 	movl   $0x0,0x10(%ebx)
    60fe:	8b 46 0c             	mov    0xc(%esi),%eax
    6101:	8b 43 0c             	mov    0xc(%ebx),%eax
    6104:	a1 00 04 50 00       	mov    0x500400,%eax
    6109:	83 e8 01             	sub    $0x1,%eax
    610c:	a3 00 04 50 00       	mov    %eax,0x500400
    6111:	a1 00 04 50 00       	mov    0x500400,%eax
    6116:	85 c0                	test   %eax,%eax
    6118:	7f 0a                	jg     0x6124
    611a:	c7 05 04 04 50 00 00 	movl   $0x0,0x500404
    6121:	00 00 00 
    6124:	8b 43 0c             	mov    0xc(%ebx),%eax
    6127:	83 c6 0c             	add    $0xc,%esi
    612a:	89 34 24             	mov    %esi,(%esp)
    612d:	89 44 24 04          	mov    %eax,0x4(%esp)
    6131:	e8 8a 3e 00 00       	call   0x9fc0
    6136:	fb                   	sti    
    6137:	81 c4 fc 00 00 00    	add    $0xfc,%esp
    613d:	5b                   	pop    %ebx
    613e:	5e                   	pop    %esi
    613f:	5f                   	pop    %edi
    6140:	5d                   	pop    %ebp
    6141:	c3                   	ret    
    6142:	8d b4 26 00 00 00 00 	lea    0x0(%esi,%eiz,1),%esi
    6149:	8d bc 27 00 00 00 00 	lea    0x0(%edi,%eiz,1),%edi
    6150:	c7 46 10 01 00 00 00 	movl   $0x1,0x10(%esi)
    6157:	eb 9e                	jmp    0x60f7
    6159:	8d b4 26 00 00 00 00 	lea    0x0(%esi,%eiz,1),%esi
    6160:	bf 9c 01 00 00       	mov    $0x19c,%edi
    6165:	89 f9                	mov    %edi,%ecx
    6167:	0f 32                	rdmsr  
    6169:	89 45 80             	mov    %eax,-0x80(%ebp)
    616c:	b1 a2                	mov    $0xa2,%cl
    616e:	89 55 84             	mov    %edx,-0x7c(%ebp)
    6171:	0f 32                	rdmsr  
    6173:	8b 4d 84             	mov    -0x7c(%ebp),%ecx
    6176:	89 55 94             	mov    %edx,-0x6c(%ebp)
    6179:	8b 55 80             	mov    -0x80(%ebp),%edx
    617c:	89 45 90             	mov    %eax,-0x70(%ebp)
    617f:	8b 45 90             	mov    -0x70(%ebp),%eax
    6182:	0f ac ca 10          	shrd   $0x10,%ecx,%edx
    6186:	89 55 80             	mov    %edx,-0x80(%ebp)
    6189:	8b 55 94             	mov    -0x6c(%ebp),%edx
    618c:	c1 e9 10             	shr    $0x10,%ecx
    618f:	89 4d 84             	mov    %ecx,-0x7c(%ebp)
    6192:	0f ac d0 10          	shrd   $0x10,%edx,%eax
    6196:	0f b6 d0             	movzbl %al,%edx
    6199:	8b 45 80             	mov    -0x80(%ebp),%eax
    619c:	83 e0 7f             	and    $0x7f,%eax
    619f:	29 c2                	sub    %eax,%edx
    61a1:	8b 46 20             	mov    0x20(%esi),%eax
    61a4:	89 95 78 ff ff ff    	mov    %edx,-0x88(%ebp)
    61aa:	3d ff ff ff 7f       	cmp    $0x7fffffff,%eax
    61af:	0f 84 9b 03 00 00    	je     0x6550
    61b5:	8b 46 20             	mov    0x20(%esi),%eax
    61b8:	85 c0                	test   %eax,%eax
    61ba:	0f 84 90 03 00 00    	je     0x6550
    61c0:	8b 46 48             	mov    0x48(%esi),%eax
    61c3:	8b 40 0c             	mov    0xc(%eax),%eax
    61c6:	f7 d0                	not    %eax
    61c8:	03 46 50             	add    0x50(%esi),%eax
    61cb:	89 46 4c             	mov    %eax,0x4c(%esi)
    61ce:	8b 43 20             	mov    0x20(%ebx),%eax
    61d1:	8d 4b 20             	lea    0x20(%ebx),%ecx
    61d4:	89 8d 60 ff ff ff    	mov    %ecx,-0xa0(%ebp)
    61da:	3d ff ff ff 7f       	cmp    $0x7fffffff,%eax
    61df:	0f 84 0b 07 00 00    	je     0x68f0
    61e5:	8b 43 20             	mov    0x20(%ebx),%eax
    61e8:	85 c0                	test   %eax,%eax
    61ea:	0f 84 00 07 00 00    	je     0x68f0
    61f0:	8b 43 48             	mov    0x48(%ebx),%eax
    61f3:	8b 40 0c             	mov    0xc(%eax),%eax
    61f6:	f7 d0                	not    %eax
    61f8:	03 43 50             	add    0x50(%ebx),%eax
    61fb:	89 43 4c             	mov    %eax,0x4c(%ebx)
    61fe:	8b 46 4c             	mov    0x4c(%esi),%eax
    6201:	85 c0                	test   %eax,%eax
    6203:	0f 88 d7 07 00 00    	js     0x69e0
    6209:	8b 43 4c             	mov    0x4c(%ebx),%eax
    620c:	85 c0                	test   %eax,%eax
    620e:	0f 88 bc 07 00 00    	js     0x69d0
    6214:	a1 18 04 50 00       	mov    0x500418,%eax
    6219:	8b 3d 88 02 50 00    	mov    0x500288,%edi
    621f:	89 45 90             	mov    %eax,-0x70(%ebp)
    6222:	8b 40 20             	mov    0x20(%eax),%eax
    6225:	8b 0f                	mov    (%edi),%ecx
    6227:	c1 e8 18             	shr    $0x18,%eax
    622a:	8b 44 87 24          	mov    0x24(%edi,%eax,4),%eax
    622e:	89 4d 8c             	mov    %ecx,-0x74(%ebp)
    6231:	83 e8 01             	sub    $0x1,%eax
    6234:	6b c0 68             	imul   $0x68,%eax,%eax
    6237:	8b 54 08 40          	mov    0x40(%eax,%ecx,1),%edx
    623b:	8b 4c 08 44          	mov    0x44(%eax,%ecx,1),%ecx
    623f:	8b 87 80 00 00 00    	mov    0x80(%edi),%eax
    6245:	89 95 58 ff ff ff    	mov    %edx,-0xa8(%ebp)
    624b:	8b 97 84 00 00 00    	mov    0x84(%edi),%edx
    6251:	89 8d 5c ff ff ff    	mov    %ecx,-0xa4(%ebp)
    6257:	89 85 70 ff ff ff    	mov    %eax,-0x90(%ebp)
    625d:	89 95 74 ff ff ff    	mov    %edx,-0x8c(%ebp)
    6263:	0f 31                	rdtsc  
    6265:	89 95 6c ff ff ff    	mov    %edx,-0x94(%ebp)
    626b:	8b 95 5c ff ff ff    	mov    -0xa4(%ebp),%edx
    6271:	0b 95 58 ff ff ff    	or     -0xa8(%ebp),%edx
    6277:	89 85 68 ff ff ff    	mov    %eax,-0x98(%ebp)
    627d:	8b 0d 08 05 50 00    	mov    0x500508,%ecx
    6283:	c7 45 80 88 13 00 00 	movl   $0x1388,-0x80(%ebp)
    628a:	c7 45 84 00 00 00 00 	movl   $0x0,-0x7c(%ebp)
    6291:	74 5d                	je     0x62f0
    6293:	8b 85 70 ff ff ff    	mov    -0x90(%ebp),%eax
    6299:	8b 95 74 ff ff ff    	mov    -0x8c(%ebp),%edx
    629f:	2b 85 58 ff ff ff    	sub    -0xa8(%ebp),%eax
    62a5:	1b 95 5c ff ff ff    	sbb    -0xa4(%ebp),%edx
    62ab:	89 4c 24 08          	mov    %ecx,0x8(%esp)
    62af:	89 45 80             	mov    %eax,-0x80(%ebp)
    62b2:	b8 40 42 0f 00       	mov    $0xf4240,%eax
    62b7:	89 55 84             	mov    %edx,-0x7c(%ebp)
    62ba:	69 95 6c ff ff ff 40 	imul   $0xf4240,-0x94(%ebp),%edx
    62c1:	42 0f 00 
    62c4:	c7 44 24 0c 00 00 00 	movl   $0x0,0xc(%esp)
    62cb:	00 
    62cc:	89 95 70 ff ff ff    	mov    %edx,-0x90(%ebp)
    62d2:	f7 a5 68 ff ff ff    	mull   -0x98(%ebp)
    62d8:	03 95 70 ff ff ff    	add    -0x90(%ebp),%edx
    62de:	89 04 24             	mov    %eax,(%esp)
    62e1:	89 54 24 04          	mov    %edx,0x4(%esp)
    62e5:	e8 ee 49 00 00       	call   0xacd8
    62ea:	01 45 80             	add    %eax,-0x80(%ebp)
    62ed:	11 55 84             	adc    %edx,-0x7c(%ebp)
    62f0:	8b 4d 90             	mov    -0x70(%ebp),%ecx
    62f3:	8b 49 20             	mov    0x20(%ecx),%ecx
    62f6:	c1 e9 18             	shr    $0x18,%ecx
    62f9:	89 c8                	mov    %ecx,%eax
    62fb:	83 e0 01             	and    $0x1,%eax
    62fe:	83 f8 01             	cmp    $0x1,%eax
    6301:	83 d1 ff             	adc    $0xffffffff,%ecx
    6304:	89 8d 14 ff ff ff    	mov    %ecx,-0xec(%ebp)
    630a:	b9 02 00 00 40       	mov    $0x40000002,%ecx
    630f:	0f 33                	rdpmc  
    6311:	89 95 44 ff ff ff    	mov    %edx,-0xbc(%ebp)
    6317:	8b 55 90             	mov    -0x70(%ebp),%edx
    631a:	89 85 40 ff ff ff    	mov    %eax,-0xc0(%ebp)
    6320:	8b 4d 8c             	mov    -0x74(%ebp),%ecx
    6323:	8b 42 20             	mov    0x20(%edx),%eax
    6326:	c1 e8 18             	shr    $0x18,%eax
    6329:	8b 44 87 24          	mov    0x24(%edi,%eax,4),%eax
    632d:	83 e8 01             	sub    $0x1,%eax
    6330:	6b c0 68             	imul   $0x68,%eax,%eax
    6333:	8b 54 08 18          	mov    0x18(%eax,%ecx,1),%edx
    6337:	8b 4c 08 1c          	mov    0x1c(%eax,%ecx,1),%ecx
    633b:	89 95 48 ff ff ff    	mov    %edx,-0xb8(%ebp)
    6341:	89 8d 4c ff ff ff    	mov    %ecx,-0xb4(%ebp)
    6347:	31 c9                	xor    %ecx,%ecx
    6349:	0f 33                	rdpmc  
    634b:	89 95 6c ff ff ff    	mov    %edx,-0x94(%ebp)
    6351:	8b 55 90             	mov    -0x70(%ebp),%edx
    6354:	89 85 68 ff ff ff    	mov    %eax,-0x98(%ebp)
    635a:	8b 4d 8c             	mov    -0x74(%ebp),%ecx
    635d:	8b 42 20             	mov    0x20(%edx),%eax
    6360:	c1 e8 18             	shr    $0x18,%eax
    6363:	8b 44 87 24          	mov    0x24(%edi,%eax,4),%eax
    6367:	83 e8 01             	sub    $0x1,%eax
    636a:	6b c0 68             	imul   $0x68,%eax,%eax
    636d:	8b 54 08 20          	mov    0x20(%eax,%ecx,1),%edx
    6371:	8b 4c 08 24          	mov    0x24(%eax,%ecx,1),%ecx
    6375:	89 95 28 ff ff ff    	mov    %edx,-0xd8(%ebp)
    637b:	89 8d 2c ff ff ff    	mov    %ecx,-0xd4(%ebp)
    6381:	b9 01 00 00 00       	mov    $0x1,%ecx
    6386:	0f 33                	rdpmc  
    6388:	89 95 5c ff ff ff    	mov    %edx,-0xa4(%ebp)
    638e:	8b 55 90             	mov    -0x70(%ebp),%edx
    6391:	89 85 58 ff ff ff    	mov    %eax,-0xa8(%ebp)
    6397:	8b 4d 8c             	mov    -0x74(%ebp),%ecx
    639a:	8b 42 20             	mov    0x20(%edx),%eax
    639d:	c1 e8 18             	shr    $0x18,%eax
    63a0:	8b 44 87 24          	mov    0x24(%edi,%eax,4),%eax
    63a4:	83 e8 01             	sub    $0x1,%eax
    63a7:	6b c0 68             	imul   $0x68,%eax,%eax
    63aa:	8b 54 08 28          	mov    0x28(%eax,%ecx,1),%edx
    63ae:	8b 4c 08 2c          	mov    0x2c(%eax,%ecx,1),%ecx
    63b2:	89 95 30 ff ff ff    	mov    %edx,-0xd0(%ebp)
    63b8:	89 8d 34 ff ff ff    	mov    %ecx,-0xcc(%ebp)
    63be:	b9 02 00 00 00       	mov    $0x2,%ecx
    63c3:	0f 33                	rdpmc  
    63c5:	89 85 70 ff ff ff    	mov    %eax,-0x90(%ebp)
    63cb:	8b 4d 8c             	mov    -0x74(%ebp),%ecx
    63ce:	89 95 74 ff ff ff    	mov    %edx,-0x8c(%ebp)
    63d4:	8b 55 90             	mov    -0x70(%ebp),%edx
    63d7:	c7 85 50 ff ff ff 00 	movl   $0x0,-0xb0(%ebp)
    63de:	00 00 00 
    63e1:	c7 85 54 ff ff ff 00 	movl   $0x0,-0xac(%ebp)
    63e8:	00 00 00 
    63eb:	8b 42 20             	mov    0x20(%edx),%eax
    63ee:	c1 e8 18             	shr    $0x18,%eax
    63f1:	8b 44 87 24          	mov    0x24(%edi,%eax,4),%eax
    63f5:	83 e8 01             	sub    $0x1,%eax
    63f8:	6b c0 68             	imul   $0x68,%eax,%eax
    63fb:	8b 54 08 30          	mov    0x30(%eax,%ecx,1),%edx
    63ff:	8b 4c 08 34          	mov    0x34(%eax,%ecx,1),%ecx
    6403:	89 95 38 ff ff ff    	mov    %edx,-0xc8(%ebp)
    6409:	8b 55 90             	mov    -0x70(%ebp),%edx
    640c:	89 8d 3c ff ff ff    	mov    %ecx,-0xc4(%ebp)
    6412:	8b 42 20             	mov    0x20(%edx),%eax
    6415:	8b 55 8c             	mov    -0x74(%ebp),%edx
    6418:	c1 e8 18             	shr    $0x18,%eax
    641b:	8b 44 87 24          	mov    0x24(%edi,%eax,4),%eax
    641f:	83 e8 01             	sub    $0x1,%eax
    6422:	6b c0 68             	imul   $0x68,%eax,%eax
    6425:	8b 4c 10 1c          	mov    0x1c(%eax,%edx,1),%ecx
    6429:	0b 4c 02 18          	or     0x18(%edx,%eax,1),%ecx
    642d:	74 24                	je     0x6453
    642f:	8b 85 40 ff ff ff    	mov    -0xc0(%ebp),%eax
    6435:	8b 95 44 ff ff ff    	mov    -0xbc(%ebp),%edx
    643b:	2b 85 48 ff ff ff    	sub    -0xb8(%ebp),%eax
    6441:	1b 95 4c ff ff ff    	sbb    -0xb4(%ebp),%edx
    6447:	89 85 50 ff ff ff    	mov    %eax,-0xb0(%ebp)
    644d:	89 95 54 ff ff ff    	mov    %edx,-0xac(%ebp)
    6453:	8b 95 60 ff ff ff    	mov    -0xa0(%ebp),%edx
    6459:	8b 02                	mov    (%edx),%eax
    645b:	3d ff ff ff 7f       	cmp    $0x7fffffff,%eax
    6460:	0f 84 9a 04 00 00    	je     0x6900
    6466:	83 bd 78 ff ff ff 3f 	cmpl   $0x3f,-0x88(%ebp)
    646d:	77 3a                	ja     0x64a9
    646f:	8b 95 14 ff ff ff    	mov    -0xec(%ebp),%edx
    6475:	8b 0d 08 05 50 00    	mov    0x500508,%ecx
    647b:	c7 44 24 04 00 00 00 	movl   $0x0,0x4(%esp)
    6482:	00 
    6483:	8b 04 95 20 03 50 00 	mov    0x500320(,%edx,4),%eax
    648a:	c1 e9 03             	shr    $0x3,%ecx
    648d:	83 c0 01             	add    $0x1,%eax
    6490:	89 04 95 20 03 50 00 	mov    %eax,0x500320(,%edx,4)
    6497:	8b 04 95 20 03 50 00 	mov    0x500320(,%edx,4),%eax
    649e:	0f af c1             	imul   %ecx,%eax
    64a1:	89 04 24             	mov    %eax,(%esp)
    64a4:	e8 77 eb ff ff       	call   0x5020
    64a9:	8b 43 4c             	mov    0x4c(%ebx),%eax
    64ac:	85 c0                	test   %eax,%eax
    64ae:	0f 8e 3c 05 00 00    	jle    0x69f0
    64b4:	83 bd 78 ff ff ff 42 	cmpl   $0x42,-0x88(%ebp)
    64bb:	c7 05 c0 02 50 00 00 	movl   $0x0,0x5002c0
    64c2:	00 00 00 
    64c5:	0f 86 95 00 00 00    	jbe    0x6560
    64cb:	39 de                	cmp    %ebx,%esi
    64cd:	0f 84 bd 07 00 00    	je     0x6c90
    64d3:	8b 95 60 ff ff ff    	mov    -0xa0(%ebp),%edx
    64d9:	8b 02                	mov    (%edx),%eax
    64db:	3d ff ff 1f 00       	cmp    $0x1fffff,%eax
    64e0:	0f 8e aa 01 00 00    	jle    0x6690
    64e6:	8b 95 60 ff ff ff    	mov    -0xa0(%ebp),%edx
    64ec:	8b 02                	mov    (%edx),%eax
    64ee:	3d ff ff ff 7f       	cmp    $0x7fffffff,%eax
    64f3:	0f 84 97 01 00 00    	je     0x6690
    64f9:	8b 95 60 ff ff ff    	mov    -0xa0(%ebp),%edx
    64ff:	8b 02                	mov    (%edx),%eax
    6501:	85 c0                	test   %eax,%eax
    6503:	0f 84 87 01 00 00    	je     0x6690
    6509:	8b 0d 18 04 50 00    	mov    0x500418,%ecx
    650f:	8b 41 20             	mov    0x20(%ecx),%eax
    6512:	c1 e8 18             	shr    $0x18,%eax
    6515:	c1 e0 04             	shl    $0x4,%eax
    6518:	8b 80 8c 03 50 00    	mov    0x50038c(%eax),%eax
    651e:	8b 41 20             	mov    0x20(%ecx),%eax
    6521:	89 1c 24             	mov    %ebx,(%esp)
    6524:	c1 e8 18             	shr    $0x18,%eax
    6527:	8b 04 85 a0 02 50 00 	mov    0x5002a0(,%eax,4),%eax
    652e:	89 44 24 04          	mov    %eax,0x4(%esp)
    6532:	e8 a9 ed ff ff       	call   0x52e0
    6537:	e8 64 f9 ff ff       	call   0x5ea0
    653c:	89 c3                	mov    %eax,%ebx
    653e:	a1 c0 02 50 00       	mov    0x5002c0,%eax
    6543:	89 85 30 ff ff ff    	mov    %eax,-0xd0(%ebp)
    6549:	e9 4e 01 00 00       	jmp    0x669c
    654e:	66 90                	xchg   %ax,%ax
    6550:	c7 46 4c 00 00 00 00 	movl   $0x0,0x4c(%esi)
    6557:	e9 72 fc ff ff       	jmp    0x61ce
    655c:	8d 74 26 00          	lea    0x0(%esi,%eiz,1),%esi
    6560:	8b 8d 14 ff ff ff    	mov    -0xec(%ebp),%ecx
    6566:	8b 04 8d 20 03 50 00 	mov    0x500320(,%ecx,4),%eax
    656d:	83 f8 07             	cmp    $0x7,%eax
    6570:	0f 87 55 ff ff ff    	ja     0x64cb
    6576:	8b 04 8d 20 03 50 00 	mov    0x500320(,%ecx,4),%eax
    657d:	c7 44 24 04 00 00 00 	movl   $0x0,0x4(%esp)
    6584:	00 
    6585:	83 c0 01             	add    $0x1,%eax
    6588:	89 04 8d 40 03 50 00 	mov    %eax,0x500340(,%ecx,4)
    658f:	8b 04 8d 20 03 50 00 	mov    0x500320(,%ecx,4),%eax
    6596:	83 c0 01             	add    $0x1,%eax
    6599:	89 04 8d 20 03 50 00 	mov    %eax,0x500320(,%ecx,4)
    65a0:	8b 04 8d 20 03 50 00 	mov    0x500320(,%ecx,4),%eax
    65a7:	8b 0d 08 05 50 00    	mov    0x500508,%ecx
    65ad:	c1 e9 03             	shr    $0x3,%ecx
    65b0:	0f af c1             	imul   %ecx,%eax
    65b3:	89 04 24             	mov    %eax,(%esp)
    65b6:	e8 65 ea ff ff       	call   0x5020
    65bb:	e9 0b ff ff ff       	jmp    0x64cb
    65c0:	8b 55 80             	mov    -0x80(%ebp),%edx
    65c3:	8b 4d 84             	mov    -0x7c(%ebp),%ecx
    65c6:	0f a4 d1 02          	shld   $0x2,%edx,%ecx
    65ca:	c1 e2 02             	shl    $0x2,%edx
    65cd:	39 8d 74 ff ff ff    	cmp    %ecx,-0x8c(%ebp)
    65d3:	89 55 90             	mov    %edx,-0x70(%ebp)
    65d6:	89 4d 94             	mov    %ecx,-0x6c(%ebp)
    65d9:	0f 82 b1 05 00 00    	jb     0x6b90
    65df:	77 0c                	ja     0x65ed
    65e1:	39 95 70 ff ff ff    	cmp    %edx,-0x90(%ebp)
    65e7:	0f 82 a3 05 00 00    	jb     0x6b90
    65ed:	8b 45 80             	mov    -0x80(%ebp),%eax
    65f0:	bf c8 32 00 00       	mov    $0x32c8,%edi
    65f5:	69 4d 84 c8 32 00 00 	imul   $0x32c8,-0x7c(%ebp),%ecx
    65fc:	f7 e7                	mul    %edi
    65fe:	01 ca                	add    %ecx,%edx
    6600:	39 95 5c ff ff ff    	cmp    %edx,-0xa4(%ebp)
    6606:	89 45 80             	mov    %eax,-0x80(%ebp)
    6609:	89 55 84             	mov    %edx,-0x7c(%ebp)
    660c:	0f 82 7e 05 00 00    	jb     0x6b90
    6612:	77 0f                	ja     0x6623
    6614:	8b 4d 80             	mov    -0x80(%ebp),%ecx
    6617:	39 8d 58 ff ff ff    	cmp    %ecx,-0xa8(%ebp)
    661d:	0f 82 6d 05 00 00    	jb     0x6b90
    6623:	39 de                	cmp    %ebx,%esi
    6625:	0f 84 77 06 00 00    	je     0x6ca2
    662b:	8b 95 60 ff ff ff    	mov    -0xa0(%ebp),%edx
    6631:	8b 02                	mov    (%edx),%eax
    6633:	3d ff ff 1f 00       	cmp    $0x1fffff,%eax
    6638:	0f 8e 82 06 00 00    	jle    0x6cc0
    663e:	8b 02                	mov    (%edx),%eax
    6640:	3d ff ff ff 7f       	cmp    $0x7fffffff,%eax
    6645:	0f 84 75 06 00 00    	je     0x6cc0
    664b:	8b 02                	mov    (%edx),%eax
    664d:	85 c0                	test   %eax,%eax
    664f:	0f 84 6b 06 00 00    	je     0x6cc0
    6655:	8b 0d 18 04 50 00    	mov    0x500418,%ecx
    665b:	8b 41 20             	mov    0x20(%ecx),%eax
    665e:	c1 e8 18             	shr    $0x18,%eax
    6661:	c1 e0 04             	shl    $0x4,%eax
    6664:	8b 80 8c 03 50 00    	mov    0x50038c(%eax),%eax
    666a:	8b 41 20             	mov    0x20(%ecx),%eax
    666d:	89 1c 24             	mov    %ebx,(%esp)
    6670:	c1 e8 18             	shr    $0x18,%eax
    6673:	8b 04 85 a0 02 50 00 	mov    0x5002a0(,%eax,4),%eax
    667a:	89 44 24 04          	mov    %eax,0x4(%esp)
    667e:	e8 5d ec ff ff       	call   0x52e0
    6683:	e8 18 f8 ff ff       	call   0x5ea0
    6688:	89 c3                	mov    %eax,%ebx
    668a:	8d b6 00 00 00 00    	lea    0x0(%esi),%esi
    6690:	8b 0d c0 02 50 00    	mov    0x5002c0,%ecx
    6696:	89 8d 30 ff ff ff    	mov    %ecx,-0xd0(%ebp)
    669c:	a1 18 04 50 00       	mov    0x500418,%eax
    66a1:	8b 8d 14 ff ff ff    	mov    -0xec(%ebp),%ecx
    66a7:	8b 56 4c             	mov    0x4c(%esi),%edx
    66aa:	8b 40 20             	mov    0x20(%eax),%eax
    66ad:	8b 0c 8d 20 03 50 00 	mov    0x500320(,%ecx,4),%ecx
    66b4:	89 95 38 ff ff ff    	mov    %edx,-0xc8(%ebp)
    66ba:	c1 e8 18             	shr    $0x18,%eax
    66bd:	89 45 90             	mov    %eax,-0x70(%ebp)
    66c0:	89 8d 40 ff ff ff    	mov    %ecx,-0xc0(%ebp)
    66c6:	b9 03 00 00 00       	mov    $0x3,%ecx
    66cb:	0f 33                	rdpmc  
    66cd:	89 85 48 ff ff ff    	mov    %eax,-0xb8(%ebp)
    66d3:	b1 02                	mov    $0x2,%cl
    66d5:	89 95 4c ff ff ff    	mov    %edx,-0xb4(%ebp)
    66db:	0f 33                	rdpmc  
    66dd:	89 85 50 ff ff ff    	mov    %eax,-0xb0(%ebp)
    66e3:	b1 01                	mov    $0x1,%cl
    66e5:	89 95 54 ff ff ff    	mov    %edx,-0xac(%ebp)
    66eb:	0f 33                	rdpmc  
    66ed:	89 85 58 ff ff ff    	mov    %eax,-0xa8(%ebp)
    66f3:	30 c9                	xor    %cl,%cl
    66f5:	89 95 5c ff ff ff    	mov    %edx,-0xa4(%ebp)
    66fb:	0f 33                	rdpmc  
    66fd:	b9 02 00 00 40       	mov    $0x40000002,%ecx
    6702:	89 85 70 ff ff ff    	mov    %eax,-0x90(%ebp)
    6708:	89 95 74 ff ff ff    	mov    %edx,-0x8c(%ebp)
    670e:	0f 33                	rdpmc  
    6710:	89 85 68 ff ff ff    	mov    %eax,-0x98(%ebp)
    6716:	b1 01                	mov    $0x1,%cl
    6718:	89 95 6c ff ff ff    	mov    %edx,-0x94(%ebp)
    671e:	0f 33                	rdpmc  
    6720:	89 85 60 ff ff ff    	mov    %eax,-0xa0(%ebp)
    6726:	30 c9                	xor    %cl,%cl
    6728:	89 95 64 ff ff ff    	mov    %edx,-0x9c(%ebp)
    672e:	0f 33                	rdpmc  
    6730:	8b 4d 90             	mov    -0x70(%ebp),%ecx
    6733:	89 45 80             	mov    %eax,-0x80(%ebp)
    6736:	8b 45 90             	mov    -0x70(%ebp),%eax
    6739:	89 55 84             	mov    %edx,-0x7c(%ebp)
    673c:	8b 15 88 02 50 00    	mov    0x500288,%edx
    6742:	83 c1 08             	add    $0x8,%ecx
    6745:	83 c0 01             	add    $0x1,%eax
    6748:	8b 7c 8a 04          	mov    0x4(%edx,%ecx,4),%edi
    674c:	0f af 42 44          	imul   0x44(%edx),%eax
    6750:	89 95 28 ff ff ff    	mov    %edx,-0xd8(%ebp)
    6756:	89 4d 8c             	mov    %ecx,-0x74(%ebp)
    6759:	39 c7                	cmp    %eax,%edi
    675b:	0f 83 87 f9 ff ff    	jae    0x60e8
    6761:	6b ff 68             	imul   $0x68,%edi,%edi
    6764:	8b 02                	mov    (%edx),%eax
    6766:	8b 95 78 ff ff ff    	mov    -0x88(%ebp),%edx
    676c:	89 45 90             	mov    %eax,-0x70(%ebp)
    676f:	8b 4d 90             	mov    -0x70(%ebp),%ecx
    6772:	89 14 38             	mov    %edx,(%eax,%edi,1)
    6775:	8b 55 84             	mov    -0x7c(%ebp),%edx
    6778:	c7 44 38 04 00 00 00 	movl   $0x0,0x4(%eax,%edi,1)
    677f:	00 
    6780:	8b 45 80             	mov    -0x80(%ebp),%eax
    6783:	89 54 39 0c          	mov    %edx,0xc(%ecx,%edi,1)
    6787:	8b 95 64 ff ff ff    	mov    -0x9c(%ebp),%edx
    678d:	89 44 39 08          	mov    %eax,0x8(%ecx,%edi,1)
    6791:	8b 85 60 ff ff ff    	mov    -0xa0(%ebp),%eax
    6797:	89 54 39 14          	mov    %edx,0x14(%ecx,%edi,1)
    679b:	8b 95 6c ff ff ff    	mov    -0x94(%ebp),%edx
    67a1:	89 44 39 10          	mov    %eax,0x10(%ecx,%edi,1)
    67a5:	8b 85 68 ff ff ff    	mov    -0x98(%ebp),%eax
    67ab:	89 54 39 1c          	mov    %edx,0x1c(%ecx,%edi,1)
    67af:	8b 95 74 ff ff ff    	mov    -0x8c(%ebp),%edx
    67b5:	89 44 39 18          	mov    %eax,0x18(%ecx,%edi,1)
    67b9:	8b 85 70 ff ff ff    	mov    -0x90(%ebp),%eax
    67bf:	89 54 39 24          	mov    %edx,0x24(%ecx,%edi,1)
    67c3:	8b 95 5c ff ff ff    	mov    -0xa4(%ebp),%edx
    67c9:	89 44 39 20          	mov    %eax,0x20(%ecx,%edi,1)
    67cd:	8b 85 58 ff ff ff    	mov    -0xa8(%ebp),%eax
    67d3:	89 54 39 2c          	mov    %edx,0x2c(%ecx,%edi,1)
    67d7:	8b 95 54 ff ff ff    	mov    -0xac(%ebp),%edx
    67dd:	89 44 39 28          	mov    %eax,0x28(%ecx,%edi,1)
    67e1:	8b 85 50 ff ff ff    	mov    -0xb0(%ebp),%eax
    67e7:	89 54 39 34          	mov    %edx,0x34(%ecx,%edi,1)
    67eb:	8b 95 4c ff ff ff    	mov    -0xb4(%ebp),%edx
    67f1:	89 44 39 30          	mov    %eax,0x30(%ecx,%edi,1)
    67f5:	8b 85 48 ff ff ff    	mov    -0xb8(%ebp),%eax
    67fb:	89 44 39 38          	mov    %eax,0x38(%ecx,%edi,1)
    67ff:	89 54 39 3c          	mov    %edx,0x3c(%ecx,%edi,1)
    6803:	0f 31                	rdtsc  
    6805:	69 ca 40 42 0f 00    	imul   $0xf4240,%edx,%ecx
    680b:	89 85 78 ff ff ff    	mov    %eax,-0x88(%ebp)
    6811:	b8 40 42 0f 00       	mov    $0xf4240,%eax
    6816:	89 95 7c ff ff ff    	mov    %edx,-0x84(%ebp)
    681c:	f7 a5 78 ff ff ff    	mull   -0x88(%ebp)
    6822:	c7 44 24 0c 00 00 00 	movl   $0x0,0xc(%esp)
    6829:	00 
    682a:	01 ca                	add    %ecx,%edx
    682c:	8b 0d 08 05 50 00    	mov    0x500508,%ecx
    6832:	89 04 24             	mov    %eax,(%esp)
    6835:	89 54 24 04          	mov    %edx,0x4(%esp)
    6839:	89 4c 24 08          	mov    %ecx,0x8(%esp)
    683d:	e8 96 44 00 00       	call   0xacd8
    6842:	8b 8d 28 ff ff ff    	mov    -0xd8(%ebp),%ecx
    6848:	03 81 80 00 00 00    	add    0x80(%ecx),%eax
    684e:	13 91 84 00 00 00    	adc    0x84(%ecx),%edx
    6854:	8b 4d 90             	mov    -0x70(%ebp),%ecx
    6857:	89 54 39 44          	mov    %edx,0x44(%ecx,%edi,1)
    685b:	8b 95 28 ff ff ff    	mov    -0xd8(%ebp),%edx
    6861:	89 44 39 40          	mov    %eax,0x40(%ecx,%edi,1)
    6865:	8b 8d 40 ff ff ff    	mov    -0xc0(%ebp),%ecx
    686b:	8b 02                	mov    (%edx),%eax
    686d:	8b 95 38 ff ff ff    	mov    -0xc8(%ebp),%edx
    6873:	89 4c 38 50          	mov    %ecx,0x50(%eax,%edi,1)
    6877:	8b 8d 30 ff ff ff    	mov    -0xd0(%ebp),%ecx
    687d:	89 54 38 58          	mov    %edx,0x58(%eax,%edi,1)
    6881:	8b 95 28 ff ff ff    	mov    -0xd8(%ebp),%edx
    6887:	89 74 38 48          	mov    %esi,0x48(%eax,%edi,1)
    688b:	c7 44 38 4c 00 00 00 	movl   $0x0,0x4c(%eax,%edi,1)
    6892:	00 
    6893:	c7 44 38 54 00 00 00 	movl   $0x0,0x54(%eax,%edi,1)
    689a:	00 
    689b:	c7 44 38 5c 00 00 00 	movl   $0x0,0x5c(%eax,%edi,1)
    68a2:	00 
    68a3:	89 4c 38 60          	mov    %ecx,0x60(%eax,%edi,1)
    68a7:	c7 44 38 64 00 00 00 	movl   $0x0,0x64(%eax,%edi,1)
    68ae:	00 
    68af:	8b 45 8c             	mov    -0x74(%ebp),%eax
    68b2:	83 44 82 04 01       	addl   $0x1,0x4(%edx,%eax,4)
    68b7:	39 de                	cmp    %ebx,%esi
    68b9:	0f 85 31 f8 ff ff    	jne    0x60f0
    68bf:	90                   	nop
    68c0:	a1 00 04 50 00       	mov    0x500400,%eax
    68c5:	83 e8 01             	sub    $0x1,%eax
    68c8:	a3 00 04 50 00       	mov    %eax,0x500400
    68cd:	a1 00 04 50 00       	mov    0x500400,%eax
    68d2:	85 c0                	test   %eax,%eax
    68d4:	0f 8f 5c f8 ff ff    	jg     0x6136
    68da:	c7 05 04 04 50 00 00 	movl   $0x0,0x500404
    68e1:	00 00 00 
    68e4:	e9 4d f8 ff ff       	jmp    0x6136
    68e9:	8d b4 26 00 00 00 00 	lea    0x0(%esi,%eiz,1),%esi
    68f0:	c7 43 4c 00 00 00 00 	movl   $0x0,0x4c(%ebx)
    68f7:	e9 02 f9 ff ff       	jmp    0x61fe
    68fc:	8d 74 26 00          	lea    0x0(%esi,%eiz,1),%esi
    6900:	83 bd 78 ff ff ff 40 	cmpl   $0x40,-0x88(%ebp)
    6907:	0f 87 9c fb ff ff    	ja     0x64a9
    690d:	8b 4d 90             	mov    -0x70(%ebp),%ecx
    6910:	8b 41 20             	mov    0x20(%ecx),%eax
    6913:	c1 e8 18             	shr    $0x18,%eax
    6916:	8b 04 85 e0 02 50 00 	mov    0x5002e0(,%eax,4),%eax
    691d:	85 c0                	test   %eax,%eax
    691f:	0f 84 41 fb ff ff    	je     0x6466
    6925:	8b 41 20             	mov    0x20(%ecx),%eax
    6928:	c1 e8 18             	shr    $0x18,%eax
    692b:	8b 04 85 e0 02 50 00 	mov    0x5002e0(,%eax,4),%eax
    6932:	85 c0                	test   %eax,%eax
    6934:	0f 84 2c fb ff ff    	je     0x6466
    693a:	8d 7d a8             	lea    -0x58(%ebp),%edi
    693d:	e8 8e be ff ff       	call   0x27d0
    6942:	c7 04 24 52 b0 00 00 	movl   $0xb052,(%esp)
    6949:	e8 32 bc ff ff       	call   0x2580
    694e:	c7 44 24 0c 00 00 00 	movl   $0x0,0xc(%esp)
    6955:	00 
    6956:	89 7c 24 08          	mov    %edi,0x8(%esp)
    695a:	89 5c 24 04          	mov    %ebx,0x4(%esp)
    695e:	c7 04 24 40 02 50 00 	movl   $0x500240,(%esp)
    6965:	e8 26 c2 ff ff       	call   0x2b90
    696a:	89 3c 24             	mov    %edi,(%esp)
    696d:	c6 44 05 a8 00       	movb   $0x0,-0x58(%ebp,%eax,1)
    6972:	e8 09 bc ff ff       	call   0x2580
    6977:	0f b6 05 44 02 50 00 	movzbl 0x500244,%eax
    697e:	0f b6 c0             	movzbl %al,%eax
    6981:	89 04 24             	mov    %eax,(%esp)
    6984:	e8 97 bf ff ff       	call   0x2920
    6989:	c7 04 24 a7 b1 00 00 	movl   $0xb1a7,(%esp)
    6990:	e8 eb bb ff ff       	call   0x2580
    6995:	8b 0d 18 04 50 00    	mov    0x500418,%ecx
    699b:	c7 05 40 02 50 00 0a 	movl   $0xa,0x500240
    69a2:	00 00 00 
    69a5:	8b 41 20             	mov    0x20(%ecx),%eax
    69a8:	c1 e8 18             	shr    $0x18,%eax
    69ab:	c1 e0 04             	shl    $0x4,%eax
    69ae:	8b 80 8c 03 50 00    	mov    0x50038c(%eax),%eax
    69b4:	8b 41 20             	mov    0x20(%ecx),%eax
    69b7:	c1 e8 18             	shr    $0x18,%eax
    69ba:	8b 04 85 a0 02 50 00 	mov    0x5002a0(,%eax,4),%eax
    69c1:	89 04 24             	mov    %eax,(%esp)
    69c4:	e8 b7 f2 ff ff       	call   0x5c80
    69c9:	e9 98 fa ff ff       	jmp    0x6466
    69ce:	66 90                	xchg   %ax,%ax
    69d0:	c7 43 4c 00 00 00 00 	movl   $0x0,0x4c(%ebx)
    69d7:	e9 38 f8 ff ff       	jmp    0x6214
    69dc:	8d 74 26 00          	lea    0x0(%esi,%eiz,1),%esi
    69e0:	c7 46 4c 00 00 00 00 	movl   $0x0,0x4c(%esi)
    69e7:	e9 1d f8 ff ff       	jmp    0x6209
    69ec:	8d 74 26 00          	lea    0x0(%esi,%eiz,1),%esi
    69f0:	8b 46 4c             	mov    0x4c(%esi),%eax
    69f3:	85 c0                	test   %eax,%eax
    69f5:	0f 8f b9 fa ff ff    	jg     0x64b4
    69fb:	8b 0d c0 02 50 00    	mov    0x5002c0,%ecx
    6a01:	85 c9                	test   %ecx,%ecx
    6a03:	0f 85 ab fa ff ff    	jne    0x64b4
    6a09:	83 bd 78 ff ff ff 42 	cmpl   $0x42,-0x88(%ebp)
    6a10:	0f 84 29 02 00 00    	je     0x6c3f
    6a16:	8b 85 58 ff ff ff    	mov    -0xa8(%ebp),%eax
    6a1c:	8b 95 5c ff ff ff    	mov    -0xa4(%ebp),%edx
    6a22:	2b 85 30 ff ff ff    	sub    -0xd0(%ebp),%eax
    6a28:	1b 95 34 ff ff ff    	sbb    -0xcc(%ebp),%edx
    6a2e:	8b 8d 74 ff ff ff    	mov    -0x8c(%ebp),%ecx
    6a34:	89 85 58 ff ff ff    	mov    %eax,-0xa8(%ebp)
    6a3a:	8b 85 68 ff ff ff    	mov    -0x98(%ebp),%eax
    6a40:	89 95 5c ff ff ff    	mov    %edx,-0xa4(%ebp)
    6a46:	8b 95 70 ff ff ff    	mov    -0x90(%ebp),%edx
    6a4c:	2b 95 38 ff ff ff    	sub    -0xc8(%ebp),%edx
    6a52:	1b 8d 3c ff ff ff    	sbb    -0xc4(%ebp),%ecx
    6a58:	2b 85 28 ff ff ff    	sub    -0xd8(%ebp),%eax
    6a5e:	89 95 70 ff ff ff    	mov    %edx,-0x90(%ebp)
    6a64:	8b 95 6c ff ff ff    	mov    -0x94(%ebp),%edx
    6a6a:	1b 95 2c ff ff ff    	sbb    -0xd4(%ebp),%edx
    6a70:	89 8d 74 ff ff ff    	mov    %ecx,-0x8c(%ebp)
    6a76:	89 85 68 ff ff ff    	mov    %eax,-0x98(%ebp)
    6a7c:	83 fa 00             	cmp    $0x0,%edx
    6a7f:	89 95 6c ff ff ff    	mov    %edx,-0x94(%ebp)
    6a85:	77 09                	ja     0x6a90
    6a87:	83 f8 35             	cmp    $0x35,%eax
    6a8a:	0f 86 30 fb ff ff    	jbe    0x65c0
    6a90:	83 7d 84 00          	cmpl   $0x0,-0x7c(%ebp)
    6a94:	77 0d                	ja     0x6aa3
    6a96:	81 7d 80 7e 13 00 00 	cmpl   $0x137e,-0x80(%ebp)
    6a9d:	0f 86 1d fb ff ff    	jbe    0x65c0
    6aa3:	8b 45 80             	mov    -0x80(%ebp),%eax
    6aa6:	bf 40 0d 00 00       	mov    $0xd40,%edi
    6aab:	69 4d 84 40 0d 00 00 	imul   $0xd40,-0x7c(%ebp),%ecx
    6ab2:	f7 e7                	mul    %edi
    6ab4:	01 ca                	add    %ecx,%edx
    6ab6:	39 95 54 ff ff ff    	cmp    %edx,-0xac(%ebp)
    6abc:	89 45 90             	mov    %eax,-0x70(%ebp)
    6abf:	0f 82 fb fa ff ff    	jb     0x65c0
    6ac5:	77 0f                	ja     0x6ad6
    6ac7:	8b 4d 90             	mov    -0x70(%ebp),%ecx
    6aca:	39 8d 50 ff ff ff    	cmp    %ecx,-0xb0(%ebp)
    6ad0:	0f 82 ea fa ff ff    	jb     0x65c0
    6ad6:	8b 45 80             	mov    -0x80(%ebp),%eax
    6ad9:	bf c8 32 00 00       	mov    $0x32c8,%edi
    6ade:	69 4d 84 c8 32 00 00 	imul   $0x32c8,-0x7c(%ebp),%ecx
    6ae5:	f7 e7                	mul    %edi
    6ae7:	01 ca                	add    %ecx,%edx
    6ae9:	39 95 5c ff ff ff    	cmp    %edx,-0xa4(%ebp)
    6aef:	89 45 90             	mov    %eax,-0x70(%ebp)
    6af2:	89 55 94             	mov    %edx,-0x6c(%ebp)
    6af5:	0f 82 c5 fa ff ff    	jb     0x65c0
    6afb:	77 0f                	ja     0x6b0c
    6afd:	8b 4d 90             	mov    -0x70(%ebp),%ecx
    6b00:	39 8d 58 ff ff ff    	cmp    %ecx,-0xa8(%ebp)
    6b06:	0f 82 b4 fa ff ff    	jb     0x65c0
    6b0c:	39 de                	cmp    %ebx,%esi
    6b0e:	0f 84 da 01 00 00    	je     0x6cee
    6b14:	8b 95 60 ff ff ff    	mov    -0xa0(%ebp),%edx
    6b1a:	8b 02                	mov    (%edx),%eax
    6b1c:	3d ff ff 1f 00       	cmp    $0x1fffff,%eax
    6b21:	0f 8e e3 01 00 00    	jle    0x6d0a
    6b27:	8b 02                	mov    (%edx),%eax
    6b29:	3d ff ff ff 7f       	cmp    $0x7fffffff,%eax
    6b2e:	0f 84 d6 01 00 00    	je     0x6d0a
    6b34:	8b 02                	mov    (%edx),%eax
    6b36:	85 c0                	test   %eax,%eax
    6b38:	0f 84 cc 01 00 00    	je     0x6d0a
    6b3e:	8b 0d 18 04 50 00    	mov    0x500418,%ecx
    6b44:	8b 41 20             	mov    0x20(%ecx),%eax
    6b47:	c1 e8 18             	shr    $0x18,%eax
    6b4a:	c1 e0 04             	shl    $0x4,%eax
    6b4d:	8b 80 8c 03 50 00    	mov    0x50038c(%eax),%eax
    6b53:	8b 41 20             	mov    0x20(%ecx),%eax
    6b56:	89 1c 24             	mov    %ebx,(%esp)
    6b59:	c1 e8 18             	shr    $0x18,%eax
    6b5c:	8b 04 85 a0 02 50 00 	mov    0x5002a0(,%eax,4),%eax
    6b63:	89 44 24 04          	mov    %eax,0x4(%esp)
    6b67:	e8 74 e7 ff ff       	call   0x52e0
    6b6c:	e8 2f f3 ff ff       	call   0x5ea0
    6b71:	8b 0d c0 02 50 00    	mov    0x5002c0,%ecx
    6b77:	89 8d 30 ff ff ff    	mov    %ecx,-0xd0(%ebp)
    6b7d:	89 c3                	mov    %eax,%ebx
    6b7f:	e9 18 fb ff ff       	jmp    0x669c
    6b84:	8d b6 00 00 00 00    	lea    0x0(%esi),%esi
    6b8a:	8d bf 00 00 00 00    	lea    0x0(%edi),%edi
    6b90:	83 bd 78 ff ff ff 43 	cmpl   $0x43,-0x88(%ebp)
    6b97:	0f 86 93 00 00 00    	jbe    0x6c30
    6b9d:	8b 95 14 ff ff ff    	mov    -0xec(%ebp),%edx
    6ba3:	8b 04 95 20 03 50 00 	mov    0x500320(,%edx,4),%eax
    6baa:	83 f8 04             	cmp    $0x4,%eax
    6bad:	0f 86 bd 00 00 00    	jbe    0x6c70
    6bb3:	8b 8d 60 ff ff ff    	mov    -0xa0(%ebp),%ecx
    6bb9:	8b 01                	mov    (%ecx),%eax
    6bbb:	3d ff ff ff 7f       	cmp    $0x7fffffff,%eax
    6bc0:	0f 84 aa 00 00 00    	je     0x6c70
    6bc6:	8b 8d 14 ff ff ff    	mov    -0xec(%ebp),%ecx
    6bcc:	8b 04 8d 20 03 50 00 	mov    0x500320(,%ecx,4),%eax
    6bd3:	83 e8 01             	sub    $0x1,%eax
    6bd6:	89 04 8d 20 03 50 00 	mov    %eax,0x500320(,%ecx,4)
    6bdd:	8b 04 8d 20 03 50 00 	mov    0x500320(,%ecx,4),%eax
    6be4:	8b 0d 08 05 50 00    	mov    0x500508,%ecx
    6bea:	c7 44 24 04 00 00 00 	movl   $0x0,0x4(%esp)
    6bf1:	00 
    6bf2:	c1 e9 03             	shr    $0x3,%ecx
    6bf5:	0f af c1             	imul   %ecx,%eax
    6bf8:	89 04 24             	mov    %eax,(%esp)
    6bfb:	e8 20 e4 ff ff       	call   0x5020
    6c00:	a1 c0 02 50 00       	mov    0x5002c0,%eax
    6c05:	89 85 30 ff ff ff    	mov    %eax,-0xd0(%ebp)
    6c0b:	e9 8c fa ff ff       	jmp    0x669c
    6c10:	8b 95 60 ff ff ff    	mov    -0xa0(%ebp),%edx
    6c16:	8b 02                	mov    (%edx),%eax
    6c18:	3d ff ff ff 7f       	cmp    $0x7fffffff,%eax
    6c1d:	74 0d                	je     0x6c2c
    6c1f:	8b 02                	mov    (%edx),%eax
    6c21:	3d ff ff 1f 00       	cmp    $0x1fffff,%eax
    6c26:	0f 8f 61 01 00 00    	jg     0x6d8d
    6c2c:	89 f3                	mov    %esi,%ebx
    6c2e:	66 90                	xchg   %ax,%ax
    6c30:	c7 85 30 ff ff ff 00 	movl   $0x0,-0xd0(%ebp)
    6c37:	00 00 00 
    6c3a:	e9 5d fa ff ff       	jmp    0x669c
    6c3f:	39 de                	cmp    %ebx,%esi
    6c41:	74 cd                	je     0x6c10
    6c43:	8b 95 60 ff ff ff    	mov    -0xa0(%ebp),%edx
    6c49:	8b 02                	mov    (%edx),%eax
    6c4b:	3d ff ff 1f 00       	cmp    $0x1fffff,%eax
    6c50:	7e de                	jle    0x6c30
    6c52:	8b 02                	mov    (%edx),%eax
    6c54:	3d ff ff ff 7f       	cmp    $0x7fffffff,%eax
    6c59:	74 d5                	je     0x6c30
    6c5b:	8b 02                	mov    (%edx),%eax
    6c5d:	85 c0                	test   %eax,%eax
    6c5f:	74 cf                	je     0x6c30
    6c61:	e9 d8 fe ff ff       	jmp    0x6b3e
    6c66:	8d 76 00             	lea    0x0(%esi),%esi
    6c69:	8d bc 27 00 00 00 00 	lea    0x0(%edi,%eiz,1),%edi
    6c70:	83 bd 78 ff ff ff 44 	cmpl   $0x44,-0x88(%ebp)
    6c77:	74 b7                	je     0x6c30
    6c79:	8b 95 60 ff ff ff    	mov    -0xa0(%ebp),%edx
    6c7f:	8b 02                	mov    (%edx),%eax
    6c81:	3d ff ff ff 7f       	cmp    $0x7fffffff,%eax
    6c86:	75 a8                	jne    0x6c30
    6c88:	e9 39 ff ff ff       	jmp    0x6bc6
    6c8d:	8d 76 00             	lea    0x0(%esi),%esi
    6c90:	a1 c0 02 50 00       	mov    0x5002c0,%eax
    6c95:	89 f3                	mov    %esi,%ebx
    6c97:	89 85 30 ff ff ff    	mov    %eax,-0xd0(%ebp)
    6c9d:	e9 fa f9 ff ff       	jmp    0x669c
    6ca2:	8b 95 60 ff ff ff    	mov    -0xa0(%ebp),%edx
    6ca8:	8b 02                	mov    (%edx),%eax
    6caa:	3d ff ff ff 7f       	cmp    $0x7fffffff,%eax
    6caf:	74 0f                	je     0x6cc0
    6cb1:	8b 02                	mov    (%edx),%eax
    6cb3:	3d ff ff 1f 00       	cmp    $0x1fffff,%eax
    6cb8:	0f 8f cf 00 00 00    	jg     0x6d8d
    6cbe:	66 90                	xchg   %ax,%ax
    6cc0:	8b 95 14 ff ff ff    	mov    -0xec(%ebp),%edx
    6cc6:	8b 04 95 20 03 50 00 	mov    0x500320(,%edx,4),%eax
    6ccd:	83 f8 04             	cmp    $0x4,%eax
    6cd0:	0f 86 5a ff ff ff    	jbe    0x6c30
    6cd6:	8b 95 60 ff ff ff    	mov    -0xa0(%ebp),%edx
    6cdc:	8b 02                	mov    (%edx),%eax
    6cde:	3d ff ff ff 7f       	cmp    $0x7fffffff,%eax
    6ce3:	0f 85 dd fe ff ff    	jne    0x6bc6
    6ce9:	e9 42 ff ff ff       	jmp    0x6c30
    6cee:	8b 95 60 ff ff ff    	mov    -0xa0(%ebp),%edx
    6cf4:	8b 02                	mov    (%edx),%eax
    6cf6:	3d ff ff ff 7f       	cmp    $0x7fffffff,%eax
    6cfb:	74 0d                	je     0x6d0a
    6cfd:	8b 02                	mov    (%edx),%eax
    6cff:	3d ff ff 1f 00       	cmp    $0x1fffff,%eax
    6d04:	0f 8f 83 00 00 00    	jg     0x6d8d
    6d0a:	8b 95 74 ff ff ff    	mov    -0x8c(%ebp),%edx
    6d10:	df ad 70 ff ff ff    	fildll -0x90(%ebp)
    6d16:	85 d2                	test   %edx,%edx
    6d18:	0f 88 8f 00 00 00    	js     0x6dad
    6d1e:	8b 45 84             	mov    -0x7c(%ebp),%eax
    6d21:	dd 5d a0             	fstpl  -0x60(%ebp)
    6d24:	dd 45 a0             	fldl   -0x60(%ebp)
    6d27:	df 6d 80             	fildll -0x80(%ebp)
    6d2a:	85 c0                	test   %eax,%eax
    6d2c:	78 77                	js     0x6da5
    6d2e:	dd 5d a0             	fstpl  -0x60(%ebp)
    6d31:	dd 45 a0             	fldl   -0x60(%ebp)
    6d34:	dc 0d e8 b0 00 00    	fmull  0xb0e8
    6d3a:	d9 c9                	fxch   %st(1)
    6d3c:	da e9                	fucompp 
    6d3e:	df e0                	fnstsw %ax
    6d40:	9e                   	sahf   
    6d41:	0f 82 e9 fe ff ff    	jb     0x6c30
    6d47:	8b 95 14 ff ff ff    	mov    -0xec(%ebp),%edx
    6d4d:	8b 04 95 20 03 50 00 	mov    0x500320(,%edx,4),%eax
    6d54:	83 f8 04             	cmp    $0x4,%eax
    6d57:	0f 86 d3 fe ff ff    	jbe    0x6c30
    6d5d:	8b 8d 60 ff ff ff    	mov    -0xa0(%ebp),%ecx
    6d63:	8b 01                	mov    (%ecx),%eax
    6d65:	3d ff ff ff 7f       	cmp    $0x7fffffff,%eax
    6d6a:	0f 84 c0 fe ff ff    	je     0x6c30
    6d70:	8b 04 95 20 03 50 00 	mov    0x500320(,%edx,4),%eax
    6d77:	83 e8 01             	sub    $0x1,%eax
    6d7a:	89 04 95 20 03 50 00 	mov    %eax,0x500320(,%edx,4)
    6d81:	8b 04 95 20 03 50 00 	mov    0x500320(,%edx,4),%eax
    6d88:	e9 57 fe ff ff       	jmp    0x6be4
    6d8d:	e8 de ec ff ff       	call   0x5a70
    6d92:	8b 0d c0 02 50 00    	mov    0x5002c0,%ecx
    6d98:	89 8d 30 ff ff ff    	mov    %ecx,-0xd0(%ebp)
    6d9e:	89 c3                	mov    %eax,%ebx
    6da0:	e9 f7 f8 ff ff       	jmp    0x669c
    6da5:	d8 05 e0 b0 00 00    	fadds  0xb0e0
    6dab:	eb 81                	jmp    0x6d2e
    6dad:	d8 05 e0 b0 00 00    	fadds  0xb0e0
    6db3:	e9 66 ff ff ff       	jmp    0x6d1e
    6db8:	90                   	nop
    6db9:	90                   	nop
    6dba:	90                   	nop
    6dbb:	90                   	nop
    6dbc:	90                   	nop
    6dbd:	90                   	nop
    6dbe:	90                   	nop
    6dbf:	90                   	nop
    6dc0:	55                   	push   %ebp
    6dc1:	89 e5                	mov    %esp,%ebp
    6dc3:	57                   	push   %edi
    6dc4:	56                   	push   %esi
    6dc5:	53                   	push   %ebx
    6dc6:	83 ec 4c             	sub    $0x4c,%esp
    6dc9:	8b 3d 18 04 50 00    	mov    0x500418,%edi
    6dcf:	8b 75 08             	mov    0x8(%ebp),%esi
    6dd2:	8b 47 20             	mov    0x20(%edi),%eax
    6dd5:	c1 e8 18             	shr    $0x18,%eax
    6dd8:	c1 e0 04             	shl    $0x4,%eax
    6ddb:	8b 80 8c 03 50 00    	mov    0x50038c(%eax),%eax
    6de1:	8b 47 20             	mov    0x20(%edi),%eax
    6de4:	c1 e8 18             	shr    $0x18,%eax
    6de7:	c1 e0 04             	shl    $0x4,%eax
    6dea:	8b 80 8c 03 50 00    	mov    0x50038c(%eax),%eax
    6df0:	8b 10                	mov    (%eax),%edx
    6df2:	8b 47 20             	mov    0x20(%edi),%eax
    6df5:	c1 e8 18             	shr    $0x18,%eax
    6df8:	c1 e0 04             	shl    $0x4,%eax
    6dfb:	8b 80 8c 03 50 00    	mov    0x50038c(%eax),%eax
    6e01:	8d 42 1c             	lea    0x1c(%edx),%eax
    6e04:	8b 4a 3c             	mov    0x3c(%edx),%ecx
    6e07:	89 45 dc             	mov    %eax,-0x24(%ebp)
    6e0a:	89 c8                	mov    %ecx,%eax
    6e0c:	c1 e0 04             	shl    $0x4,%eax
    6e0f:	8b 98 8c 03 50 00    	mov    0x50038c(%eax),%ebx
    6e15:	39 5d dc             	cmp    %ebx,-0x24(%ebp)
    6e18:	0f 84 72 01 00 00    	je     0x6f90
    6e1e:	8b 88 80 03 50 00    	mov    0x500380(%eax),%ecx
    6e24:	83 f9 01             	cmp    $0x1,%ecx
    6e27:	89 4d e4             	mov    %ecx,-0x1c(%ebp)
    6e2a:	0f 84 00 02 00 00    	je     0x7030
    6e30:	8b 4a 40             	mov    0x40(%edx),%ecx
    6e33:	85 c9                	test   %ecx,%ecx
    6e35:	0f 84 b5 01 00 00    	je     0x6ff0
    6e3b:	8b 5a 44             	mov    0x44(%edx),%ebx
    6e3e:	85 db                	test   %ebx,%ebx
    6e40:	0f 84 1a 02 00 00    	je     0x7060
    6e46:	89 59 28             	mov    %ebx,0x28(%ecx)
    6e49:	8b 5a 44             	mov    0x44(%edx),%ebx
    6e4c:	89 4b 24             	mov    %ecx,0x24(%ebx)
    6e4f:	8b 4d e4             	mov    -0x1c(%ebp),%ecx
    6e52:	83 e9 01             	sub    $0x1,%ecx
    6e55:	89 88 80 03 50 00    	mov    %ecx,0x500380(%eax)
    6e5b:	8b 1e                	mov    (%esi),%ebx
    6e5d:	c7 42 10 03 00 00 00 	movl   $0x3,0x10(%edx)
    6e64:	85 db                	test   %ebx,%ebx
    6e66:	89 5d d8             	mov    %ebx,-0x28(%ebp)
    6e69:	0f 84 91 00 00 00    	je     0x6f00
    6e6f:	8b 4e 04             	mov    0x4(%esi),%ecx
    6e72:	8d 42 20             	lea    0x20(%edx),%eax
    6e75:	89 45 e0             	mov    %eax,-0x20(%ebp)
    6e78:	89 4d d4             	mov    %ecx,-0x2c(%ebp)
    6e7b:	8b 5d d4             	mov    -0x2c(%ebp),%ebx
    6e7e:	83 c1 04             	add    $0x4,%ecx
    6e81:	89 4d e4             	mov    %ecx,-0x1c(%ebp)
    6e84:	8b 4b 04             	mov    0x4(%ebx),%ecx
    6e87:	8b 42 20             	mov    0x20(%edx),%eax
    6e8a:	39 c8                	cmp    %ecx,%eax
    6e8c:	0f 8d be 00 00 00    	jge    0x6f50
    6e92:	8b 45 d4             	mov    -0x2c(%ebp),%eax
    6e95:	8d 74 26 00          	lea    0x0(%esi,%eiz,1),%esi
    6e99:	8d bc 27 00 00 00 00 	lea    0x0(%edi,%eiz,1),%edi
    6ea0:	8b 5d e4             	mov    -0x1c(%ebp),%ebx
    6ea3:	8b 0b                	mov    (%ebx),%ecx
    6ea5:	8b 5a 20             	mov    0x20(%edx),%ebx
    6ea8:	39 d9                	cmp    %ebx,%ecx
    6eaa:	7f 74                	jg     0x6f20
    6eac:	8b 46 08             	mov    0x8(%esi),%eax
    6eaf:	8b 4d dc             	mov    -0x24(%ebp),%ecx
    6eb2:	83 06 01             	addl   $0x1,(%esi)
    6eb5:	89 42 40             	mov    %eax,0x40(%edx)
    6eb8:	89 48 28             	mov    %ecx,0x28(%eax)
    6ebb:	c7 42 44 00 00 00 00 	movl   $0x0,0x44(%edx)
    6ec2:	89 4e 08             	mov    %ecx,0x8(%esi)
    6ec5:	8d 74 26 00          	lea    0x0(%esi,%eiz,1),%esi
    6ec9:	8d bc 27 00 00 00 00 	lea    0x0(%edi,%eiz,1),%edi
    6ed0:	8b 47 20             	mov    0x20(%edi),%eax
    6ed3:	89 72 14             	mov    %esi,0x14(%edx)
    6ed6:	c1 e8 18             	shr    $0x18,%eax
    6ed9:	c1 e0 04             	shl    $0x4,%eax
    6edc:	8b 80 8c 03 50 00    	mov    0x50038c(%eax),%eax
    6ee2:	8b 00                	mov    (%eax),%eax
    6ee4:	c7 44 24 08 01 00 00 	movl   $0x1,0x8(%esp)
    6eeb:	00 
    6eec:	89 14 24             	mov    %edx,(%esp)
    6eef:	89 44 24 04          	mov    %eax,0x4(%esp)
    6ef3:	e8 a8 f1 ff ff       	call   0x60a0
    6ef8:	83 c4 4c             	add    $0x4c,%esp
    6efb:	5b                   	pop    %ebx
    6efc:	5e                   	pop    %esi
    6efd:	5f                   	pop    %edi
    6efe:	5d                   	pop    %ebp
    6eff:	c3                   	ret    
    6f00:	8b 45 dc             	mov    -0x24(%ebp),%eax
    6f03:	c7 42 40 00 00 00 00 	movl   $0x0,0x40(%edx)
    6f0a:	c7 42 44 00 00 00 00 	movl   $0x0,0x44(%edx)
    6f11:	c7 06 01 00 00 00    	movl   $0x1,(%esi)
    6f17:	89 46 04             	mov    %eax,0x4(%esi)
    6f1a:	89 46 08             	mov    %eax,0x8(%esi)
    6f1d:	eb b1                	jmp    0x6ed0
    6f1f:	90                   	nop
    6f20:	8b 48 24             	mov    0x24(%eax),%ecx
    6f23:	85 c9                	test   %ecx,%ecx
    6f25:	0f 84 a5 01 00 00    	je     0x70d0
    6f2b:	8b 5d dc             	mov    -0x24(%ebp),%ebx
    6f2e:	89 58 24             	mov    %ebx,0x24(%eax)
    6f31:	89 59 28             	mov    %ebx,0x28(%ecx)
    6f34:	89 42 44             	mov    %eax,0x44(%edx)
    6f37:	8b 45 d8             	mov    -0x28(%ebp),%eax
    6f3a:	89 4a 40             	mov    %ecx,0x40(%edx)
    6f3d:	83 c0 01             	add    $0x1,%eax
    6f40:	89 06                	mov    %eax,(%esi)
    6f42:	eb 8c                	jmp    0x6ed0
    6f44:	8d b6 00 00 00 00    	lea    0x0(%esi),%esi
    6f4a:	8d bf 00 00 00 00    	lea    0x0(%edi),%edi
    6f50:	8b 43 28             	mov    0x28(%ebx),%eax
    6f53:	85 c0                	test   %eax,%eax
    6f55:	0f 84 37 ff ff ff    	je     0x6e92
    6f5b:	89 55 c4             	mov    %edx,-0x3c(%ebp)
    6f5e:	66 90                	xchg   %ax,%ax
    6f60:	8d 50 04             	lea    0x4(%eax),%edx
    6f63:	8b 58 04             	mov    0x4(%eax),%ebx
    6f66:	89 55 e4             	mov    %edx,-0x1c(%ebp)
    6f69:	8b 55 e0             	mov    -0x20(%ebp),%edx
    6f6c:	8b 0a                	mov    (%edx),%ecx
    6f6e:	39 cb                	cmp    %ecx,%ebx
    6f70:	7e 0e                	jle    0x6f80
    6f72:	8b 55 c4             	mov    -0x3c(%ebp),%edx
    6f75:	e9 26 ff ff ff       	jmp    0x6ea0
    6f7a:	8d b6 00 00 00 00    	lea    0x0(%esi),%esi
    6f80:	8b 48 28             	mov    0x28(%eax),%ecx
    6f83:	85 c9                	test   %ecx,%ecx
    6f85:	74 eb                	je     0x6f72
    6f87:	89 c8                	mov    %ecx,%eax
    6f89:	eb d5                	jmp    0x6f60
    6f8b:	90                   	nop
    6f8c:	8d 74 26 00          	lea    0x0(%esi,%eiz,1),%esi
    6f90:	8b 98 80 03 50 00    	mov    0x500380(%eax),%ebx
    6f96:	c7 45 e0 00 00 00 00 	movl   $0x0,-0x20(%ebp)
    6f9d:	85 db                	test   %ebx,%ebx
    6f9f:	89 5d e4             	mov    %ebx,-0x1c(%ebp)
    6fa2:	74 2e                	je     0x6fd2
    6fa4:	83 fb 01             	cmp    $0x1,%ebx
    6fa7:	0f 84 f3 00 00 00    	je     0x70a0
    6fad:	8b 98 84 03 50 00    	mov    0x500384(%eax),%ebx
    6fb3:	89 5d e0             	mov    %ebx,-0x20(%ebp)
    6fb6:	8b 5b 28             	mov    0x28(%ebx),%ebx
    6fb9:	89 98 84 03 50 00    	mov    %ebx,0x500384(%eax)
    6fbf:	c7 43 24 00 00 00 00 	movl   $0x0,0x24(%ebx)
    6fc6:	8b 5d e4             	mov    -0x1c(%ebp),%ebx
    6fc9:	83 eb 01             	sub    $0x1,%ebx
    6fcc:	89 98 80 03 50 00    	mov    %ebx,0x500380(%eax)
    6fd2:	8b 45 e0             	mov    -0x20(%ebp),%eax
    6fd5:	c1 e1 04             	shl    $0x4,%ecx
    6fd8:	89 81 8c 03 50 00    	mov    %eax,0x50038c(%ecx)
    6fde:	e9 78 fe ff ff       	jmp    0x6e5b
    6fe3:	8d b6 00 00 00 00    	lea    0x0(%esi),%esi
    6fe9:	8d bc 27 00 00 00 00 	lea    0x0(%edi,%eiz,1),%edi
    6ff0:	8b 4d e4             	mov    -0x1c(%ebp),%ecx
    6ff3:	85 c9                	test   %ecx,%ecx
    6ff5:	0f 84 60 fe ff ff    	je     0x6e5b
    6ffb:	8b 88 84 03 50 00    	mov    0x500384(%eax),%ecx
    7001:	8b 49 28             	mov    0x28(%ecx),%ecx
    7004:	89 88 84 03 50 00    	mov    %ecx,0x500384(%eax)
    700a:	c7 41 24 00 00 00 00 	movl   $0x0,0x24(%ecx)
    7011:	8b 4d e4             	mov    -0x1c(%ebp),%ecx
    7014:	83 e9 01             	sub    $0x1,%ecx
    7017:	89 88 80 03 50 00    	mov    %ecx,0x500380(%eax)
    701d:	e9 39 fe ff ff       	jmp    0x6e5b
    7022:	8d b4 26 00 00 00 00 	lea    0x0(%esi,%eiz,1),%esi
    7029:	8d bc 27 00 00 00 00 	lea    0x0(%edi,%eiz,1),%edi
    7030:	c7 80 84 03 50 00 00 	movl   $0x0,0x500384(%eax)
    7037:	00 00 00 
    703a:	c7 80 88 03 50 00 00 	movl   $0x0,0x500388(%eax)
    7041:	00 00 00 
    7044:	c7 80 80 03 50 00 00 	movl   $0x0,0x500380(%eax)
    704b:	00 00 00 
    704e:	e9 08 fe ff ff       	jmp    0x6e5b
    7053:	8d b6 00 00 00 00    	lea    0x0(%esi),%esi
    7059:	8d bc 27 00 00 00 00 	lea    0x0(%edi,%eiz,1),%edi
    7060:	8b 5d e4             	mov    -0x1c(%ebp),%ebx
    7063:	85 db                	test   %ebx,%ebx
    7065:	0f 84 f0 fd ff ff    	je     0x6e5b
    706b:	8b 88 88 03 50 00    	mov    0x500388(%eax),%ecx
    7071:	8b 49 24             	mov    0x24(%ecx),%ecx
    7074:	89 88 88 03 50 00    	mov    %ecx,0x500388(%eax)
    707a:	c7 41 28 00 00 00 00 	movl   $0x0,0x28(%ecx)
    7081:	8b 4d e4             	mov    -0x1c(%ebp),%ecx
    7084:	83 e9 01             	sub    $0x1,%ecx
    7087:	89 88 80 03 50 00    	mov    %ecx,0x500380(%eax)
    708d:	e9 c9 fd ff ff       	jmp    0x6e5b
    7092:	8d b4 26 00 00 00 00 	lea    0x0(%esi,%eiz,1),%esi
    7099:	8d bc 27 00 00 00 00 	lea    0x0(%edi,%eiz,1),%edi
    70a0:	8b 98 84 03 50 00    	mov    0x500384(%eax),%ebx
    70a6:	c7 80 88 03 50 00 00 	movl   $0x0,0x500388(%eax)
    70ad:	00 00 00 
    70b0:	c7 80 84 03 50 00 00 	movl   $0x0,0x500384(%eax)
    70b7:	00 00 00 
    70ba:	c7 80 80 03 50 00 00 	movl   $0x0,0x500380(%eax)
    70c1:	00 00 00 
    70c4:	89 5d e0             	mov    %ebx,-0x20(%ebp)
    70c7:	e9 06 ff ff ff       	jmp    0x6fd2
    70cc:	8d 74 26 00          	lea    0x0(%esi,%eiz,1),%esi
    70d0:	8b 5d d4             	mov    -0x2c(%ebp),%ebx
    70d3:	8b 45 dc             	mov    -0x24(%ebp),%eax
    70d6:	c7 42 40 00 00 00 00 	movl   $0x0,0x40(%edx)
    70dd:	83 06 01             	addl   $0x1,(%esi)
    70e0:	89 5a 44             	mov    %ebx,0x44(%edx)
    70e3:	89 43 24             	mov    %eax,0x24(%ebx)
    70e6:	89 46 04             	mov    %eax,0x4(%esi)
    70e9:	e9 e2 fd ff ff       	jmp    0x6ed0
    70ee:	90                   	nop
    70ef:	90                   	nop
    70f0:	55                   	push   %ebp
    70f1:	89 e5                	mov    %esp,%ebp
    70f3:	57                   	push   %edi
    70f4:	56                   	push   %esi
    70f5:	53                   	push   %ebx
    70f6:	83 ec 3c             	sub    $0x3c,%esp
    70f9:	fa                   	cli    
    70fa:	80 3d 84 02 50 00 00 	cmpb   $0x0,0x500284
    7101:	0f 84 99 01 00 00    	je     0x72a0
    7107:	a1 18 04 50 00       	mov    0x500418,%eax
    710c:	8b 40 20             	mov    0x20(%eax),%eax
    710f:	c1 e8 18             	shr    $0x18,%eax
    7112:	c1 e0 04             	shl    $0x4,%eax
    7115:	8b 80 8c 03 50 00    	mov    0x50038c(%eax),%eax
    711b:	8b 10                	mov    (%eax),%edx
    711d:	31 c9                	xor    %ecx,%ecx
    711f:	90                   	nop
    7120:	89 c8                	mov    %ecx,%eax
    7122:	f0 0f b1 15 04 04 50 	lock cmpxchg %edx,0x500404
    7129:	00 
    712a:	39 c2                	cmp    %eax,%edx
    712c:	75 f2                	jne    0x7120
    712e:	a1 00 04 50 00       	mov    0x500400,%eax
    7133:	8b 15 18 04 50 00    	mov    0x500418,%edx
    7139:	83 c0 01             	add    $0x1,%eax
    713c:	a3 00 04 50 00       	mov    %eax,0x500400
    7141:	8b 42 20             	mov    0x20(%edx),%eax
    7144:	c1 e8 18             	shr    $0x18,%eax
    7147:	c1 e0 04             	shl    $0x4,%eax
    714a:	8b 80 8c 03 50 00    	mov    0x50038c(%eax),%eax
    7150:	8b 42 20             	mov    0x20(%edx),%eax
    7153:	c1 e8 18             	shr    $0x18,%eax
    7156:	c1 e0 04             	shl    $0x4,%eax
    7159:	8b 80 8c 03 50 00    	mov    0x50038c(%eax),%eax
    715f:	8b 00                	mov    (%eax),%eax
    7161:	89 45 e0             	mov    %eax,-0x20(%ebp)
    7164:	8b 42 20             	mov    0x20(%edx),%eax
    7167:	c1 e8 18             	shr    $0x18,%eax
    716a:	c1 e0 04             	shl    $0x4,%eax
    716d:	8b 80 8c 03 50 00    	mov    0x50038c(%eax),%eax
    7173:	8b 52 20             	mov    0x20(%edx),%edx
    7176:	c1 ea 18             	shr    $0x18,%edx
    7179:	89 d0                	mov    %edx,%eax
    717b:	c1 e0 04             	shl    $0x4,%eax
    717e:	8b 88 80 03 50 00    	mov    0x500380(%eax),%ecx
    7184:	85 c9                	test   %ecx,%ecx
    7186:	0f 84 e4 00 00 00    	je     0x7270
    718c:	8b 98 84 03 50 00    	mov    0x500384(%eax),%ebx
    7192:	8b 73 04             	mov    0x4(%ebx),%esi
    7195:	81 fe ff ff ff 7f    	cmp    $0x7fffffff,%esi
    719b:	0f 84 cf 00 00 00    	je     0x7270
    71a1:	83 f9 01             	cmp    $0x1,%ecx
    71a4:	8b b0 8c 03 50 00    	mov    0x50038c(%eax),%esi
    71aa:	0f 84 90 01 00 00    	je     0x7340
    71b0:	8b 7b 28             	mov    0x28(%ebx),%edi
    71b3:	83 e9 01             	sub    $0x1,%ecx
    71b6:	89 88 80 03 50 00    	mov    %ecx,0x500380(%eax)
    71bc:	89 b8 84 03 50 00    	mov    %edi,0x500384(%eax)
    71c2:	c7 47 24 00 00 00 00 	movl   $0x0,0x24(%edi)
    71c9:	89 d0                	mov    %edx,%eax
    71cb:	c1 e0 04             	shl    $0x4,%eax
    71ce:	8b 88 80 03 50 00    	mov    0x500380(%eax),%ecx
    71d4:	89 98 8c 03 50 00    	mov    %ebx,0x50038c(%eax)
    71da:	85 c9                	test   %ecx,%ecx
    71dc:	89 4d dc             	mov    %ecx,-0x24(%ebp)
    71df:	0f 84 db 00 00 00    	je     0x72c0
    71e5:	8b 80 84 03 50 00    	mov    0x500384(%eax),%eax
    71eb:	8b 48 04             	mov    0x4(%eax),%ecx
    71ee:	89 c7                	mov    %eax,%edi
    71f0:	89 45 d8             	mov    %eax,-0x28(%ebp)
    71f3:	8d 46 04             	lea    0x4(%esi),%eax
    71f6:	83 c7 04             	add    $0x4,%edi
    71f9:	89 45 e4             	mov    %eax,-0x1c(%ebp)
    71fc:	8b 46 04             	mov    0x4(%esi),%eax
    71ff:	39 c8                	cmp    %ecx,%eax
    7201:	0f 8c 5c 01 00 00    	jl     0x7363
    7207:	8b 4d d8             	mov    -0x28(%ebp),%ecx
    720a:	8b 41 28             	mov    0x28(%ecx),%eax
    720d:	85 c0                	test   %eax,%eax
    720f:	0f 84 4e 01 00 00    	je     0x7363
    7215:	89 55 d4             	mov    %edx,-0x2c(%ebp)
    7218:	90                   	nop
    7219:	8d b4 26 00 00 00 00 	lea    0x0(%esi,%eiz,1),%esi
    7220:	8b 55 e4             	mov    -0x1c(%ebp),%edx
    7223:	8d 78 04             	lea    0x4(%eax),%edi
    7226:	8b 58 04             	mov    0x4(%eax),%ebx
    7229:	8b 0a                	mov    (%edx),%ecx
    722b:	39 cb                	cmp    %ecx,%ebx
    722d:	0f 8e bd 00 00 00    	jle    0x72f0
    7233:	8b 55 d4             	mov    -0x2c(%ebp),%edx
    7236:	8b 0f                	mov    (%edi),%ecx
    7238:	8b 5e 04             	mov    0x4(%esi),%ebx
    723b:	39 d9                	cmp    %ebx,%ecx
    723d:	0f 8f cd 00 00 00    	jg     0x7310
    7243:	89 d0                	mov    %edx,%eax
    7245:	c1 e0 04             	shl    $0x4,%eax
    7248:	8b 88 88 03 50 00    	mov    0x500388(%eax),%ecx
    724e:	83 80 80 03 50 00 01 	addl   $0x1,0x500380(%eax)
    7255:	89 71 28             	mov    %esi,0x28(%ecx)
    7258:	89 4e 24             	mov    %ecx,0x24(%esi)
    725b:	c7 46 28 00 00 00 00 	movl   $0x0,0x28(%esi)
    7262:	89 b0 88 03 50 00    	mov    %esi,0x500388(%eax)
    7268:	90                   	nop
    7269:	8d b4 26 00 00 00 00 	lea    0x0(%esi,%eiz,1),%esi
    7270:	c1 e2 04             	shl    $0x4,%edx
    7273:	8b 82 8c 03 50 00    	mov    0x50038c(%edx),%eax
    7279:	c7 44 24 08 01 00 00 	movl   $0x1,0x8(%esp)
    7280:	00 
    7281:	8b 00                	mov    (%eax),%eax
    7283:	89 44 24 04          	mov    %eax,0x4(%esp)
    7287:	8b 45 e0             	mov    -0x20(%ebp),%eax
    728a:	89 04 24             	mov    %eax,(%esp)
    728d:	e8 0e ee ff ff       	call   0x60a0
    7292:	83 c4 3c             	add    $0x3c,%esp
    7295:	5b                   	pop    %ebx
    7296:	5e                   	pop    %esi
    7297:	5f                   	pop    %edi
    7298:	5d                   	pop    %ebp
    7299:	c3                   	ret    
    729a:	8d b6 00 00 00 00    	lea    0x0(%esi),%esi
    72a0:	a1 18 04 50 00       	mov    0x500418,%eax
    72a5:	8b 50 20             	mov    0x20(%eax),%edx
    72a8:	c1 ea 18             	shr    $0x18,%edx
    72ab:	83 c2 01             	add    $0x1,%edx
    72ae:	e9 6a fe ff ff       	jmp    0x711d
    72b3:	8d b6 00 00 00 00    	lea    0x0(%esi),%esi
    72b9:	8d bc 27 00 00 00 00 	lea    0x0(%edi,%eiz,1),%edi
    72c0:	c7 46 24 00 00 00 00 	movl   $0x0,0x24(%esi)
    72c7:	c7 46 28 00 00 00 00 	movl   $0x0,0x28(%esi)
    72ce:	c7 80 80 03 50 00 01 	movl   $0x1,0x500380(%eax)
    72d5:	00 00 00 
    72d8:	89 b0 84 03 50 00    	mov    %esi,0x500384(%eax)
    72de:	89 b0 88 03 50 00    	mov    %esi,0x500388(%eax)
    72e4:	eb 8a                	jmp    0x7270
    72e6:	8d 76 00             	lea    0x0(%esi),%esi
    72e9:	8d bc 27 00 00 00 00 	lea    0x0(%edi,%eiz,1),%edi
    72f0:	8b 48 28             	mov    0x28(%eax),%ecx
    72f3:	85 c9                	test   %ecx,%ecx
    72f5:	0f 84 38 ff ff ff    	je     0x7233
    72fb:	89 c8                	mov    %ecx,%eax
    72fd:	e9 1e ff ff ff       	jmp    0x7220
    7302:	8d b4 26 00 00 00 00 	lea    0x0(%esi,%eiz,1),%esi
    7309:	8d bc 27 00 00 00 00 	lea    0x0(%edi,%eiz,1),%edi
    7310:	8b 48 24             	mov    0x24(%eax),%ecx
    7313:	85 c9                	test   %ecx,%ecx
    7315:	74 59                	je     0x7370
    7317:	89 71 28             	mov    %esi,0x28(%ecx)
    731a:	89 70 24             	mov    %esi,0x24(%eax)
    731d:	89 4e 24             	mov    %ecx,0x24(%esi)
    7320:	8b 4d dc             	mov    -0x24(%ebp),%ecx
    7323:	89 46 28             	mov    %eax,0x28(%esi)
    7326:	89 d0                	mov    %edx,%eax
    7328:	c1 e0 04             	shl    $0x4,%eax
    732b:	83 c1 01             	add    $0x1,%ecx
    732e:	89 88 80 03 50 00    	mov    %ecx,0x500380(%eax)
    7334:	e9 37 ff ff ff       	jmp    0x7270
    7339:	8d b4 26 00 00 00 00 	lea    0x0(%esi,%eiz,1),%esi
    7340:	c7 80 84 03 50 00 00 	movl   $0x0,0x500384(%eax)
    7347:	00 00 00 
    734a:	c7 80 88 03 50 00 00 	movl   $0x0,0x500388(%eax)
    7351:	00 00 00 
    7354:	c7 80 80 03 50 00 00 	movl   $0x0,0x500380(%eax)
    735b:	00 00 00 
    735e:	e9 66 fe ff ff       	jmp    0x71c9
    7363:	8b 45 d8             	mov    -0x28(%ebp),%eax
    7366:	e9 cb fe ff ff       	jmp    0x7236
    736b:	90                   	nop
    736c:	8d 74 26 00          	lea    0x0(%esi,%eiz,1),%esi
    7370:	8b 4d d8             	mov    -0x28(%ebp),%ecx
    7373:	89 d0                	mov    %edx,%eax
    7375:	c1 e0 04             	shl    $0x4,%eax
    7378:	c7 46 24 00 00 00 00 	movl   $0x0,0x24(%esi)
    737f:	83 80 80 03 50 00 01 	addl   $0x1,0x500380(%eax)
    7386:	89 4e 28             	mov    %ecx,0x28(%esi)
    7389:	89 71 24             	mov    %esi,0x24(%ecx)
    738c:	89 b0 84 03 50 00    	mov    %esi,0x500384(%eax)
    7392:	e9 d9 fe ff ff       	jmp    0x7270
    7397:	90                   	nop
    7398:	90                   	nop
    7399:	90                   	nop
    739a:	90                   	nop
    739b:	90                   	nop
    739c:	90                   	nop
    739d:	90                   	nop
    739e:	90                   	nop
    739f:	90                   	nop
    73a0:	55                   	push   %ebp
    73a1:	89 e5                	mov    %esp,%ebp
    73a3:	57                   	push   %edi
    73a4:	56                   	push   %esi
    73a5:	be a2 01 00 00       	mov    $0x1a2,%esi
    73aa:	53                   	push   %ebx
    73ab:	bb 9c 01 00 00       	mov    $0x19c,%ebx
    73b0:	83 ec 3c             	sub    $0x3c,%esp
    73b3:	8b 15 18 04 50 00    	mov    0x500418,%edx
    73b9:	89 55 d0             	mov    %edx,-0x30(%ebp)
    73bc:	eb 1c                	jmp    0x73da
    73be:	66 90                	xchg   %ax,%ax
    73c0:	f4                   	hlt    
    73c1:	8b 55 d4             	mov    -0x2c(%ebp),%edx
    73c4:	8b 02                	mov    (%edx),%eax
    73c6:	c1 e8 18             	shr    $0x18,%eax
    73c9:	c1 e0 04             	shl    $0x4,%eax
    73cc:	8b b8 80 03 50 00    	mov    0x500380(%eax),%edi
    73d2:	85 ff                	test   %edi,%edi
    73d4:	0f 85 b6 00 00 00    	jne    0x7490
    73da:	a1 ec 04 50 00       	mov    0x5004ec,%eax
    73df:	8b 0d c4 02 50 00    	mov    0x5002c4,%ecx
    73e5:	39 c1                	cmp    %eax,%ecx
    73e7:	0f 86 d3 00 00 00    	jbe    0x74c0
    73ed:	fb                   	sti    
    73ee:	8b 55 d0             	mov    -0x30(%ebp),%edx
    73f1:	8b 45 d0             	mov    -0x30(%ebp),%eax
    73f4:	8b 4a 20             	mov    0x20(%edx),%ecx
    73f7:	83 c0 20             	add    $0x20,%eax
    73fa:	89 45 d4             	mov    %eax,-0x2c(%ebp)
    73fd:	c1 e9 18             	shr    $0x18,%ecx
    7400:	8b 0c 8d e0 02 50 00 	mov    0x5002e0(,%ecx,4),%ecx
    7407:	85 c9                	test   %ecx,%ecx
    7409:	74 b5                	je     0x73c0
    740b:	89 d9                	mov    %ebx,%ecx
    740d:	0f 32                	rdmsr  
    740f:	89 45 d8             	mov    %eax,-0x28(%ebp)
    7412:	89 f1                	mov    %esi,%ecx
    7414:	89 55 dc             	mov    %edx,-0x24(%ebp)
    7417:	0f 32                	rdmsr  
    7419:	8b 4d dc             	mov    -0x24(%ebp),%ecx
    741c:	89 55 e4             	mov    %edx,-0x1c(%ebp)
    741f:	8b 55 d8             	mov    -0x28(%ebp),%edx
    7422:	89 45 e0             	mov    %eax,-0x20(%ebp)
    7425:	8b 45 e0             	mov    -0x20(%ebp),%eax
    7428:	0f ac ca 10          	shrd   $0x10,%ecx,%edx
    742c:	89 55 d8             	mov    %edx,-0x28(%ebp)
    742f:	8b 55 e4             	mov    -0x1c(%ebp),%edx
    7432:	c1 e9 10             	shr    $0x10,%ecx
    7435:	8b 7d d8             	mov    -0x28(%ebp),%edi
    7438:	89 4d dc             	mov    %ecx,-0x24(%ebp)
    743b:	0f ac d0 10          	shrd   $0x10,%edx,%eax
    743f:	0f b6 c8             	movzbl %al,%ecx
    7442:	83 e7 7f             	and    $0x7f,%edi
    7445:	29 f9                	sub    %edi,%ecx
    7447:	83 f9 42             	cmp    $0x42,%ecx
    744a:	0f 87 70 ff ff ff    	ja     0x73c0
    7450:	8b 45 d4             	mov    -0x2c(%ebp),%eax
    7453:	8b 10                	mov    (%eax),%edx
    7455:	c1 ea 18             	shr    $0x18,%edx
    7458:	c1 e2 04             	shl    $0x4,%edx
    745b:	8b 92 8c 03 50 00    	mov    0x50038c(%edx),%edx
    7461:	8b 00                	mov    (%eax),%eax
    7463:	c1 e8 18             	shr    $0x18,%eax
    7466:	8b 04 85 a0 02 50 00 	mov    0x5002a0(,%eax,4),%eax
    746d:	89 04 24             	mov    %eax,(%esp)
    7470:	e8 0b e8 ff ff       	call   0x5c80
    7475:	8b 0d 18 04 50 00    	mov    0x500418,%ecx
    747b:	89 4d d0             	mov    %ecx,-0x30(%ebp)
    747e:	83 c1 20             	add    $0x20,%ecx
    7481:	89 4d d4             	mov    %ecx,-0x2c(%ebp)
    7484:	e9 38 ff ff ff       	jmp    0x73c1
    7489:	8d b4 26 00 00 00 00 	lea    0x0(%esi,%eiz,1),%esi
    7490:	e8 5b fc ff ff       	call   0x70f0
    7495:	8b 0d 18 04 50 00    	mov    0x500418,%ecx
    749b:	a1 ec 04 50 00       	mov    0x5004ec,%eax
    74a0:	89 4d d0             	mov    %ecx,-0x30(%ebp)
    74a3:	8b 0d c4 02 50 00    	mov    0x5002c4,%ecx
    74a9:	39 c1                	cmp    %eax,%ecx
    74ab:	0f 87 3c ff ff ff    	ja     0x73ed
    74b1:	eb 0d                	jmp    0x74c0
    74b3:	90                   	nop
    74b4:	90                   	nop
    74b5:	90                   	nop
    74b6:	90                   	nop
    74b7:	90                   	nop
    74b8:	90                   	nop
    74b9:	90                   	nop
    74ba:	90                   	nop
    74bb:	90                   	nop
    74bc:	90                   	nop
    74bd:	90                   	nop
    74be:	90                   	nop
    74bf:	90                   	nop
    74c0:	8b 55 d0             	mov    -0x30(%ebp),%edx
    74c3:	fa                   	cli    
    74c4:	8b 42 20             	mov    0x20(%edx),%eax
    74c7:	c1 e8 18             	shr    $0x18,%eax
    74ca:	85 c0                	test   %eax,%eax
    74cc:	0f 85 84 00 00 00    	jne    0x7556
    74d2:	a1 88 02 50 00       	mov    0x500288,%eax
    74d7:	89 04 24             	mov    %eax,(%esp)
    74da:	e8 51 2f 00 00       	call   0xa430
    74df:	e8 ec b2 ff ff       	call   0x27d0
    74e4:	c7 04 24 59 b0 00 00 	movl   $0xb059,(%esp)
    74eb:	e8 90 b0 ff ff       	call   0x2580
    74f0:	0f b6 05 44 02 50 00 	movzbl 0x500244,%eax
    74f7:	0f b6 c0             	movzbl %al,%eax
    74fa:	89 04 24             	mov    %eax,(%esp)
    74fd:	e8 1e b4 ff ff       	call   0x2920
    7502:	c7 04 24 a7 b1 00 00 	movl   $0xb1a7,(%esp)
    7509:	e8 72 b0 ff ff       	call   0x2580
    750e:	c7 05 40 02 50 00 0a 	movl   $0xa,0x500240
    7515:	00 00 00 
    7518:	e8 b3 b2 ff ff       	call   0x27d0
    751d:	c7 04 24 75 b0 00 00 	movl   $0xb075,(%esp)
    7524:	e8 57 b0 ff ff       	call   0x2580
    7529:	0f b6 05 44 02 50 00 	movzbl 0x500244,%eax
    7530:	0f b6 c0             	movzbl %al,%eax
    7533:	89 04 24             	mov    %eax,(%esp)
    7536:	e8 e5 b3 ff ff       	call   0x2920
    753b:	c7 04 24 a7 b1 00 00 	movl   $0xb1a7,(%esp)
    7542:	e8 39 b0 ff ff       	call   0x2580
    7547:	c7 05 40 02 50 00 0a 	movl   $0xa,0x500240
    754e:	00 00 00 
    7551:	e8 8a 24 00 00       	call   0x99e0
    7556:	f4                   	hlt    
    7557:	31 c0                	xor    %eax,%eax
    7559:	83 c4 3c             	add    $0x3c,%esp
    755c:	5b                   	pop    %ebx
    755d:	5e                   	pop    %esi
    755e:	5f                   	pop    %edi
    755f:	5d                   	pop    %ebp
    7560:	c3                   	ret    
    7561:	90                   	nop
    7562:	90                   	nop
    7563:	90                   	nop
    7564:	90                   	nop
    7565:	90                   	nop
    7566:	90                   	nop
    7567:	90                   	nop
    7568:	90                   	nop
    7569:	90                   	nop
    756a:	90                   	nop
    756b:	90                   	nop
    756c:	90                   	nop
    756d:	90                   	nop
    756e:	90                   	nop
    756f:	90                   	nop
    7570:	55                   	push   %ebp
    7571:	89 e5                	mov    %esp,%ebp
    7573:	57                   	push   %edi
    7574:	56                   	push   %esi
    7575:	53                   	push   %ebx
    7576:	83 ec 2c             	sub    $0x2c,%esp
    7579:	8b 55 08             	mov    0x8(%ebp),%edx
    757c:	80 7d 0c 00          	cmpb   $0x0,0xc(%ebp)
    7580:	0f 84 ba 00 00 00    	je     0x7640
    7586:	8b 0d 18 04 50 00    	mov    0x500418,%ecx
    758c:	8d 72 1c             	lea    0x1c(%edx),%esi
    758f:	8b 41 20             	mov    0x20(%ecx),%eax
    7592:	c1 e8 18             	shr    $0x18,%eax
    7595:	c1 e0 04             	shl    $0x4,%eax
    7598:	8b 80 8c 03 50 00    	mov    0x50038c(%eax),%eax
    759e:	8b 00                	mov    (%eax),%eax
    75a0:	89 45 e4             	mov    %eax,-0x1c(%ebp)
    75a3:	8b 41 20             	mov    0x20(%ecx),%eax
    75a6:	c1 e8 18             	shr    $0x18,%eax
    75a9:	c1 e0 04             	shl    $0x4,%eax
    75ac:	8b 80 8c 03 50 00    	mov    0x50038c(%eax),%eax
    75b2:	8b 5a 3c             	mov    0x3c(%edx),%ebx
    75b5:	89 d8                	mov    %ebx,%eax
    75b7:	c1 e0 04             	shl    $0x4,%eax
    75ba:	8b b8 8c 03 50 00    	mov    0x50038c(%eax),%edi
    75c0:	39 f7                	cmp    %esi,%edi
    75c2:	0f 84 c8 00 00 00    	je     0x7690
    75c8:	8b 98 80 03 50 00    	mov    0x500380(%eax),%ebx
    75ce:	83 fb 01             	cmp    $0x1,%ebx
    75d1:	0f 84 59 01 00 00    	je     0x7730
    75d7:	8b 72 40             	mov    0x40(%edx),%esi
    75da:	85 f6                	test   %esi,%esi
    75dc:	0f 84 1e 01 00 00    	je     0x7700
    75e2:	8b 7a 44             	mov    0x44(%edx),%edi
    75e5:	85 ff                	test   %edi,%edi
    75e7:	0f 84 73 01 00 00    	je     0x7760
    75ed:	89 7e 28             	mov    %edi,0x28(%esi)
    75f0:	8b 7a 44             	mov    0x44(%edx),%edi
    75f3:	83 eb 01             	sub    $0x1,%ebx
    75f6:	89 98 80 03 50 00    	mov    %ebx,0x500380(%eax)
    75fc:	89 77 24             	mov    %esi,0x24(%edi)
    75ff:	c7 42 10 02 00 00 00 	movl   $0x2,0x10(%edx)
    7606:	8b 41 20             	mov    0x20(%ecx),%eax
    7609:	c1 e8 18             	shr    $0x18,%eax
    760c:	c1 e0 04             	shl    $0x4,%eax
    760f:	8b 80 8c 03 50 00    	mov    0x50038c(%eax),%eax
    7615:	8b 00                	mov    (%eax),%eax
    7617:	c7 44 24 08 01 00 00 	movl   $0x1,0x8(%esp)
    761e:	00 
    761f:	89 44 24 04          	mov    %eax,0x4(%esp)
    7623:	8b 45 e4             	mov    -0x1c(%ebp),%eax
    7626:	89 04 24             	mov    %eax,(%esp)
    7629:	e8 72 ea ff ff       	call   0x60a0
    762e:	83 c4 2c             	add    $0x2c,%esp
    7631:	5b                   	pop    %ebx
    7632:	5e                   	pop    %esi
    7633:	5f                   	pop    %edi
    7634:	5d                   	pop    %ebp
    7635:	c3                   	ret    
    7636:	8d 76 00             	lea    0x0(%esi),%esi
    7639:	8d bc 27 00 00 00 00 	lea    0x0(%edi,%eiz,1),%edi
    7640:	fa                   	cli    
    7641:	80 3d 84 02 50 00 00 	cmpb   $0x0,0x500284
    7648:	0f 84 92 00 00 00    	je     0x76e0
    764e:	a1 18 04 50 00       	mov    0x500418,%eax
    7653:	8b 40 20             	mov    0x20(%eax),%eax
    7656:	c1 e8 18             	shr    $0x18,%eax
    7659:	c1 e0 04             	shl    $0x4,%eax
    765c:	8b 80 8c 03 50 00    	mov    0x50038c(%eax),%eax
    7662:	8b 08                	mov    (%eax),%ecx
    7664:	31 db                	xor    %ebx,%ebx
    7666:	8d 76 00             	lea    0x0(%esi),%esi
    7669:	8d bc 27 00 00 00 00 	lea    0x0(%edi,%eiz,1),%edi
    7670:	89 d8                	mov    %ebx,%eax
    7672:	f0 0f b1 0d 04 04 50 	lock cmpxchg %ecx,0x500404
    7679:	00 
    767a:	39 c1                	cmp    %eax,%ecx
    767c:	75 f2                	jne    0x7670
    767e:	a1 00 04 50 00       	mov    0x500400,%eax
    7683:	83 c0 01             	add    $0x1,%eax
    7686:	a3 00 04 50 00       	mov    %eax,0x500400
    768b:	e9 f6 fe ff ff       	jmp    0x7586
    7690:	8b b0 80 03 50 00    	mov    0x500380(%eax),%esi
    7696:	31 ff                	xor    %edi,%edi
    7698:	85 f6                	test   %esi,%esi
    769a:	89 75 e0             	mov    %esi,-0x20(%ebp)
    769d:	74 2b                	je     0x76ca
    769f:	83 fe 01             	cmp    $0x1,%esi
    76a2:	0f 84 e8 00 00 00    	je     0x7790
    76a8:	8b b8 84 03 50 00    	mov    0x500384(%eax),%edi
    76ae:	8b 77 28             	mov    0x28(%edi),%esi
    76b1:	89 b0 84 03 50 00    	mov    %esi,0x500384(%eax)
    76b7:	c7 46 24 00 00 00 00 	movl   $0x0,0x24(%esi)
    76be:	8b 75 e0             	mov    -0x20(%ebp),%esi
    76c1:	83 ee 01             	sub    $0x1,%esi
    76c4:	89 b0 80 03 50 00    	mov    %esi,0x500380(%eax)
    76ca:	c1 e3 04             	shl    $0x4,%ebx
    76cd:	89 bb 8c 03 50 00    	mov    %edi,0x50038c(%ebx)
    76d3:	e9 27 ff ff ff       	jmp    0x75ff
    76d8:	90                   	nop
    76d9:	8d b4 26 00 00 00 00 	lea    0x0(%esi,%eiz,1),%esi
    76e0:	a1 18 04 50 00       	mov    0x500418,%eax
    76e5:	8b 48 20             	mov    0x20(%eax),%ecx
    76e8:	c1 e9 18             	shr    $0x18,%ecx
    76eb:	83 c1 01             	add    $0x1,%ecx
    76ee:	e9 71 ff ff ff       	jmp    0x7664
    76f3:	8d b6 00 00 00 00    	lea    0x0(%esi),%esi
    76f9:	8d bc 27 00 00 00 00 	lea    0x0(%edi,%eiz,1),%edi
    7700:	85 db                	test   %ebx,%ebx
    7702:	0f 84 f7 fe ff ff    	je     0x75ff
    7708:	8b b0 84 03 50 00    	mov    0x500384(%eax),%esi
    770e:	83 eb 01             	sub    $0x1,%ebx
    7711:	89 98 80 03 50 00    	mov    %ebx,0x500380(%eax)
    7717:	8b 76 28             	mov    0x28(%esi),%esi
    771a:	89 b0 84 03 50 00    	mov    %esi,0x500384(%eax)
    7720:	c7 46 24 00 00 00 00 	movl   $0x0,0x24(%esi)
    7727:	e9 d3 fe ff ff       	jmp    0x75ff
    772c:	8d 74 26 00          	lea    0x0(%esi,%eiz,1),%esi
    7730:	c7 80 84 03 50 00 00 	movl   $0x0,0x500384(%eax)
    7737:	00 00 00 
    773a:	c7 80 88 03 50 00 00 	movl   $0x0,0x500388(%eax)
    7741:	00 00 00 
    7744:	c7 80 80 03 50 00 00 	movl   $0x0,0x500380(%eax)
    774b:	00 00 00 
    774e:	e9 ac fe ff ff       	jmp    0x75ff
    7753:	8d b6 00 00 00 00    	lea    0x0(%esi),%esi
    7759:	8d bc 27 00 00 00 00 	lea    0x0(%edi,%eiz,1),%edi
    7760:	85 db                	test   %ebx,%ebx
    7762:	0f 84 97 fe ff ff    	je     0x75ff
    7768:	8b b0 88 03 50 00    	mov    0x500388(%eax),%esi
    776e:	83 eb 01             	sub    $0x1,%ebx
    7771:	89 98 80 03 50 00    	mov    %ebx,0x500380(%eax)
    7777:	8b 76 24             	mov    0x24(%esi),%esi
    777a:	89 b0 88 03 50 00    	mov    %esi,0x500388(%eax)
    7780:	c7 46 28 00 00 00 00 	movl   $0x0,0x28(%esi)
    7787:	e9 73 fe ff ff       	jmp    0x75ff
    778c:	8d 74 26 00          	lea    0x0(%esi,%eiz,1),%esi
    7790:	8b b8 84 03 50 00    	mov    0x500384(%eax),%edi
    7796:	c7 80 88 03 50 00 00 	movl   $0x0,0x500388(%eax)
    779d:	00 00 00 
    77a0:	c7 80 84 03 50 00 00 	movl   $0x0,0x500384(%eax)
    77a7:	00 00 00 
    77aa:	c7 80 80 03 50 00 00 	movl   $0x0,0x500380(%eax)
    77b1:	00 00 00 
    77b4:	e9 11 ff ff ff       	jmp    0x76ca
    77b9:	90                   	nop
    77ba:	90                   	nop
    77bb:	90                   	nop
    77bc:	90                   	nop
    77bd:	90                   	nop
    77be:	90                   	nop
    77bf:	90                   	nop
    77c0:	55                   	push   %ebp
    77c1:	89 e5                	mov    %esp,%ebp
    77c3:	56                   	push   %esi
    77c4:	53                   	push   %ebx
    77c5:	83 ec 10             	sub    $0x10,%esp
    77c8:	8b 5d 08             	mov    0x8(%ebp),%ebx
    77cb:	fa                   	cli    
    77cc:	80 3d 84 02 50 00 00 	cmpb   $0x0,0x500284
    77d3:	74 6b                	je     0x7840
    77d5:	a1 18 04 50 00       	mov    0x500418,%eax
    77da:	8b 40 20             	mov    0x20(%eax),%eax
    77dd:	c1 e8 18             	shr    $0x18,%eax
    77e0:	c1 e0 04             	shl    $0x4,%eax
    77e3:	8b 80 8c 03 50 00    	mov    0x50038c(%eax),%eax
    77e9:	8b 10                	mov    (%eax),%edx
    77eb:	31 c9                	xor    %ecx,%ecx
    77ed:	8d 76 00             	lea    0x0(%esi),%esi
    77f0:	89 c8                	mov    %ecx,%eax
    77f2:	f0 0f b1 15 04 04 50 	lock cmpxchg %edx,0x500404
    77f9:	00 
    77fa:	39 c2                	cmp    %eax,%edx
    77fc:	75 f2                	jne    0x77f0
    77fe:	a1 00 04 50 00       	mov    0x500400,%eax
    7803:	83 c0 01             	add    $0x1,%eax
    7806:	a3 00 04 50 00       	mov    %eax,0x500400
    780b:	8b 43 10             	mov    0x10(%ebx),%eax
    780e:	83 f8 04             	cmp    $0x4,%eax
    7811:	75 3d                	jne    0x7850
    7813:	a1 00 04 50 00       	mov    0x500400,%eax
    7818:	83 e8 01             	sub    $0x1,%eax
    781b:	a3 00 04 50 00       	mov    %eax,0x500400
    7820:	a1 00 04 50 00       	mov    0x500400,%eax
    7825:	85 c0                	test   %eax,%eax
    7827:	7e 67                	jle    0x7890
    7829:	fb                   	sti    
    782a:	8b 43 08             	mov    0x8(%ebx),%eax
    782d:	8b 00                	mov    (%eax),%eax
    782f:	83 c4 10             	add    $0x10,%esp
    7832:	5b                   	pop    %ebx
    7833:	5e                   	pop    %esi
    7834:	5d                   	pop    %ebp
    7835:	c3                   	ret    
    7836:	8d 76 00             	lea    0x0(%esi),%esi
    7839:	8d bc 27 00 00 00 00 	lea    0x0(%edi,%eiz,1),%edi
    7840:	a1 18 04 50 00       	mov    0x500418,%eax
    7845:	8b 50 20             	mov    0x20(%eax),%edx
    7848:	c1 ea 18             	shr    $0x18,%edx
    784b:	83 c2 01             	add    $0x1,%edx
    784e:	eb 9b                	jmp    0x77eb
    7850:	a1 18 04 50 00       	mov    0x500418,%eax
    7855:	8b 40 20             	mov    0x20(%eax),%eax
    7858:	c1 e8 18             	shr    $0x18,%eax
    785b:	c1 e0 04             	shl    $0x4,%eax
    785e:	8b 80 8c 03 50 00    	mov    0x50038c(%eax),%eax
    7864:	8b 00                	mov    (%eax),%eax
    7866:	89 43 18             	mov    %eax,0x18(%ebx)
    7869:	8b 43 18             	mov    0x18(%ebx),%eax
    786c:	c7 44 24 04 01 00 00 	movl   $0x1,0x4(%esp)
    7873:	00 
    7874:	89 04 24             	mov    %eax,(%esp)
    7877:	e8 f4 fc ff ff       	call   0x7570
    787c:	8b 43 08             	mov    0x8(%ebx),%eax
    787f:	8b 00                	mov    (%eax),%eax
    7881:	83 c4 10             	add    $0x10,%esp
    7884:	5b                   	pop    %ebx
    7885:	5e                   	pop    %esi
    7886:	5d                   	pop    %ebp
    7887:	c3                   	ret    
    7888:	90                   	nop
    7889:	8d b4 26 00 00 00 00 	lea    0x0(%esi,%eiz,1),%esi
    7890:	c7 05 04 04 50 00 00 	movl   $0x0,0x500404
    7897:	00 00 00 
    789a:	eb 8d                	jmp    0x7829
    789c:	90                   	nop
    789d:	90                   	nop
    789e:	90                   	nop
    789f:	90                   	nop
    78a0:	55                   	push   %ebp
    78a1:	89 e5                	mov    %esp,%ebp
    78a3:	57                   	push   %edi
    78a4:	56                   	push   %esi
    78a5:	53                   	push   %ebx
    78a6:	83 ec 4c             	sub    $0x4c,%esp
    78a9:	fa                   	cli    
    78aa:	80 3d 84 02 50 00 00 	cmpb   $0x0,0x500284
    78b1:	0f 84 c9 01 00 00    	je     0x7a80
    78b7:	a1 18 04 50 00       	mov    0x500418,%eax
    78bc:	8b 40 20             	mov    0x20(%eax),%eax
    78bf:	c1 e8 18             	shr    $0x18,%eax
    78c2:	c1 e0 04             	shl    $0x4,%eax
    78c5:	8b 80 8c 03 50 00    	mov    0x50038c(%eax),%eax
    78cb:	8b 10                	mov    (%eax),%edx
    78cd:	31 c9                	xor    %ecx,%ecx
    78cf:	90                   	nop
    78d0:	89 c8                	mov    %ecx,%eax
    78d2:	f0 0f b1 15 04 04 50 	lock cmpxchg %edx,0x500404
    78d9:	00 
    78da:	39 c2                	cmp    %eax,%edx
    78dc:	75 f2                	jne    0x78d0
    78de:	a1 00 04 50 00       	mov    0x500400,%eax
    78e3:	8b 15 18 04 50 00    	mov    0x500418,%edx
    78e9:	83 c0 01             	add    $0x1,%eax
    78ec:	a3 00 04 50 00       	mov    %eax,0x500400
    78f1:	8b 42 20             	mov    0x20(%edx),%eax
    78f4:	c1 e8 18             	shr    $0x18,%eax
    78f7:	c1 e0 04             	shl    $0x4,%eax
    78fa:	8b 80 8c 03 50 00    	mov    0x50038c(%eax),%eax
    7900:	8b 42 20             	mov    0x20(%edx),%eax
    7903:	c1 e8 18             	shr    $0x18,%eax
    7906:	c1 e0 04             	shl    $0x4,%eax
    7909:	8b 80 8c 03 50 00    	mov    0x50038c(%eax),%eax
    790f:	8b 4a 20             	mov    0x20(%edx),%ecx
    7912:	8b 00                	mov    (%eax),%eax
    7914:	c1 e9 18             	shr    $0x18,%ecx
    7917:	c1 e1 04             	shl    $0x4,%ecx
    791a:	8b 89 8c 03 50 00    	mov    0x50038c(%ecx),%ecx
    7920:	8b 58 3c             	mov    0x3c(%eax),%ebx
    7923:	8d 70 1c             	lea    0x1c(%eax),%esi
    7926:	89 d9                	mov    %ebx,%ecx
    7928:	c1 e1 04             	shl    $0x4,%ecx
    792b:	8b b9 8c 03 50 00    	mov    0x50038c(%ecx),%edi
    7931:	39 f7                	cmp    %esi,%edi
    7933:	0f 84 a7 02 00 00    	je     0x7be0
    7939:	8b 99 80 03 50 00    	mov    0x500380(%ecx),%ebx
    793f:	83 fb 01             	cmp    $0x1,%ebx
    7942:	0f 84 c8 03 00 00    	je     0x7d10
    7948:	8b 70 40             	mov    0x40(%eax),%esi
    794b:	85 f6                	test   %esi,%esi
    794d:	0f 84 dd 02 00 00    	je     0x7c30
    7953:	8b 78 44             	mov    0x44(%eax),%edi
    7956:	85 ff                	test   %edi,%edi
    7958:	0f 84 0c 04 00 00    	je     0x7d6a
    795e:	89 7e 28             	mov    %edi,0x28(%esi)
    7961:	8b 78 44             	mov    0x44(%eax),%edi
    7964:	83 eb 01             	sub    $0x1,%ebx
    7967:	89 99 80 03 50 00    	mov    %ebx,0x500380(%ecx)
    796d:	89 77 24             	mov    %esi,0x24(%edi)
    7970:	8b 48 08             	mov    0x8(%eax),%ecx
    7973:	8b 5d 08             	mov    0x8(%ebp),%ebx
    7976:	c7 40 10 04 00 00 00 	movl   $0x4,0x10(%eax)
    797d:	89 19                	mov    %ebx,(%ecx)
    797f:	8b 0d c4 02 50 00    	mov    0x5002c4,%ecx
    7985:	83 e9 01             	sub    $0x1,%ecx
    7988:	89 0d c4 02 50 00    	mov    %ecx,0x5002c4
    798e:	8b 48 18             	mov    0x18(%eax),%ecx
    7991:	85 c9                	test   %ecx,%ecx
    7993:	0f 84 17 01 00 00    	je     0x7ab0
    7999:	8b 48 18             	mov    0x18(%eax),%ecx
    799c:	c7 41 10 01 00 00 00 	movl   $0x1,0x10(%ecx)
    79a3:	8b 58 18             	mov    0x18(%eax),%ebx
    79a6:	8b 4a 20             	mov    0x20(%edx),%ecx
    79a9:	8d 7b 1c             	lea    0x1c(%ebx),%edi
    79ac:	c1 e9 18             	shr    $0x18,%ecx
    79af:	c1 e1 04             	shl    $0x4,%ecx
    79b2:	8b 89 8c 03 50 00    	mov    0x50038c(%ecx),%ecx
    79b8:	8b 4b 3c             	mov    0x3c(%ebx),%ecx
    79bb:	89 7d e0             	mov    %edi,-0x20(%ebp)
    79be:	89 4d dc             	mov    %ecx,-0x24(%ebp)
    79c1:	c1 e1 04             	shl    $0x4,%ecx
    79c4:	8b b1 8c 03 50 00    	mov    0x50038c(%ecx),%esi
    79ca:	85 f6                	test   %esi,%esi
    79cc:	0f 84 ce 00 00 00    	je     0x7aa0
    79d2:	8b b1 80 03 50 00    	mov    0x500380(%ecx),%esi
    79d8:	85 f6                	test   %esi,%esi
    79da:	89 75 d4             	mov    %esi,-0x2c(%ebp)
    79dd:	0f 84 bd 02 00 00    	je     0x7ca0
    79e3:	8b 89 84 03 50 00    	mov    0x500384(%ecx),%ecx
    79e9:	89 4d d0             	mov    %ecx,-0x30(%ebp)
    79ec:	8b 7d d0             	mov    -0x30(%ebp),%edi
    79ef:	83 c1 04             	add    $0x4,%ecx
    79f2:	89 4d e4             	mov    %ecx,-0x1c(%ebp)
    79f5:	8d 4b 20             	lea    0x20(%ebx),%ecx
    79f8:	89 4d d8             	mov    %ecx,-0x28(%ebp)
    79fb:	8b 77 04             	mov    0x4(%edi),%esi
    79fe:	8b 4b 20             	mov    0x20(%ebx),%ecx
    7a01:	39 f1                	cmp    %esi,%ecx
    7a03:	0f 8c e9 03 00 00    	jl     0x7df2
    7a09:	8b 4f 28             	mov    0x28(%edi),%ecx
    7a0c:	85 c9                	test   %ecx,%ecx
    7a0e:	0f 84 de 03 00 00    	je     0x7df2
    7a14:	89 45 c4             	mov    %eax,-0x3c(%ebp)
    7a17:	89 f6                	mov    %esi,%esi
    7a19:	8d bc 27 00 00 00 00 	lea    0x0(%edi,%eiz,1),%edi
    7a20:	8b 45 d8             	mov    -0x28(%ebp),%eax
    7a23:	8d 71 04             	lea    0x4(%ecx),%esi
    7a26:	8b 79 04             	mov    0x4(%ecx),%edi
    7a29:	89 75 e4             	mov    %esi,-0x1c(%ebp)
    7a2c:	8b 30                	mov    (%eax),%esi
    7a2e:	39 f7                	cmp    %esi,%edi
    7a30:	0f 8e 2a 02 00 00    	jle    0x7c60
    7a36:	8b 45 c4             	mov    -0x3c(%ebp),%eax
    7a39:	8b 7d e4             	mov    -0x1c(%ebp),%edi
    7a3c:	8b 37                	mov    (%edi),%esi
    7a3e:	8b 7b 20             	mov    0x20(%ebx),%edi
    7a41:	39 fe                	cmp    %edi,%esi
    7a43:	0f 8f 87 02 00 00    	jg     0x7cd0
    7a49:	8b 4d dc             	mov    -0x24(%ebp),%ecx
    7a4c:	8b 7d e0             	mov    -0x20(%ebp),%edi
    7a4f:	c1 e1 04             	shl    $0x4,%ecx
    7a52:	8b b1 88 03 50 00    	mov    0x500388(%ecx),%esi
    7a58:	83 81 80 03 50 00 01 	addl   $0x1,0x500380(%ecx)
    7a5f:	89 7e 28             	mov    %edi,0x28(%esi)
    7a62:	89 73 40             	mov    %esi,0x40(%ebx)
    7a65:	c7 43 44 00 00 00 00 	movl   $0x0,0x44(%ebx)
    7a6c:	89 b9 88 03 50 00    	mov    %edi,0x500388(%ecx)
    7a72:	eb 35                	jmp    0x7aa9
    7a74:	8d b6 00 00 00 00    	lea    0x0(%esi),%esi
    7a7a:	8d bf 00 00 00 00    	lea    0x0(%edi),%edi
    7a80:	a1 18 04 50 00       	mov    0x500418,%eax
    7a85:	8b 50 20             	mov    0x20(%eax),%edx
    7a88:	c1 ea 18             	shr    $0x18,%edx
    7a8b:	83 c2 01             	add    $0x1,%edx
    7a8e:	e9 3a fe ff ff       	jmp    0x78cd
    7a93:	8d b6 00 00 00 00    	lea    0x0(%esi),%esi
    7a99:	8d bc 27 00 00 00 00 	lea    0x0(%edi,%eiz,1),%edi
    7aa0:	8b 5d e0             	mov    -0x20(%ebp),%ebx
    7aa3:	89 99 8c 03 50 00    	mov    %ebx,0x50038c(%ecx)
    7aa9:	c7 40 18 00 00 00 00 	movl   $0x0,0x18(%eax)
    7ab0:	8b 4a 20             	mov    0x20(%edx),%ecx
    7ab3:	c1 e9 18             	shr    $0x18,%ecx
    7ab6:	c1 e1 04             	shl    $0x4,%ecx
    7ab9:	8b 89 8c 03 50 00    	mov    0x50038c(%ecx),%ecx
    7abf:	8b 52 20             	mov    0x20(%edx),%edx
    7ac2:	c1 ea 18             	shr    $0x18,%edx
    7ac5:	89 d1                	mov    %edx,%ecx
    7ac7:	c1 e1 04             	shl    $0x4,%ecx
    7aca:	8b b1 80 03 50 00    	mov    0x500380(%ecx),%esi
    7ad0:	85 f6                	test   %esi,%esi
    7ad2:	75 2c                	jne    0x7b00
    7ad4:	c1 e2 04             	shl    $0x4,%edx
    7ad7:	8b 92 8c 03 50 00    	mov    0x50038c(%edx),%edx
    7add:	c7 44 24 08 01 00 00 	movl   $0x1,0x8(%esp)
    7ae4:	00 
    7ae5:	8b 12                	mov    (%edx),%edx
    7ae7:	89 04 24             	mov    %eax,(%esp)
    7aea:	89 54 24 04          	mov    %edx,0x4(%esp)
    7aee:	e8 ad e5 ff ff       	call   0x60a0
    7af3:	83 c4 4c             	add    $0x4c,%esp
    7af6:	5b                   	pop    %ebx
    7af7:	5e                   	pop    %esi
    7af8:	5f                   	pop    %edi
    7af9:	5d                   	pop    %ebp
    7afa:	c3                   	ret    
    7afb:	90                   	nop
    7afc:	8d 74 26 00          	lea    0x0(%esi,%eiz,1),%esi
    7b00:	8b b9 8c 03 50 00    	mov    0x50038c(%ecx),%edi
    7b06:	8b 89 84 03 50 00    	mov    0x500384(%ecx),%ecx
    7b0c:	89 4d dc             	mov    %ecx,-0x24(%ebp)
    7b0f:	8b 5d dc             	mov    -0x24(%ebp),%ebx
    7b12:	83 c1 04             	add    $0x4,%ecx
    7b15:	89 4d e4             	mov    %ecx,-0x1c(%ebp)
    7b18:	8b 4b 04             	mov    0x4(%ebx),%ecx
    7b1b:	8d 5f 04             	lea    0x4(%edi),%ebx
    7b1e:	89 5d e0             	mov    %ebx,-0x20(%ebp)
    7b21:	8b 5f 04             	mov    0x4(%edi),%ebx
    7b24:	39 d9                	cmp    %ebx,%ecx
    7b26:	0f 8f be 02 00 00    	jg     0x7dea
    7b2c:	8b 5d dc             	mov    -0x24(%ebp),%ebx
    7b2f:	8b 4b 28             	mov    0x28(%ebx),%ecx
    7b32:	85 c9                	test   %ecx,%ecx
    7b34:	0f 84 b0 02 00 00    	je     0x7dea
    7b3a:	89 7d d8             	mov    %edi,-0x28(%ebp)
    7b3d:	89 45 d4             	mov    %eax,-0x2c(%ebp)
    7b40:	8b 45 e0             	mov    -0x20(%ebp),%eax
    7b43:	8d 79 04             	lea    0x4(%ecx),%edi
    7b46:	89 7d e4             	mov    %edi,-0x1c(%ebp)
    7b49:	8b 79 04             	mov    0x4(%ecx),%edi
    7b4c:	8b 18                	mov    (%eax),%ebx
    7b4e:	39 df                	cmp    %ebx,%edi
    7b50:	0f 8e 2a 01 00 00    	jle    0x7c80
    7b56:	8b 7d d8             	mov    -0x28(%ebp),%edi
    7b59:	8b 45 d4             	mov    -0x2c(%ebp),%eax
    7b5c:	8b 5d e4             	mov    -0x1c(%ebp),%ebx
    7b5f:	8b 1b                	mov    (%ebx),%ebx
    7b61:	89 5d e0             	mov    %ebx,-0x20(%ebp)
    7b64:	8b 5f 04             	mov    0x4(%edi),%ebx
    7b67:	39 5d e0             	cmp    %ebx,-0x20(%ebp)
    7b6a:	0f 8f d0 01 00 00    	jg     0x7d40
    7b70:	89 d1                	mov    %edx,%ecx
    7b72:	c1 e1 04             	shl    $0x4,%ecx
    7b75:	8b b1 80 03 50 00    	mov    0x500380(%ecx),%esi
    7b7b:	8b 99 88 03 50 00    	mov    0x500388(%ecx),%ebx
    7b81:	83 c6 01             	add    $0x1,%esi
    7b84:	89 7b 28             	mov    %edi,0x28(%ebx)
    7b87:	89 5f 24             	mov    %ebx,0x24(%edi)
    7b8a:	c7 47 28 00 00 00 00 	movl   $0x0,0x28(%edi)
    7b91:	89 b1 80 03 50 00    	mov    %esi,0x500380(%ecx)
    7b97:	89 b9 88 03 50 00    	mov    %edi,0x500388(%ecx)
    7b9d:	31 c9                	xor    %ecx,%ecx
    7b9f:	85 f6                	test   %esi,%esi
    7ba1:	74 2b                	je     0x7bce
    7ba3:	83 fe 01             	cmp    $0x1,%esi
    7ba6:	0f 84 ea 01 00 00    	je     0x7d96
    7bac:	89 d3                	mov    %edx,%ebx
    7bae:	c1 e3 04             	shl    $0x4,%ebx
    7bb1:	8b 8b 84 03 50 00    	mov    0x500384(%ebx),%ecx
    7bb7:	83 ab 80 03 50 00 01 	subl   $0x1,0x500380(%ebx)
    7bbe:	8b 71 28             	mov    0x28(%ecx),%esi
    7bc1:	89 b3 84 03 50 00    	mov    %esi,0x500384(%ebx)
    7bc7:	c7 46 24 00 00 00 00 	movl   $0x0,0x24(%esi)
    7bce:	89 d3                	mov    %edx,%ebx
    7bd0:	c1 e3 04             	shl    $0x4,%ebx
    7bd3:	89 8b 8c 03 50 00    	mov    %ecx,0x50038c(%ebx)
    7bd9:	e9 f6 fe ff ff       	jmp    0x7ad4
    7bde:	66 90                	xchg   %ax,%ax
    7be0:	8b b1 80 03 50 00    	mov    0x500380(%ecx),%esi
    7be6:	89 75 e4             	mov    %esi,-0x1c(%ebp)
    7be9:	8b 7d e4             	mov    -0x1c(%ebp),%edi
    7bec:	31 f6                	xor    %esi,%esi
    7bee:	85 ff                	test   %edi,%edi
    7bf0:	74 2c                	je     0x7c1e
    7bf2:	83 7d e4 01          	cmpl   $0x1,-0x1c(%ebp)
    7bf6:	0f 84 c5 01 00 00    	je     0x7dc1
    7bfc:	8b b1 84 03 50 00    	mov    0x500384(%ecx),%esi
    7c02:	8b 7e 28             	mov    0x28(%esi),%edi
    7c05:	89 b9 84 03 50 00    	mov    %edi,0x500384(%ecx)
    7c0b:	c7 47 24 00 00 00 00 	movl   $0x0,0x24(%edi)
    7c12:	8b 7d e4             	mov    -0x1c(%ebp),%edi
    7c15:	83 ef 01             	sub    $0x1,%edi
    7c18:	89 b9 80 03 50 00    	mov    %edi,0x500380(%ecx)
    7c1e:	c1 e3 04             	shl    $0x4,%ebx
    7c21:	89 b3 8c 03 50 00    	mov    %esi,0x50038c(%ebx)
    7c27:	e9 44 fd ff ff       	jmp    0x7970
    7c2c:	8d 74 26 00          	lea    0x0(%esi,%eiz,1),%esi
    7c30:	85 db                	test   %ebx,%ebx
    7c32:	0f 84 38 fd ff ff    	je     0x7970
    7c38:	8b b1 84 03 50 00    	mov    0x500384(%ecx),%esi
    7c3e:	83 eb 01             	sub    $0x1,%ebx
    7c41:	89 99 80 03 50 00    	mov    %ebx,0x500380(%ecx)
    7c47:	8b 76 28             	mov    0x28(%esi),%esi
    7c4a:	89 b1 84 03 50 00    	mov    %esi,0x500384(%ecx)
    7c50:	c7 46 24 00 00 00 00 	movl   $0x0,0x24(%esi)
    7c57:	e9 14 fd ff ff       	jmp    0x7970
    7c5c:	8d 74 26 00          	lea    0x0(%esi,%eiz,1),%esi
    7c60:	8b 71 28             	mov    0x28(%ecx),%esi
    7c63:	85 f6                	test   %esi,%esi
    7c65:	0f 84 cb fd ff ff    	je     0x7a36
    7c6b:	89 f1                	mov    %esi,%ecx
    7c6d:	e9 ae fd ff ff       	jmp    0x7a20
    7c72:	8d b4 26 00 00 00 00 	lea    0x0(%esi,%eiz,1),%esi
    7c79:	8d bc 27 00 00 00 00 	lea    0x0(%edi,%eiz,1),%edi
    7c80:	8b 59 28             	mov    0x28(%ecx),%ebx
    7c83:	85 db                	test   %ebx,%ebx
    7c85:	0f 84 cb fe ff ff    	je     0x7b56
    7c8b:	89 d9                	mov    %ebx,%ecx
    7c8d:	e9 ae fe ff ff       	jmp    0x7b40
    7c92:	8d b4 26 00 00 00 00 	lea    0x0(%esi,%eiz,1),%esi
    7c99:	8d bc 27 00 00 00 00 	lea    0x0(%edi,%eiz,1),%edi
    7ca0:	c7 43 40 00 00 00 00 	movl   $0x0,0x40(%ebx)
    7ca7:	c7 43 44 00 00 00 00 	movl   $0x0,0x44(%ebx)
    7cae:	c7 81 80 03 50 00 01 	movl   $0x1,0x500380(%ecx)
    7cb5:	00 00 00 
    7cb8:	89 b9 84 03 50 00    	mov    %edi,0x500384(%ecx)
    7cbe:	89 b9 88 03 50 00    	mov    %edi,0x500388(%ecx)
    7cc4:	e9 e0 fd ff ff       	jmp    0x7aa9
    7cc9:	8d b4 26 00 00 00 00 	lea    0x0(%esi,%eiz,1),%esi
    7cd0:	8b 71 24             	mov    0x24(%ecx),%esi
    7cd3:	85 f6                	test   %esi,%esi
    7cd5:	0f 84 25 01 00 00    	je     0x7e00
    7cdb:	8b 7d e0             	mov    -0x20(%ebp),%edi
    7cde:	89 79 24             	mov    %edi,0x24(%ecx)
    7ce1:	89 7e 28             	mov    %edi,0x28(%esi)
    7ce4:	89 73 40             	mov    %esi,0x40(%ebx)
    7ce7:	89 4b 44             	mov    %ecx,0x44(%ebx)
    7cea:	8b 4d dc             	mov    -0x24(%ebp),%ecx
    7ced:	8b 5d d4             	mov    -0x2c(%ebp),%ebx
    7cf0:	c1 e1 04             	shl    $0x4,%ecx
    7cf3:	83 c3 01             	add    $0x1,%ebx
    7cf6:	89 99 80 03 50 00    	mov    %ebx,0x500380(%ecx)
    7cfc:	e9 a8 fd ff ff       	jmp    0x7aa9
    7d01:	eb 0d                	jmp    0x7d10
    7d03:	90                   	nop
    7d04:	90                   	nop
    7d05:	90                   	nop
    7d06:	90                   	nop
    7d07:	90                   	nop
    7d08:	90                   	nop
    7d09:	90                   	nop
    7d0a:	90                   	nop
    7d0b:	90                   	nop
    7d0c:	90                   	nop
    7d0d:	90                   	nop
    7d0e:	90                   	nop
    7d0f:	90                   	nop
    7d10:	c7 81 84 03 50 00 00 	movl   $0x0,0x500384(%ecx)
    7d17:	00 00 00 
    7d1a:	c7 81 88 03 50 00 00 	movl   $0x0,0x500388(%ecx)
    7d21:	00 00 00 
    7d24:	c7 81 80 03 50 00 00 	movl   $0x0,0x500380(%ecx)
    7d2b:	00 00 00 
    7d2e:	e9 3d fc ff ff       	jmp    0x7970
    7d33:	8d b6 00 00 00 00    	lea    0x0(%esi),%esi
    7d39:	8d bc 27 00 00 00 00 	lea    0x0(%edi,%eiz,1),%edi
    7d40:	8b 59 24             	mov    0x24(%ecx),%ebx
    7d43:	85 db                	test   %ebx,%ebx
    7d45:	0f 84 e0 00 00 00    	je     0x7e2b
    7d4b:	89 79 24             	mov    %edi,0x24(%ecx)
    7d4e:	83 c6 01             	add    $0x1,%esi
    7d51:	89 7b 28             	mov    %edi,0x28(%ebx)
    7d54:	89 4f 28             	mov    %ecx,0x28(%edi)
    7d57:	89 d1                	mov    %edx,%ecx
    7d59:	c1 e1 04             	shl    $0x4,%ecx
    7d5c:	89 5f 24             	mov    %ebx,0x24(%edi)
    7d5f:	89 b1 80 03 50 00    	mov    %esi,0x500380(%ecx)
    7d65:	e9 33 fe ff ff       	jmp    0x7b9d
    7d6a:	85 db                	test   %ebx,%ebx
    7d6c:	0f 84 fe fb ff ff    	je     0x7970
    7d72:	8b b1 88 03 50 00    	mov    0x500388(%ecx),%esi
    7d78:	83 eb 01             	sub    $0x1,%ebx
    7d7b:	89 99 80 03 50 00    	mov    %ebx,0x500380(%ecx)
    7d81:	8b 76 24             	mov    0x24(%esi),%esi
    7d84:	89 b1 88 03 50 00    	mov    %esi,0x500388(%ecx)
    7d8a:	c7 46 28 00 00 00 00 	movl   $0x0,0x28(%esi)
    7d91:	e9 da fb ff ff       	jmp    0x7970
    7d96:	89 d3                	mov    %edx,%ebx
    7d98:	c1 e3 04             	shl    $0x4,%ebx
    7d9b:	8b 8b 84 03 50 00    	mov    0x500384(%ebx),%ecx
    7da1:	c7 83 88 03 50 00 00 	movl   $0x0,0x500388(%ebx)
    7da8:	00 00 00 
    7dab:	c7 83 84 03 50 00 00 	movl   $0x0,0x500384(%ebx)
    7db2:	00 00 00 
    7db5:	83 ab 80 03 50 00 01 	subl   $0x1,0x500380(%ebx)
    7dbc:	e9 0d fe ff ff       	jmp    0x7bce
    7dc1:	8b b1 84 03 50 00    	mov    0x500384(%ecx),%esi
    7dc7:	c7 81 88 03 50 00 00 	movl   $0x0,0x500388(%ecx)
    7dce:	00 00 00 
    7dd1:	c7 81 84 03 50 00 00 	movl   $0x0,0x500384(%ecx)
    7dd8:	00 00 00 
    7ddb:	c7 81 80 03 50 00 00 	movl   $0x0,0x500380(%ecx)
    7de2:	00 00 00 
    7de5:	e9 34 fe ff ff       	jmp    0x7c1e
    7dea:	8b 4d dc             	mov    -0x24(%ebp),%ecx
    7ded:	e9 6a fd ff ff       	jmp    0x7b5c
    7df2:	8b 4d d0             	mov    -0x30(%ebp),%ecx
    7df5:	e9 3f fc ff ff       	jmp    0x7a39
    7dfa:	8d b6 00 00 00 00    	lea    0x0(%esi),%esi
    7e00:	8b 4d d0             	mov    -0x30(%ebp),%ecx
    7e03:	c7 43 40 00 00 00 00 	movl   $0x0,0x40(%ebx)
    7e0a:	89 4b 44             	mov    %ecx,0x44(%ebx)
    7e0d:	8b 5d e0             	mov    -0x20(%ebp),%ebx
    7e10:	89 59 24             	mov    %ebx,0x24(%ecx)
    7e13:	8b 4d dc             	mov    -0x24(%ebp),%ecx
    7e16:	c1 e1 04             	shl    $0x4,%ecx
    7e19:	89 99 84 03 50 00    	mov    %ebx,0x500384(%ecx)
    7e1f:	83 81 80 03 50 00 01 	addl   $0x1,0x500380(%ecx)
    7e26:	e9 7e fc ff ff       	jmp    0x7aa9
    7e2b:	8b 75 dc             	mov    -0x24(%ebp),%esi
    7e2e:	89 d1                	mov    %edx,%ecx
    7e30:	c1 e1 04             	shl    $0x4,%ecx
    7e33:	c7 47 24 00 00 00 00 	movl   $0x0,0x24(%edi)
    7e3a:	89 77 28             	mov    %esi,0x28(%edi)
    7e3d:	89 7e 24             	mov    %edi,0x24(%esi)
    7e40:	8b b1 80 03 50 00    	mov    0x500380(%ecx),%esi
    7e46:	89 b9 84 03 50 00    	mov    %edi,0x500384(%ecx)
    7e4c:	83 c6 01             	add    $0x1,%esi
    7e4f:	89 b1 80 03 50 00    	mov    %esi,0x500380(%ecx)
    7e55:	e9 43 fd ff ff       	jmp    0x7b9d
    7e5a:	90                   	nop
    7e5b:	90                   	nop
    7e5c:	90                   	nop
    7e5d:	90                   	nop
    7e5e:	90                   	nop
    7e5f:	90                   	nop
    7e60:	55                   	push   %ebp
    7e61:	89 e5                	mov    %esp,%ebp
    7e63:	57                   	push   %edi
    7e64:	56                   	push   %esi
    7e65:	53                   	push   %ebx
    7e66:	83 ec 3c             	sub    $0x3c,%esp
    7e69:	8b 15 18 04 50 00    	mov    0x500418,%edx
    7e6f:	8b 42 20             	mov    0x20(%edx),%eax
    7e72:	c1 e8 18             	shr    $0x18,%eax
    7e75:	c1 e0 04             	shl    $0x4,%eax
    7e78:	8b 80 8c 03 50 00    	mov    0x50038c(%eax),%eax
    7e7e:	8b 38                	mov    (%eax),%edi
    7e80:	8b 42 20             	mov    0x20(%edx),%eax
    7e83:	c1 e8 18             	shr    $0x18,%eax
    7e86:	c1 e0 04             	shl    $0x4,%eax
    7e89:	8b 80 8c 03 50 00    	mov    0x50038c(%eax),%eax
    7e8f:	8b 42 20             	mov    0x20(%edx),%eax
    7e92:	c1 e8 18             	shr    $0x18,%eax
    7e95:	89 c2                	mov    %eax,%edx
    7e97:	c1 e2 04             	shl    $0x4,%edx
    7e9a:	8b 9a 80 03 50 00    	mov    0x500380(%edx),%ebx
    7ea0:	85 db                	test   %ebx,%ebx
    7ea2:	75 2c                	jne    0x7ed0
    7ea4:	c1 e0 04             	shl    $0x4,%eax
    7ea7:	8b 80 8c 03 50 00    	mov    0x50038c(%eax),%eax
    7ead:	c7 44 24 08 01 00 00 	movl   $0x1,0x8(%esp)
    7eb4:	00 
    7eb5:	8b 00                	mov    (%eax),%eax
    7eb7:	89 3c 24             	mov    %edi,(%esp)
    7eba:	89 44 24 04          	mov    %eax,0x4(%esp)
    7ebe:	e8 dd e1 ff ff       	call   0x60a0
    7ec3:	83 c4 3c             	add    $0x3c,%esp
    7ec6:	5b                   	pop    %ebx
    7ec7:	5e                   	pop    %esi
    7ec8:	5f                   	pop    %edi
    7ec9:	5d                   	pop    %ebp
    7eca:	c3                   	ret    
    7ecb:	90                   	nop
    7ecc:	8d 74 26 00          	lea    0x0(%esi,%eiz,1),%esi
    7ed0:	8b b2 8c 03 50 00    	mov    0x50038c(%edx),%esi
    7ed6:	8b 92 84 03 50 00    	mov    0x500384(%edx),%edx
    7edc:	89 55 dc             	mov    %edx,-0x24(%ebp)
    7edf:	83 c2 04             	add    $0x4,%edx
    7ee2:	89 55 e4             	mov    %edx,-0x1c(%ebp)
    7ee5:	8b 55 dc             	mov    -0x24(%ebp),%edx
    7ee8:	8b 4a 04             	mov    0x4(%edx),%ecx
    7eeb:	8d 56 04             	lea    0x4(%esi),%edx
    7eee:	89 55 e0             	mov    %edx,-0x20(%ebp)
    7ef1:	8b 56 04             	mov    0x4(%esi),%edx
    7ef4:	39 ca                	cmp    %ecx,%edx
    7ef6:	0f 8c 2f 01 00 00    	jl     0x802b
    7efc:	8b 4d dc             	mov    -0x24(%ebp),%ecx
    7eff:	8b 51 28             	mov    0x28(%ecx),%edx
    7f02:	85 d2                	test   %edx,%edx
    7f04:	0f 84 21 01 00 00    	je     0x802b
    7f0a:	89 75 d8             	mov    %esi,-0x28(%ebp)
    7f0d:	89 45 d4             	mov    %eax,-0x2c(%ebp)
    7f10:	8d 42 04             	lea    0x4(%edx),%eax
    7f13:	8b 72 04             	mov    0x4(%edx),%esi
    7f16:	89 45 e4             	mov    %eax,-0x1c(%ebp)
    7f19:	8b 45 e0             	mov    -0x20(%ebp),%eax
    7f1c:	8b 08                	mov    (%eax),%ecx
    7f1e:	39 ce                	cmp    %ecx,%esi
    7f20:	0f 8e 8a 00 00 00    	jle    0x7fb0
    7f26:	8b 75 d8             	mov    -0x28(%ebp),%esi
    7f29:	8b 45 d4             	mov    -0x2c(%ebp),%eax
    7f2c:	8b 4d e4             	mov    -0x1c(%ebp),%ecx
    7f2f:	8b 09                	mov    (%ecx),%ecx
    7f31:	89 4d e0             	mov    %ecx,-0x20(%ebp)
    7f34:	8b 4e 04             	mov    0x4(%esi),%ecx
    7f37:	39 4d e0             	cmp    %ecx,-0x20(%ebp)
    7f3a:	0f 8f 90 00 00 00    	jg     0x7fd0
    7f40:	89 c2                	mov    %eax,%edx
    7f42:	c1 e2 04             	shl    $0x4,%edx
    7f45:	8b 9a 80 03 50 00    	mov    0x500380(%edx),%ebx
    7f4b:	8b 8a 88 03 50 00    	mov    0x500388(%edx),%ecx
    7f51:	83 c3 01             	add    $0x1,%ebx
    7f54:	89 71 28             	mov    %esi,0x28(%ecx)
    7f57:	89 4e 24             	mov    %ecx,0x24(%esi)
    7f5a:	c7 46 28 00 00 00 00 	movl   $0x0,0x28(%esi)
    7f61:	89 9a 80 03 50 00    	mov    %ebx,0x500380(%edx)
    7f67:	89 b2 88 03 50 00    	mov    %esi,0x500388(%edx)
    7f6d:	31 d2                	xor    %edx,%edx
    7f6f:	85 db                	test   %ebx,%ebx
    7f71:	74 2b                	je     0x7f9e
    7f73:	83 fb 01             	cmp    $0x1,%ebx
    7f76:	0f 84 84 00 00 00    	je     0x8000
    7f7c:	89 c1                	mov    %eax,%ecx
    7f7e:	c1 e1 04             	shl    $0x4,%ecx
    7f81:	8b 91 84 03 50 00    	mov    0x500384(%ecx),%edx
    7f87:	83 a9 80 03 50 00 01 	subl   $0x1,0x500380(%ecx)
    7f8e:	8b 5a 28             	mov    0x28(%edx),%ebx
    7f91:	89 99 84 03 50 00    	mov    %ebx,0x500384(%ecx)
    7f97:	c7 43 24 00 00 00 00 	movl   $0x0,0x24(%ebx)
    7f9e:	89 c1                	mov    %eax,%ecx
    7fa0:	c1 e1 04             	shl    $0x4,%ecx
    7fa3:	89 91 8c 03 50 00    	mov    %edx,0x50038c(%ecx)
    7fa9:	e9 f6 fe ff ff       	jmp    0x7ea4
    7fae:	66 90                	xchg   %ax,%ax
    7fb0:	8b 4a 28             	mov    0x28(%edx),%ecx
    7fb3:	85 c9                	test   %ecx,%ecx
    7fb5:	0f 84 6b ff ff ff    	je     0x7f26
    7fbb:	89 ca                	mov    %ecx,%edx
    7fbd:	e9 4e ff ff ff       	jmp    0x7f10
    7fc2:	8d b4 26 00 00 00 00 	lea    0x0(%esi,%eiz,1),%esi
    7fc9:	8d bc 27 00 00 00 00 	lea    0x0(%edi,%eiz,1),%edi
    7fd0:	8b 4a 24             	mov    0x24(%edx),%ecx
    7fd3:	85 c9                	test   %ecx,%ecx
    7fd5:	74 69                	je     0x8040
    7fd7:	89 72 24             	mov    %esi,0x24(%edx)
    7fda:	83 c3 01             	add    $0x1,%ebx
    7fdd:	89 71 28             	mov    %esi,0x28(%ecx)
    7fe0:	89 56 28             	mov    %edx,0x28(%esi)
    7fe3:	89 c2                	mov    %eax,%edx
    7fe5:	c1 e2 04             	shl    $0x4,%edx
    7fe8:	89 4e 24             	mov    %ecx,0x24(%esi)
    7feb:	89 9a 80 03 50 00    	mov    %ebx,0x500380(%edx)
    7ff1:	e9 77 ff ff ff       	jmp    0x7f6d
    7ff6:	8d 76 00             	lea    0x0(%esi),%esi
    7ff9:	8d bc 27 00 00 00 00 	lea    0x0(%edi,%eiz,1),%edi
    8000:	89 c1                	mov    %eax,%ecx
    8002:	c1 e1 04             	shl    $0x4,%ecx
    8005:	8b 91 84 03 50 00    	mov    0x500384(%ecx),%edx
    800b:	c7 81 88 03 50 00 00 	movl   $0x0,0x500388(%ecx)
    8012:	00 00 00 
    8015:	c7 81 84 03 50 00 00 	movl   $0x0,0x500384(%ecx)
    801c:	00 00 00 
    801f:	83 a9 80 03 50 00 01 	subl   $0x1,0x500380(%ecx)
    8026:	e9 73 ff ff ff       	jmp    0x7f9e
    802b:	8b 55 dc             	mov    -0x24(%ebp),%edx
    802e:	e9 f9 fe ff ff       	jmp    0x7f2c
    8033:	8d b6 00 00 00 00    	lea    0x0(%esi),%esi
    8039:	8d bc 27 00 00 00 00 	lea    0x0(%edi,%eiz,1),%edi
    8040:	8b 55 dc             	mov    -0x24(%ebp),%edx
    8043:	c7 46 24 00 00 00 00 	movl   $0x0,0x24(%esi)
    804a:	89 56 28             	mov    %edx,0x28(%esi)
    804d:	89 72 24             	mov    %esi,0x24(%edx)
    8050:	89 c2                	mov    %eax,%edx
    8052:	c1 e2 04             	shl    $0x4,%edx
    8055:	8b 9a 80 03 50 00    	mov    0x500380(%edx),%ebx
    805b:	89 b2 84 03 50 00    	mov    %esi,0x500384(%edx)
    8061:	83 c3 01             	add    $0x1,%ebx
    8064:	89 9a 80 03 50 00    	mov    %ebx,0x500380(%edx)
    806a:	e9 fe fe ff ff       	jmp    0x7f6d
    806f:	90                   	nop
    8070:	55                   	push   %ebp
    8071:	89 e5                	mov    %esp,%ebp
    8073:	53                   	push   %ebx
    8074:	83 ec 04             	sub    $0x4,%esp
    8077:	fa                   	cli    
    8078:	80 3d 84 02 50 00 00 	cmpb   $0x0,0x500284
    807f:	74 4f                	je     0x80d0
    8081:	a1 18 04 50 00       	mov    0x500418,%eax
    8086:	8b 40 20             	mov    0x20(%eax),%eax
    8089:	c1 e8 18             	shr    $0x18,%eax
    808c:	c1 e0 04             	shl    $0x4,%eax
    808f:	8b 80 8c 03 50 00    	mov    0x50038c(%eax),%eax
    8095:	8b 10                	mov    (%eax),%edx
    8097:	31 c9                	xor    %ecx,%ecx
    8099:	8d b4 26 00 00 00 00 	lea    0x0(%esi,%eiz,1),%esi
    80a0:	89 c8                	mov    %ecx,%eax
    80a2:	f0 0f b1 15 04 04 50 	lock cmpxchg %edx,0x500404
    80a9:	00 
    80aa:	39 c2                	cmp    %eax,%edx
    80ac:	75 f2                	jne    0x80a0
    80ae:	a1 00 04 50 00       	mov    0x500400,%eax
    80b3:	83 c0 01             	add    $0x1,%eax
    80b6:	a3 00 04 50 00       	mov    %eax,0x500400
    80bb:	83 c4 04             	add    $0x4,%esp
    80be:	5b                   	pop    %ebx
    80bf:	5d                   	pop    %ebp
    80c0:	e9 9b fd ff ff       	jmp    0x7e60
    80c5:	8d 74 26 00          	lea    0x0(%esi,%eiz,1),%esi
    80c9:	8d bc 27 00 00 00 00 	lea    0x0(%edi,%eiz,1),%edi
    80d0:	a1 18 04 50 00       	mov    0x500418,%eax
    80d5:	8b 50 20             	mov    0x20(%eax),%edx
    80d8:	c1 ea 18             	shr    $0x18,%edx
    80db:	83 c2 01             	add    $0x1,%edx
    80de:	eb b7                	jmp    0x8097
    80e0:	55                   	push   %ebp
    80e1:	89 e5                	mov    %esp,%ebp
    80e3:	53                   	push   %ebx
    80e4:	83 ec 04             	sub    $0x4,%esp
    80e7:	fa                   	cli    
    80e8:	80 3d 84 02 50 00 00 	cmpb   $0x0,0x500284
    80ef:	74 4f                	je     0x8140
    80f1:	a1 18 04 50 00       	mov    0x500418,%eax
    80f6:	8b 40 20             	mov    0x20(%eax),%eax
    80f9:	c1 e8 18             	shr    $0x18,%eax
    80fc:	c1 e0 04             	shl    $0x4,%eax
    80ff:	8b 80 8c 03 50 00    	mov    0x50038c(%eax),%eax
    8105:	8b 10                	mov    (%eax),%edx
    8107:	31 c9                	xor    %ecx,%ecx
    8109:	8d b4 26 00 00 00 00 	lea    0x0(%esi,%eiz,1),%esi
    8110:	89 c8                	mov    %ecx,%eax
    8112:	f0 0f b1 15 04 04 50 	lock cmpxchg %edx,0x500404
    8119:	00 
    811a:	39 c2                	cmp    %eax,%edx
    811c:	75 f2                	jne    0x8110
    811e:	a1 00 04 50 00       	mov    0x500400,%eax
    8123:	83 c0 01             	add    $0x1,%eax
    8126:	a3 00 04 50 00       	mov    %eax,0x500400
    812b:	83 c4 04             	add    $0x4,%esp
    812e:	5b                   	pop    %ebx
    812f:	5d                   	pop    %ebp
    8130:	e9 2b fd ff ff       	jmp    0x7e60
    8135:	8d 74 26 00          	lea    0x0(%esi,%eiz,1),%esi
    8139:	8d bc 27 00 00 00 00 	lea    0x0(%edi,%eiz,1),%edi
    8140:	a1 18 04 50 00       	mov    0x500418,%eax
    8145:	8b 50 20             	mov    0x20(%eax),%edx
    8148:	c1 ea 18             	shr    $0x18,%edx
    814b:	83 c2 01             	add    $0x1,%edx
    814e:	eb b7                	jmp    0x8107
    8150:	55                   	push   %ebp
    8151:	89 e5                	mov    %esp,%ebp
    8153:	83 ec 18             	sub    $0x18,%esp
    8156:	a1 18 04 50 00       	mov    0x500418,%eax
    815b:	8b 55 08             	mov    0x8(%ebp),%edx
    815e:	8b 40 20             	mov    0x20(%eax),%eax
    8161:	c1 e8 18             	shr    $0x18,%eax
    8164:	39 c2                	cmp    %eax,%edx
    8166:	74 48                	je     0x81b0
    8168:	c7 44 24 04 31 00 00 	movl   $0x31,0x4(%esp)
    816f:	00 
    8170:	89 14 24             	mov    %edx,(%esp)
    8173:	e8 48 0f 00 00       	call   0x90c0
    8178:	a1 00 04 50 00       	mov    0x500400,%eax
    817d:	83 e8 01             	sub    $0x1,%eax
    8180:	a3 00 04 50 00       	mov    %eax,0x500400
    8185:	a1 00 04 50 00       	mov    0x500400,%eax
    818a:	85 c0                	test   %eax,%eax
    818c:	7e 12                	jle    0x81a0
    818e:	fb                   	sti    
    818f:	c9                   	leave  
    8190:	c3                   	ret    
    8191:	eb 0d                	jmp    0x81a0
    8193:	90                   	nop
    8194:	90                   	nop
    8195:	90                   	nop
    8196:	90                   	nop
    8197:	90                   	nop
    8198:	90                   	nop
    8199:	90                   	nop
    819a:	90                   	nop
    819b:	90                   	nop
    819c:	90                   	nop
    819d:	90                   	nop
    819e:	90                   	nop
    819f:	90                   	nop
    81a0:	c7 05 04 04 50 00 00 	movl   $0x0,0x500404
    81a7:	00 00 00 
    81aa:	eb e2                	jmp    0x818e
    81ac:	8d 74 26 00          	lea    0x0(%esi,%eiz,1),%esi
    81b0:	c9                   	leave  
    81b1:	e9 aa fc ff ff       	jmp    0x7e60
    81b6:	90                   	nop
    81b7:	90                   	nop
    81b8:	90                   	nop
    81b9:	90                   	nop
    81ba:	90                   	nop
    81bb:	90                   	nop
    81bc:	90                   	nop
    81bd:	90                   	nop
    81be:	90                   	nop
    81bf:	90                   	nop
    81c0:	55                   	push   %ebp
    81c1:	89 e5                	mov    %esp,%ebp
    81c3:	57                   	push   %edi
    81c4:	56                   	push   %esi
    81c5:	53                   	push   %ebx
    81c6:	83 ec 4c             	sub    $0x4c,%esp
    81c9:	8b 15 18 04 50 00    	mov    0x500418,%edx
    81cf:	8b 75 08             	mov    0x8(%ebp),%esi
    81d2:	8b 42 20             	mov    0x20(%edx),%eax
    81d5:	c1 e8 18             	shr    $0x18,%eax
    81d8:	c1 e0 04             	shl    $0x4,%eax
    81db:	8b 80 8c 03 50 00    	mov    0x50038c(%eax),%eax
    81e1:	8b 06                	mov    (%esi),%eax
    81e3:	85 c0                	test   %eax,%eax
    81e5:	0f 84 b5 01 00 00    	je     0x83a0
    81eb:	31 db                	xor    %ebx,%ebx
    81ed:	83 f8 01             	cmp    $0x1,%eax
    81f0:	0f 84 4e 01 00 00    	je     0x8344
    81f6:	8d 76 00             	lea    0x0(%esi),%esi
    81f9:	8d bc 27 00 00 00 00 	lea    0x0(%edi,%eiz,1),%edi
    8200:	8b 46 04             	mov    0x4(%esi),%eax
    8203:	83 2e 01             	subl   $0x1,(%esi)
    8206:	8b 48 28             	mov    0x28(%eax),%ecx
    8209:	89 4e 04             	mov    %ecx,0x4(%esi)
    820c:	c7 41 24 00 00 00 00 	movl   $0x0,0x24(%ecx)
    8213:	8b 00                	mov    (%eax),%eax
    8215:	c7 40 10 01 00 00 00 	movl   $0x1,0x10(%eax)
    821c:	8b 52 20             	mov    0x20(%edx),%edx
    821f:	c7 40 14 00 00 00 00 	movl   $0x0,0x14(%eax)
    8226:	c1 ea 18             	shr    $0x18,%edx
    8229:	c1 e2 04             	shl    $0x4,%edx
    822c:	8b 92 8c 03 50 00    	mov    0x50038c(%edx),%edx
    8232:	8d 50 1c             	lea    0x1c(%eax),%edx
    8235:	8b 48 3c             	mov    0x3c(%eax),%ecx
    8238:	89 55 e0             	mov    %edx,-0x20(%ebp)
    823b:	89 ca                	mov    %ecx,%edx
    823d:	c1 e2 04             	shl    $0x4,%edx
    8240:	89 4d dc             	mov    %ecx,-0x24(%ebp)
    8243:	8b 8a 8c 03 50 00    	mov    0x50038c(%edx),%ecx
    8249:	85 c9                	test   %ecx,%ecx
    824b:	0f 84 7f 00 00 00    	je     0x82d0
    8251:	8b ba 80 03 50 00    	mov    0x500380(%edx),%edi
    8257:	85 ff                	test   %edi,%edi
    8259:	89 7d d4             	mov    %edi,-0x2c(%ebp)
    825c:	0f 84 0e 01 00 00    	je     0x8370
    8262:	8b 92 84 03 50 00    	mov    0x500384(%edx),%edx
    8268:	8d 48 20             	lea    0x20(%eax),%ecx
    826b:	89 4d d8             	mov    %ecx,-0x28(%ebp)
    826e:	89 55 d0             	mov    %edx,-0x30(%ebp)
    8271:	8b 7d d0             	mov    -0x30(%ebp),%edi
    8274:	83 c2 04             	add    $0x4,%edx
    8277:	89 55 e4             	mov    %edx,-0x1c(%ebp)
    827a:	8b 57 04             	mov    0x4(%edi),%edx
    827d:	8b 48 20             	mov    0x20(%eax),%ecx
    8280:	39 ca                	cmp    %ecx,%edx
    8282:	0f 8e 48 01 00 00    	jle    0x83d0
    8288:	8b 7d e4             	mov    -0x1c(%ebp),%edi
    828b:	8b 55 d0             	mov    -0x30(%ebp),%edx
    828e:	8b 0f                	mov    (%edi),%ecx
    8290:	8b 78 20             	mov    0x20(%eax),%edi
    8293:	39 f9                	cmp    %edi,%ecx
    8295:	0f 8f 6a 01 00 00    	jg     0x8405
    829b:	90                   	nop
    829c:	8d 74 26 00          	lea    0x0(%esi,%eiz,1),%esi
    82a0:	8b 55 dc             	mov    -0x24(%ebp),%edx
    82a3:	8b 7d e0             	mov    -0x20(%ebp),%edi
    82a6:	c1 e2 04             	shl    $0x4,%edx
    82a9:	8b 8a 88 03 50 00    	mov    0x500388(%edx),%ecx
    82af:	83 82 80 03 50 00 01 	addl   $0x1,0x500380(%edx)
    82b6:	89 79 28             	mov    %edi,0x28(%ecx)
    82b9:	89 48 40             	mov    %ecx,0x40(%eax)
    82bc:	c7 40 44 00 00 00 00 	movl   $0x0,0x44(%eax)
    82c3:	89 ba 88 03 50 00    	mov    %edi,0x500388(%edx)
    82c9:	eb 0e                	jmp    0x82d9
    82cb:	90                   	nop
    82cc:	8d 74 26 00          	lea    0x0(%esi,%eiz,1),%esi
    82d0:	8b 4d e0             	mov    -0x20(%ebp),%ecx
    82d3:	89 8a 8c 03 50 00    	mov    %ecx,0x50038c(%edx)
    82d9:	8b 40 3c             	mov    0x3c(%eax),%eax
    82dc:	89 04 24             	mov    %eax,(%esp)
    82df:	e8 6c fe ff ff       	call   0x8150
    82e4:	fa                   	cli    
    82e5:	80 3d 84 02 50 00 00 	cmpb   $0x0,0x500284
    82ec:	74 72                	je     0x8360
    82ee:	a1 18 04 50 00       	mov    0x500418,%eax
    82f3:	8b 40 20             	mov    0x20(%eax),%eax
    82f6:	c1 e8 18             	shr    $0x18,%eax
    82f9:	c1 e0 04             	shl    $0x4,%eax
    82fc:	8b 80 8c 03 50 00    	mov    0x50038c(%eax),%eax
    8302:	8b 10                	mov    (%eax),%edx
    8304:	8d b6 00 00 00 00    	lea    0x0(%esi),%esi
    830a:	8d bf 00 00 00 00    	lea    0x0(%edi),%edi
    8310:	89 d8                	mov    %ebx,%eax
    8312:	f0 0f b1 15 04 04 50 	lock cmpxchg %edx,0x500404
    8319:	00 
    831a:	39 c2                	cmp    %eax,%edx
    831c:	75 f2                	jne    0x8310
    831e:	a1 00 04 50 00       	mov    0x500400,%eax
    8323:	83 c0 01             	add    $0x1,%eax
    8326:	a3 00 04 50 00       	mov    %eax,0x500400
    832b:	8b 06                	mov    (%esi),%eax
    832d:	85 c0                	test   %eax,%eax
    832f:	0f 84 8c 00 00 00    	je     0x83c1
    8335:	83 f8 01             	cmp    $0x1,%eax
    8338:	8b 15 18 04 50 00    	mov    0x500418,%edx
    833e:	0f 85 bc fe ff ff    	jne    0x8200
    8344:	8b 46 04             	mov    0x4(%esi),%eax
    8347:	c7 46 08 00 00 00 00 	movl   $0x0,0x8(%esi)
    834e:	c7 46 04 00 00 00 00 	movl   $0x0,0x4(%esi)
    8355:	83 2e 01             	subl   $0x1,(%esi)
    8358:	e9 b6 fe ff ff       	jmp    0x8213
    835d:	8d 76 00             	lea    0x0(%esi),%esi
    8360:	a1 18 04 50 00       	mov    0x500418,%eax
    8365:	8b 50 20             	mov    0x20(%eax),%edx
    8368:	c1 ea 18             	shr    $0x18,%edx
    836b:	83 c2 01             	add    $0x1,%edx
    836e:	eb a0                	jmp    0x8310
    8370:	8b 4d e0             	mov    -0x20(%ebp),%ecx
    8373:	c7 40 40 00 00 00 00 	movl   $0x0,0x40(%eax)
    837a:	c7 40 44 00 00 00 00 	movl   $0x0,0x44(%eax)
    8381:	c7 82 80 03 50 00 01 	movl   $0x1,0x500380(%edx)
    8388:	00 00 00 
    838b:	89 8a 84 03 50 00    	mov    %ecx,0x500384(%edx)
    8391:	89 8a 88 03 50 00    	mov    %ecx,0x500388(%edx)
    8397:	e9 3d ff ff ff       	jmp    0x82d9
    839c:	8d 74 26 00          	lea    0x0(%esi,%eiz,1),%esi
    83a0:	a1 00 04 50 00       	mov    0x500400,%eax
    83a5:	83 e8 01             	sub    $0x1,%eax
    83a8:	a3 00 04 50 00       	mov    %eax,0x500400
    83ad:	a1 00 04 50 00       	mov    0x500400,%eax
    83b2:	85 c0                	test   %eax,%eax
    83b4:	7f 0a                	jg     0x83c0
    83b6:	c7 05 04 04 50 00 00 	movl   $0x0,0x500404
    83bd:	00 00 00 
    83c0:	fb                   	sti    
    83c1:	83 c4 4c             	add    $0x4c,%esp
    83c4:	5b                   	pop    %ebx
    83c5:	5e                   	pop    %esi
    83c6:	5f                   	pop    %edi
    83c7:	5d                   	pop    %ebp
    83c8:	c3                   	ret    
    83c9:	8d b4 26 00 00 00 00 	lea    0x0(%esi,%eiz,1),%esi
    83d0:	8b 57 28             	mov    0x28(%edi),%edx
    83d3:	85 d2                	test   %edx,%edx
    83d5:	0f 84 ad fe ff ff    	je     0x8288
    83db:	89 45 c4             	mov    %eax,-0x3c(%ebp)
    83de:	66 90                	xchg   %ax,%ax
    83e0:	8b 45 d8             	mov    -0x28(%ebp),%eax
    83e3:	8d 7a 04             	lea    0x4(%edx),%edi
    83e6:	89 7d e4             	mov    %edi,-0x1c(%ebp)
    83e9:	8b 7a 04             	mov    0x4(%edx),%edi
    83ec:	8b 08                	mov    (%eax),%ecx
    83ee:	39 cf                	cmp    %ecx,%edi
    83f0:	7e 4e                	jle    0x8440
    83f2:	8b 7d e4             	mov    -0x1c(%ebp),%edi
    83f5:	8b 45 c4             	mov    -0x3c(%ebp),%eax
    83f8:	8b 0f                	mov    (%edi),%ecx
    83fa:	8b 78 20             	mov    0x20(%eax),%edi
    83fd:	39 f9                	cmp    %edi,%ecx
    83ff:	0f 8e 9b fe ff ff    	jle    0x82a0
    8405:	8b 4a 24             	mov    0x24(%edx),%ecx
    8408:	85 c9                	test   %ecx,%ecx
    840a:	74 3f                	je     0x844b
    840c:	8b 7d e0             	mov    -0x20(%ebp),%edi
    840f:	89 79 28             	mov    %edi,0x28(%ecx)
    8412:	89 7a 24             	mov    %edi,0x24(%edx)
    8415:	89 50 44             	mov    %edx,0x44(%eax)
    8418:	8b 55 dc             	mov    -0x24(%ebp),%edx
    841b:	89 48 40             	mov    %ecx,0x40(%eax)
    841e:	8b 4d d4             	mov    -0x2c(%ebp),%ecx
    8421:	c1 e2 04             	shl    $0x4,%edx
    8424:	83 c1 01             	add    $0x1,%ecx
    8427:	89 8a 80 03 50 00    	mov    %ecx,0x500380(%edx)
    842d:	e9 a7 fe ff ff       	jmp    0x82d9
    8432:	8d b4 26 00 00 00 00 	lea    0x0(%esi,%eiz,1),%esi
    8439:	8d bc 27 00 00 00 00 	lea    0x0(%edi,%eiz,1),%edi
    8440:	8b 4a 28             	mov    0x28(%edx),%ecx
    8443:	85 c9                	test   %ecx,%ecx
    8445:	74 ab                	je     0x83f2
    8447:	89 ca                	mov    %ecx,%edx
    8449:	eb 95                	jmp    0x83e0
    844b:	8b 55 d0             	mov    -0x30(%ebp),%edx
    844e:	8b 4d e0             	mov    -0x20(%ebp),%ecx
    8451:	c7 40 40 00 00 00 00 	movl   $0x0,0x40(%eax)
    8458:	89 50 44             	mov    %edx,0x44(%eax)
    845b:	89 4a 24             	mov    %ecx,0x24(%edx)
    845e:	8b 55 dc             	mov    -0x24(%ebp),%edx
    8461:	c1 e2 04             	shl    $0x4,%edx
    8464:	89 8a 84 03 50 00    	mov    %ecx,0x500384(%edx)
    846a:	83 82 80 03 50 00 01 	addl   $0x1,0x500380(%edx)
    8471:	e9 63 fe ff ff       	jmp    0x82d9
    8476:	90                   	nop
    8477:	90                   	nop
    8478:	90                   	nop
    8479:	90                   	nop
    847a:	90                   	nop
    847b:	90                   	nop
    847c:	90                   	nop
    847d:	90                   	nop
    847e:	90                   	nop
    847f:	90                   	nop
    8480:	55                   	push   %ebp
    8481:	89 e5                	mov    %esp,%ebp
    8483:	83 ec 38             	sub    $0x38,%esp
    8486:	89 5d f4             	mov    %ebx,-0xc(%ebp)
    8489:	8b 55 08             	mov    0x8(%ebp),%edx
    848c:	89 75 f8             	mov    %esi,-0x8(%ebp)
    848f:	89 7d fc             	mov    %edi,-0x4(%ebp)
    8492:	8b 0d 18 04 50 00    	mov    0x500418,%ecx
    8498:	8b 41 20             	mov    0x20(%ecx),%eax
    849b:	c1 e8 18             	shr    $0x18,%eax
    849e:	c1 e0 04             	shl    $0x4,%eax
    84a1:	8b 80 8c 03 50 00    	mov    0x50038c(%eax),%eax
    84a7:	8b 02                	mov    (%edx),%eax
    84a9:	85 c0                	test   %eax,%eax
    84ab:	0f 84 cf 00 00 00    	je     0x8580
    84b1:	83 f8 01             	cmp    $0x1,%eax
    84b4:	0f 84 56 01 00 00    	je     0x8610
    84ba:	8b 42 04             	mov    0x4(%edx),%eax
    84bd:	83 2a 01             	subl   $0x1,(%edx)
    84c0:	8b 58 28             	mov    0x28(%eax),%ebx
    84c3:	89 5a 04             	mov    %ebx,0x4(%edx)
    84c6:	c7 43 24 00 00 00 00 	movl   $0x0,0x24(%ebx)
    84cd:	8b 00                	mov    (%eax),%eax
    84cf:	c7 40 10 01 00 00 00 	movl   $0x1,0x10(%eax)
    84d6:	8b 51 20             	mov    0x20(%ecx),%edx
    84d9:	8d 78 1c             	lea    0x1c(%eax),%edi
    84dc:	c7 40 14 00 00 00 00 	movl   $0x0,0x14(%eax)
    84e3:	c1 ea 18             	shr    $0x18,%edx
    84e6:	c1 e2 04             	shl    $0x4,%edx
    84e9:	8b 92 8c 03 50 00    	mov    0x50038c(%edx),%edx
    84ef:	8b 50 3c             	mov    0x3c(%eax),%edx
    84f2:	89 55 e4             	mov    %edx,-0x1c(%ebp)
    84f5:	c1 e2 04             	shl    $0x4,%edx
    84f8:	8b 8a 8c 03 50 00    	mov    0x50038c(%edx),%ecx
    84fe:	85 c9                	test   %ecx,%ecx
    8500:	0f 84 aa 00 00 00    	je     0x85b0
    8506:	8b 8a 80 03 50 00    	mov    0x500380(%edx),%ecx
    850c:	85 c9                	test   %ecx,%ecx
    850e:	89 4d dc             	mov    %ecx,-0x24(%ebp)
    8511:	0f 84 c9 00 00 00    	je     0x85e0
    8517:	8b 92 84 03 50 00    	mov    0x500384(%edx),%edx
    851d:	8b 4a 04             	mov    0x4(%edx),%ecx
    8520:	89 d6                	mov    %edx,%esi
    8522:	89 55 d8             	mov    %edx,-0x28(%ebp)
    8525:	8d 50 20             	lea    0x20(%eax),%edx
    8528:	83 c6 04             	add    $0x4,%esi
    852b:	89 55 e0             	mov    %edx,-0x20(%ebp)
    852e:	8b 50 20             	mov    0x20(%eax),%edx
    8531:	39 ca                	cmp    %ecx,%edx
    8533:	0f 8d f7 00 00 00    	jge    0x8630
    8539:	8b 55 d8             	mov    -0x28(%ebp),%edx
    853c:	8d 74 26 00          	lea    0x0(%esi,%eiz,1),%esi
    8540:	8b 0e                	mov    (%esi),%ecx
    8542:	8b 58 20             	mov    0x20(%eax),%ebx
    8545:	39 d9                	cmp    %ebx,%ecx
    8547:	0f 8f 33 01 00 00    	jg     0x8680
    854d:	8b 55 e4             	mov    -0x1c(%ebp),%edx
    8550:	c1 e2 04             	shl    $0x4,%edx
    8553:	8b 8a 88 03 50 00    	mov    0x500388(%edx),%ecx
    8559:	83 82 80 03 50 00 01 	addl   $0x1,0x500380(%edx)
    8560:	89 79 28             	mov    %edi,0x28(%ecx)
    8563:	89 48 40             	mov    %ecx,0x40(%eax)
    8566:	c7 40 44 00 00 00 00 	movl   $0x0,0x44(%eax)
    856d:	89 ba 88 03 50 00    	mov    %edi,0x500388(%edx)
    8573:	eb 41                	jmp    0x85b6
    8575:	8d 74 26 00          	lea    0x0(%esi,%eiz,1),%esi
    8579:	8d bc 27 00 00 00 00 	lea    0x0(%edi,%eiz,1),%edi
    8580:	a1 00 04 50 00       	mov    0x500400,%eax
    8585:	83 e8 01             	sub    $0x1,%eax
    8588:	a3 00 04 50 00       	mov    %eax,0x500400
    858d:	a1 00 04 50 00       	mov    0x500400,%eax
    8592:	85 c0                	test   %eax,%eax
    8594:	7e 3a                	jle    0x85d0
    8596:	fb                   	sti    
    8597:	8b 5d f4             	mov    -0xc(%ebp),%ebx
    859a:	8b 75 f8             	mov    -0x8(%ebp),%esi
    859d:	8b 7d fc             	mov    -0x4(%ebp),%edi
    85a0:	89 ec                	mov    %ebp,%esp
    85a2:	5d                   	pop    %ebp
    85a3:	c3                   	ret    
    85a4:	8d b6 00 00 00 00    	lea    0x0(%esi),%esi
    85aa:	8d bf 00 00 00 00    	lea    0x0(%edi),%edi
    85b0:	89 ba 8c 03 50 00    	mov    %edi,0x50038c(%edx)
    85b6:	8b 40 3c             	mov    0x3c(%eax),%eax
    85b9:	8b 5d f4             	mov    -0xc(%ebp),%ebx
    85bc:	8b 75 f8             	mov    -0x8(%ebp),%esi
    85bf:	8b 7d fc             	mov    -0x4(%ebp),%edi
    85c2:	89 45 08             	mov    %eax,0x8(%ebp)
    85c5:	89 ec                	mov    %ebp,%esp
    85c7:	5d                   	pop    %ebp
    85c8:	e9 83 fb ff ff       	jmp    0x8150
    85cd:	8d 76 00             	lea    0x0(%esi),%esi
    85d0:	c7 05 04 04 50 00 00 	movl   $0x0,0x500404
    85d7:	00 00 00 
    85da:	eb ba                	jmp    0x8596
    85dc:	8d 74 26 00          	lea    0x0(%esi,%eiz,1),%esi
    85e0:	c7 40 40 00 00 00 00 	movl   $0x0,0x40(%eax)
    85e7:	c7 40 44 00 00 00 00 	movl   $0x0,0x44(%eax)
    85ee:	c7 82 80 03 50 00 01 	movl   $0x1,0x500380(%edx)
    85f5:	00 00 00 
    85f8:	89 ba 84 03 50 00    	mov    %edi,0x500384(%edx)
    85fe:	89 ba 88 03 50 00    	mov    %edi,0x500388(%edx)
    8604:	eb b0                	jmp    0x85b6
    8606:	8d 76 00             	lea    0x0(%esi),%esi
    8609:	8d bc 27 00 00 00 00 	lea    0x0(%edi,%eiz,1),%edi
    8610:	8b 42 04             	mov    0x4(%edx),%eax
    8613:	c7 42 08 00 00 00 00 	movl   $0x0,0x8(%edx)
    861a:	c7 42 04 00 00 00 00 	movl   $0x0,0x4(%edx)
    8621:	c7 02 00 00 00 00    	movl   $0x0,(%edx)
    8627:	e9 a1 fe ff ff       	jmp    0x84cd
    862c:	8d 74 26 00          	lea    0x0(%esi,%eiz,1),%esi
    8630:	8b 4d d8             	mov    -0x28(%ebp),%ecx
    8633:	8b 51 28             	mov    0x28(%ecx),%edx
    8636:	85 d2                	test   %edx,%edx
    8638:	0f 84 fb fe ff ff    	je     0x8539
    863e:	89 45 d4             	mov    %eax,-0x2c(%ebp)
    8641:	eb 0d                	jmp    0x8650
    8643:	90                   	nop
    8644:	90                   	nop
    8645:	90                   	nop
    8646:	90                   	nop
    8647:	90                   	nop
    8648:	90                   	nop
    8649:	90                   	nop
    864a:	90                   	nop
    864b:	90                   	nop
    864c:	90                   	nop
    864d:	90                   	nop
    864e:	90                   	nop
    864f:	90                   	nop
    8650:	8b 45 e0             	mov    -0x20(%ebp),%eax
    8653:	8d 72 04             	lea    0x4(%edx),%esi
    8656:	8b 5a 04             	mov    0x4(%edx),%ebx
    8659:	8b 08                	mov    (%eax),%ecx
    865b:	39 cb                	cmp    %ecx,%ebx
    865d:	7e 11                	jle    0x8670
    865f:	8b 45 d4             	mov    -0x2c(%ebp),%eax
    8662:	e9 d9 fe ff ff       	jmp    0x8540
    8667:	89 f6                	mov    %esi,%esi
    8669:	8d bc 27 00 00 00 00 	lea    0x0(%edi,%eiz,1),%edi
    8670:	8b 4a 28             	mov    0x28(%edx),%ecx
    8673:	85 c9                	test   %ecx,%ecx
    8675:	74 e8                	je     0x865f
    8677:	89 ca                	mov    %ecx,%edx
    8679:	eb d5                	jmp    0x8650
    867b:	90                   	nop
    867c:	8d 74 26 00          	lea    0x0(%esi,%eiz,1),%esi
    8680:	8b 4a 24             	mov    0x24(%edx),%ecx
    8683:	85 c9                	test   %ecx,%ecx
    8685:	74 29                	je     0x86b0
    8687:	89 79 28             	mov    %edi,0x28(%ecx)
    868a:	89 7a 24             	mov    %edi,0x24(%edx)
    868d:	89 50 44             	mov    %edx,0x44(%eax)
    8690:	8b 55 e4             	mov    -0x1c(%ebp),%edx
    8693:	89 48 40             	mov    %ecx,0x40(%eax)
    8696:	8b 4d dc             	mov    -0x24(%ebp),%ecx
    8699:	c1 e2 04             	shl    $0x4,%edx
    869c:	83 c1 01             	add    $0x1,%ecx
    869f:	89 8a 80 03 50 00    	mov    %ecx,0x500380(%edx)
    86a5:	e9 0c ff ff ff       	jmp    0x85b6
    86aa:	8d b6 00 00 00 00    	lea    0x0(%esi),%esi
    86b0:	8b 55 d8             	mov    -0x28(%ebp),%edx
    86b3:	c7 40 40 00 00 00 00 	movl   $0x0,0x40(%eax)
    86ba:	89 50 44             	mov    %edx,0x44(%eax)
    86bd:	89 7a 24             	mov    %edi,0x24(%edx)
    86c0:	8b 55 e4             	mov    -0x1c(%ebp),%edx
    86c3:	c1 e2 04             	shl    $0x4,%edx
    86c6:	89 ba 84 03 50 00    	mov    %edi,0x500384(%edx)
    86cc:	83 82 80 03 50 00 01 	addl   $0x1,0x500380(%edx)
    86d3:	e9 de fe ff ff       	jmp    0x85b6
    86d8:	90                   	nop
    86d9:	90                   	nop
    86da:	90                   	nop
    86db:	90                   	nop
    86dc:	90                   	nop
    86dd:	90                   	nop
    86de:	90                   	nop
    86df:	90                   	nop
    86e0:	55                   	push   %ebp
    86e1:	89 e5                	mov    %esp,%ebp
    86e3:	57                   	push   %edi
    86e4:	56                   	push   %esi
    86e5:	53                   	push   %ebx
    86e6:	83 ec 3c             	sub    $0x3c,%esp
    86e9:	8b 55 08             	mov    0x8(%ebp),%edx
    86ec:	fa                   	cli    
    86ed:	80 3d 84 02 50 00 00 	cmpb   $0x0,0x500284
    86f4:	0f 84 a6 00 00 00    	je     0x87a0
    86fa:	a1 18 04 50 00       	mov    0x500418,%eax
    86ff:	8b 40 20             	mov    0x20(%eax),%eax
    8702:	c1 e8 18             	shr    $0x18,%eax
    8705:	c1 e0 04             	shl    $0x4,%eax
    8708:	8b 80 8c 03 50 00    	mov    0x50038c(%eax),%eax
    870e:	8b 08                	mov    (%eax),%ecx
    8710:	31 db                	xor    %ebx,%ebx
    8712:	8d b4 26 00 00 00 00 	lea    0x0(%esi,%eiz,1),%esi
    8719:	8d bc 27 00 00 00 00 	lea    0x0(%edi,%eiz,1),%edi
    8720:	89 d8                	mov    %ebx,%eax
    8722:	f0 0f b1 0d 04 04 50 	lock cmpxchg %ecx,0x500404
    8729:	00 
    872a:	39 c1                	cmp    %eax,%ecx
    872c:	75 f2                	jne    0x8720
    872e:	a1 00 04 50 00       	mov    0x500400,%eax
    8733:	83 c0 01             	add    $0x1,%eax
    8736:	a3 00 04 50 00       	mov    %eax,0x500400
    873b:	8b 42 10             	mov    0x10(%edx),%eax
    873e:	83 f8 02             	cmp    $0x2,%eax
    8741:	0f 84 89 00 00 00    	je     0x87d0
    8747:	e8 84 a0 ff ff       	call   0x27d0
    874c:	c7 04 24 b8 b0 00 00 	movl   $0xb0b8,(%esp)
    8753:	e8 28 9e ff ff       	call   0x2580
    8758:	0f b6 05 44 02 50 00 	movzbl 0x500244,%eax
    875f:	0f b6 c0             	movzbl %al,%eax
    8762:	89 04 24             	mov    %eax,(%esp)
    8765:	e8 b6 a1 ff ff       	call   0x2920
    876a:	c7 04 24 a7 b1 00 00 	movl   $0xb1a7,(%esp)
    8771:	e8 0a 9e ff ff       	call   0x2580
    8776:	a1 00 04 50 00       	mov    0x500400,%eax
    877b:	c7 05 40 02 50 00 0a 	movl   $0xa,0x500240
    8782:	00 00 00 
    8785:	83 e8 01             	sub    $0x1,%eax
    8788:	a3 00 04 50 00       	mov    %eax,0x500400
    878d:	a1 00 04 50 00       	mov    0x500400,%eax
    8792:	85 c0                	test   %eax,%eax
    8794:	7e 2a                	jle    0x87c0
    8796:	fb                   	sti    
    8797:	83 c4 3c             	add    $0x3c,%esp
    879a:	5b                   	pop    %ebx
    879b:	5e                   	pop    %esi
    879c:	5f                   	pop    %edi
    879d:	5d                   	pop    %ebp
    879e:	c3                   	ret    
    879f:	90                   	nop
    87a0:	a1 18 04 50 00       	mov    0x500418,%eax
    87a5:	8b 48 20             	mov    0x20(%eax),%ecx
    87a8:	c1 e9 18             	shr    $0x18,%ecx
    87ab:	83 c1 01             	add    $0x1,%ecx
    87ae:	e9 5d ff ff ff       	jmp    0x8710
    87b3:	8d b6 00 00 00 00    	lea    0x0(%esi),%esi
    87b9:	8d bc 27 00 00 00 00 	lea    0x0(%edi,%eiz,1),%edi
    87c0:	c7 05 04 04 50 00 00 	movl   $0x0,0x500404
    87c7:	00 00 00 
    87ca:	eb ca                	jmp    0x8796
    87cc:	8d 74 26 00          	lea    0x0(%esi,%eiz,1),%esi
    87d0:	a1 18 04 50 00       	mov    0x500418,%eax
    87d5:	8d 7a 1c             	lea    0x1c(%edx),%edi
    87d8:	c7 42 10 01 00 00 00 	movl   $0x1,0x10(%edx)
    87df:	8b 40 20             	mov    0x20(%eax),%eax
    87e2:	c1 e8 18             	shr    $0x18,%eax
    87e5:	c1 e0 04             	shl    $0x4,%eax
    87e8:	8b 80 8c 03 50 00    	mov    0x50038c(%eax),%eax
    87ee:	8b 4a 3c             	mov    0x3c(%edx),%ecx
    87f1:	89 c8                	mov    %ecx,%eax
    87f3:	c1 e0 04             	shl    $0x4,%eax
    87f6:	89 4d e4             	mov    %ecx,-0x1c(%ebp)
    87f9:	8b 88 8c 03 50 00    	mov    0x50038c(%eax),%ecx
    87ff:	85 c9                	test   %ecx,%ecx
    8801:	0f 84 99 00 00 00    	je     0x88a0
    8807:	8b 88 80 03 50 00    	mov    0x500380(%eax),%ecx
    880d:	85 c9                	test   %ecx,%ecx
    880f:	89 4d d8             	mov    %ecx,-0x28(%ebp)
    8812:	0f 84 b3 00 00 00    	je     0x88cb
    8818:	8b 80 84 03 50 00    	mov    0x500384(%eax),%eax
    881e:	8b 48 04             	mov    0x4(%eax),%ecx
    8821:	89 c6                	mov    %eax,%esi
    8823:	89 45 dc             	mov    %eax,-0x24(%ebp)
    8826:	8d 42 20             	lea    0x20(%edx),%eax
    8829:	83 c6 04             	add    $0x4,%esi
    882c:	89 45 e0             	mov    %eax,-0x20(%ebp)
    882f:	8b 42 20             	mov    0x20(%edx),%eax
    8832:	39 c8                	cmp    %ecx,%eax
    8834:	0f 8c 7e 00 00 00    	jl     0x88b8
    883a:	8b 4d dc             	mov    -0x24(%ebp),%ecx
    883d:	8b 41 28             	mov    0x28(%ecx),%eax
    8840:	85 c0                	test   %eax,%eax
    8842:	74 74                	je     0x88b8
    8844:	89 55 d4             	mov    %edx,-0x2c(%ebp)
    8847:	89 f6                	mov    %esi,%esi
    8849:	8d bc 27 00 00 00 00 	lea    0x0(%edi,%eiz,1),%edi
    8850:	8b 55 e0             	mov    -0x20(%ebp),%edx
    8853:	8d 70 04             	lea    0x4(%eax),%esi
    8856:	8b 58 04             	mov    0x4(%eax),%ebx
    8859:	8b 0a                	mov    (%edx),%ecx
    885b:	39 cb                	cmp    %ecx,%ebx
    885d:	7e 61                	jle    0x88c0
    885f:	8b 55 d4             	mov    -0x2c(%ebp),%edx
    8862:	8b 0e                	mov    (%esi),%ecx
    8864:	8b 5a 20             	mov    0x20(%edx),%ebx
    8867:	39 d9                	cmp    %ebx,%ecx
    8869:	0f 8f 82 00 00 00    	jg     0x88f1
    886f:	8b 45 e4             	mov    -0x1c(%ebp),%eax
    8872:	c1 e0 04             	shl    $0x4,%eax
    8875:	8b 88 88 03 50 00    	mov    0x500388(%eax),%ecx
    887b:	83 80 80 03 50 00 01 	addl   $0x1,0x500380(%eax)
    8882:	89 79 28             	mov    %edi,0x28(%ecx)
    8885:	89 4a 40             	mov    %ecx,0x40(%edx)
    8888:	c7 42 44 00 00 00 00 	movl   $0x0,0x44(%edx)
    888f:	89 b8 88 03 50 00    	mov    %edi,0x500388(%eax)
    8895:	eb 0f                	jmp    0x88a6
    8897:	89 f6                	mov    %esi,%esi
    8899:	8d bc 27 00 00 00 00 	lea    0x0(%edi,%eiz,1),%edi
    88a0:	89 b8 8c 03 50 00    	mov    %edi,0x50038c(%eax)
    88a6:	8b 42 3c             	mov    0x3c(%edx),%eax
    88a9:	89 45 08             	mov    %eax,0x8(%ebp)
    88ac:	83 c4 3c             	add    $0x3c,%esp
    88af:	5b                   	pop    %ebx
    88b0:	5e                   	pop    %esi
    88b1:	5f                   	pop    %edi
    88b2:	5d                   	pop    %ebp
    88b3:	e9 98 f8 ff ff       	jmp    0x8150
    88b8:	8b 45 dc             	mov    -0x24(%ebp),%eax
    88bb:	eb a5                	jmp    0x8862
    88bd:	8d 76 00             	lea    0x0(%esi),%esi
    88c0:	8b 48 28             	mov    0x28(%eax),%ecx
    88c3:	85 c9                	test   %ecx,%ecx
    88c5:	74 98                	je     0x885f
    88c7:	89 c8                	mov    %ecx,%eax
    88c9:	eb 85                	jmp    0x8850
    88cb:	c7 42 40 00 00 00 00 	movl   $0x0,0x40(%edx)
    88d2:	c7 42 44 00 00 00 00 	movl   $0x0,0x44(%edx)
    88d9:	c7 80 80 03 50 00 01 	movl   $0x1,0x500380(%eax)
    88e0:	00 00 00 
    88e3:	89 b8 84 03 50 00    	mov    %edi,0x500384(%eax)
    88e9:	89 b8 88 03 50 00    	mov    %edi,0x500388(%eax)
    88ef:	eb b5                	jmp    0x88a6
    88f1:	8b 48 24             	mov    0x24(%eax),%ecx
    88f4:	85 c9                	test   %ecx,%ecx
    88f6:	74 20                	je     0x8918
    88f8:	89 79 28             	mov    %edi,0x28(%ecx)
    88fb:	89 78 24             	mov    %edi,0x24(%eax)
    88fe:	89 42 44             	mov    %eax,0x44(%edx)
    8901:	8b 45 e4             	mov    -0x1c(%ebp),%eax
    8904:	89 4a 40             	mov    %ecx,0x40(%edx)
    8907:	8b 4d d8             	mov    -0x28(%ebp),%ecx
    890a:	c1 e0 04             	shl    $0x4,%eax
    890d:	83 c1 01             	add    $0x1,%ecx
    8910:	89 88 80 03 50 00    	mov    %ecx,0x500380(%eax)
    8916:	eb 8e                	jmp    0x88a6
    8918:	8b 45 e4             	mov    -0x1c(%ebp),%eax
    891b:	8b 4d dc             	mov    -0x24(%ebp),%ecx
    891e:	c7 42 40 00 00 00 00 	movl   $0x0,0x40(%edx)
    8925:	c1 e0 04             	shl    $0x4,%eax
    8928:	89 4a 44             	mov    %ecx,0x44(%edx)
    892b:	89 79 24             	mov    %edi,0x24(%ecx)
    892e:	83 80 80 03 50 00 01 	addl   $0x1,0x500380(%eax)
    8935:	89 b8 84 03 50 00    	mov    %edi,0x500384(%eax)
    893b:	e9 66 ff ff ff       	jmp    0x88a6
    8940:	55                   	push   %ebp
    8941:	89 e5                	mov    %esp,%ebp
    8943:	57                   	push   %edi
    8944:	56                   	push   %esi
    8945:	53                   	push   %ebx
    8946:	83 ec 1c             	sub    $0x1c,%esp
    8949:	8b 5d 08             	mov    0x8(%ebp),%ebx
    894c:	fa                   	cli    
    894d:	80 3d 84 02 50 00 00 	cmpb   $0x0,0x500284
    8954:	0f 84 b6 00 00 00    	je     0x8a10
    895a:	a1 18 04 50 00       	mov    0x500418,%eax
    895f:	8b 40 20             	mov    0x20(%eax),%eax
    8962:	c1 e8 18             	shr    $0x18,%eax
    8965:	c1 e0 04             	shl    $0x4,%eax
    8968:	8b 80 8c 03 50 00    	mov    0x50038c(%eax),%eax
    896e:	8b 10                	mov    (%eax),%edx
    8970:	31 c9                	xor    %ecx,%ecx
    8972:	8d b4 26 00 00 00 00 	lea    0x0(%esi,%eiz,1),%esi
    8979:	8d bc 27 00 00 00 00 	lea    0x0(%edi,%eiz,1),%edi
    8980:	89 c8                	mov    %ecx,%eax
    8982:	f0 0f b1 15 04 04 50 	lock cmpxchg %edx,0x500404
    8989:	00 
    898a:	39 c2                	cmp    %eax,%edx
    898c:	75 f2                	jne    0x8980
    898e:	a1 00 04 50 00       	mov    0x500400,%eax
    8993:	83 c0 01             	add    $0x1,%eax
    8996:	a3 00 04 50 00       	mov    %eax,0x500400
    899b:	8b 43 0c             	mov    0xc(%ebx),%eax
    899e:	8b 43 10             	mov    0x10(%ebx),%eax
    89a1:	83 f8 01             	cmp    $0x1,%eax
    89a4:	0f 84 c6 01 00 00    	je     0x8b70
    89aa:	0f 8e 40 02 00 00    	jle    0x8bf0
    89b0:	83 f8 02             	cmp    $0x2,%eax
    89b3:	0f 84 a7 00 00 00    	je     0x8a60
    89b9:	83 f8 03             	cmp    $0x3,%eax
    89bc:	0f 84 6e 01 00 00    	je     0x8b30
    89c2:	8b 43 18             	mov    0x18(%ebx),%eax
    89c5:	85 c0                	test   %eax,%eax
    89c7:	74 0b                	je     0x89d4
    89c9:	8b 43 18             	mov    0x18(%ebx),%eax
    89cc:	89 04 24             	mov    %eax,(%esp)
    89cf:	e8 0c fd ff ff       	call   0x86e0
    89d4:	a1 00 04 50 00       	mov    0x500400,%eax
    89d9:	83 e8 01             	sub    $0x1,%eax
    89dc:	a3 00 04 50 00       	mov    %eax,0x500400
    89e1:	a1 00 04 50 00       	mov    0x500400,%eax
    89e6:	85 c0                	test   %eax,%eax
    89e8:	0f 8e 32 01 00 00    	jle    0x8b20
    89ee:	fb                   	sti    
    89ef:	8b 43 08             	mov    0x8(%ebx),%eax
    89f2:	89 45 08             	mov    %eax,0x8(%ebp)
    89f5:	83 c4 1c             	add    $0x1c,%esp
    89f8:	5b                   	pop    %ebx
    89f9:	5e                   	pop    %esi
    89fa:	5f                   	pop    %edi
    89fb:	5d                   	pop    %ebp
    89fc:	e9 df 9f ff ff       	jmp    0x29e0
    8a01:	eb 0d                	jmp    0x8a10
    8a03:	90                   	nop
    8a04:	90                   	nop
    8a05:	90                   	nop
    8a06:	90                   	nop
    8a07:	90                   	nop
    8a08:	90                   	nop
    8a09:	90                   	nop
    8a0a:	90                   	nop
    8a0b:	90                   	nop
    8a0c:	90                   	nop
    8a0d:	90                   	nop
    8a0e:	90                   	nop
    8a0f:	90                   	nop
    8a10:	a1 18 04 50 00       	mov    0x500418,%eax
    8a15:	8b 50 20             	mov    0x20(%eax),%edx
    8a18:	c1 ea 18             	shr    $0x18,%edx
    8a1b:	83 c2 01             	add    $0x1,%edx
    8a1e:	e9 4d ff ff ff       	jmp    0x8970
    8a23:	89 c8                	mov    %ecx,%eax
    8a25:	8d 74 26 00          	lea    0x0(%esi,%eiz,1),%esi
    8a29:	8d bc 27 00 00 00 00 	lea    0x0(%edi,%eiz,1),%edi
    8a30:	8b 32                	mov    (%edx),%esi
    8a32:	83 fe 01             	cmp    $0x1,%esi
    8a35:	0f 84 79 02 00 00    	je     0x8cb4
    8a3b:	8b 78 24             	mov    0x24(%eax),%edi
    8a3e:	85 ff                	test   %edi,%edi
    8a40:	0f 84 87 02 00 00    	je     0x8ccd
    8a46:	8b 48 28             	mov    0x28(%eax),%ecx
    8a49:	85 c9                	test   %ecx,%ecx
    8a4b:	0f 84 99 02 00 00    	je     0x8cea
    8a51:	89 4f 28             	mov    %ecx,0x28(%edi)
    8a54:	8b 40 28             	mov    0x28(%eax),%eax
    8a57:	83 2a 01             	subl   $0x1,(%edx)
    8a5a:	89 78 24             	mov    %edi,0x24(%eax)
    8a5d:	8d 76 00             	lea    0x0(%esi),%esi
    8a60:	a1 18 04 50 00       	mov    0x500418,%eax
    8a65:	8d 73 1c             	lea    0x1c(%ebx),%esi
    8a68:	8d 50 20             	lea    0x20(%eax),%edx
    8a6b:	8b 40 20             	mov    0x20(%eax),%eax
    8a6e:	c1 e8 18             	shr    $0x18,%eax
    8a71:	c1 e0 04             	shl    $0x4,%eax
    8a74:	8b 80 8c 03 50 00    	mov    0x50038c(%eax),%eax
    8a7a:	8b 43 3c             	mov    0x3c(%ebx),%eax
    8a7d:	c1 e0 04             	shl    $0x4,%eax
    8a80:	8b 88 8c 03 50 00    	mov    0x50038c(%eax),%ecx
    8a86:	85 c9                	test   %ecx,%ecx
    8a88:	0f 84 52 01 00 00    	je     0x8be0
    8a8e:	05 80 03 50 00       	add    $0x500380,%eax
    8a93:	89 74 24 04          	mov    %esi,0x4(%esp)
    8a97:	89 04 24             	mov    %eax,(%esp)
    8a9a:	e8 d1 c6 ff ff       	call   0x5170
    8a9f:	8b 15 18 04 50 00    	mov    0x500418,%edx
    8aa5:	83 c2 20             	add    $0x20,%edx
    8aa8:	8b 02                	mov    (%edx),%eax
    8aaa:	c1 e8 18             	shr    $0x18,%eax
    8aad:	c1 e0 04             	shl    $0x4,%eax
    8ab0:	8b 80 8c 03 50 00    	mov    0x50038c(%eax),%eax
    8ab6:	8b 53 3c             	mov    0x3c(%ebx),%edx
    8ab9:	89 d0                	mov    %edx,%eax
    8abb:	c1 e0 04             	shl    $0x4,%eax
    8abe:	8b 88 8c 03 50 00    	mov    0x50038c(%eax),%ecx
    8ac4:	39 ce                	cmp    %ecx,%esi
    8ac6:	0f 84 d1 00 00 00    	je     0x8b9d
    8acc:	8b 90 80 03 50 00    	mov    0x500380(%eax),%edx
    8ad2:	83 fa 01             	cmp    $0x1,%edx
    8ad5:	0f 84 35 01 00 00    	je     0x8c10
    8adb:	8b 4b 40             	mov    0x40(%ebx),%ecx
    8ade:	85 c9                	test   %ecx,%ecx
    8ae0:	0f 84 4d 01 00 00    	je     0x8c33
    8ae6:	8b 73 44             	mov    0x44(%ebx),%esi
    8ae9:	85 f6                	test   %esi,%esi
    8aeb:	0f 84 6e 01 00 00    	je     0x8c5f
    8af1:	89 71 28             	mov    %esi,0x28(%ecx)
    8af4:	8b 73 44             	mov    0x44(%ebx),%esi
    8af7:	83 ea 01             	sub    $0x1,%edx
    8afa:	89 90 80 03 50 00    	mov    %edx,0x500380(%eax)
    8b00:	89 4e 24             	mov    %ecx,0x24(%esi)
    8b03:	a1 c4 02 50 00       	mov    0x5002c4,%eax
    8b08:	83 e8 01             	sub    $0x1,%eax
    8b0b:	a3 c4 02 50 00       	mov    %eax,0x5002c4
    8b10:	e9 ad fe ff ff       	jmp    0x89c2
    8b15:	8d 74 26 00          	lea    0x0(%esi,%eiz,1),%esi
    8b19:	8d bc 27 00 00 00 00 	lea    0x0(%edi,%eiz,1),%edi
    8b20:	c7 05 04 04 50 00 00 	movl   $0x0,0x500404
    8b27:	00 00 00 
    8b2a:	e9 bf fe ff ff       	jmp    0x89ee
    8b2f:	90                   	nop
    8b30:	8b 53 14             	mov    0x14(%ebx),%edx
    8b33:	8b 4a 04             	mov    0x4(%edx),%ecx
    8b36:	85 c9                	test   %ecx,%ecx
    8b38:	0f 84 22 ff ff ff    	je     0x8a60
    8b3e:	3b 19                	cmp    (%ecx),%ebx
    8b40:	89 c8                	mov    %ecx,%eax
    8b42:	0f 84 db fe ff ff    	je     0x8a23
    8b48:	90                   	nop
    8b49:	8d b4 26 00 00 00 00 	lea    0x0(%esi,%eiz,1),%esi
    8b50:	8b 40 28             	mov    0x28(%eax),%eax
    8b53:	85 c0                	test   %eax,%eax
    8b55:	0f 84 05 ff ff ff    	je     0x8a60
    8b5b:	3b 18                	cmp    (%eax),%ebx
    8b5d:	75 f1                	jne    0x8b50
    8b5f:	e9 cc fe ff ff       	jmp    0x8a30
    8b64:	8d b6 00 00 00 00    	lea    0x0(%esi),%esi
    8b6a:	8d bf 00 00 00 00    	lea    0x0(%edi),%edi
    8b70:	a1 18 04 50 00       	mov    0x500418,%eax
    8b75:	8d 4b 1c             	lea    0x1c(%ebx),%ecx
    8b78:	8b 40 20             	mov    0x20(%eax),%eax
    8b7b:	c1 e8 18             	shr    $0x18,%eax
    8b7e:	c1 e0 04             	shl    $0x4,%eax
    8b81:	8b 80 8c 03 50 00    	mov    0x50038c(%eax),%eax
    8b87:	8b 53 3c             	mov    0x3c(%ebx),%edx
    8b8a:	89 d0                	mov    %edx,%eax
    8b8c:	c1 e0 04             	shl    $0x4,%eax
    8b8f:	8b b0 8c 03 50 00    	mov    0x50038c(%eax),%esi
    8b95:	39 ce                	cmp    %ecx,%esi
    8b97:	0f 85 2f ff ff ff    	jne    0x8acc
    8b9d:	8b 88 80 03 50 00    	mov    0x500380(%eax),%ecx
    8ba3:	31 f6                	xor    %esi,%esi
    8ba5:	85 c9                	test   %ecx,%ecx
    8ba7:	74 28                	je     0x8bd1
    8ba9:	83 f9 01             	cmp    $0x1,%ecx
    8bac:	0f 84 d9 00 00 00    	je     0x8c8b
    8bb2:	8b b0 84 03 50 00    	mov    0x500384(%eax),%esi
    8bb8:	83 e9 01             	sub    $0x1,%ecx
    8bbb:	89 88 80 03 50 00    	mov    %ecx,0x500380(%eax)
    8bc1:	8b 7e 28             	mov    0x28(%esi),%edi
    8bc4:	89 b8 84 03 50 00    	mov    %edi,0x500384(%eax)
    8bca:	c7 47 24 00 00 00 00 	movl   $0x0,0x24(%edi)
    8bd1:	c1 e2 04             	shl    $0x4,%edx
    8bd4:	89 b2 8c 03 50 00    	mov    %esi,0x50038c(%edx)
    8bda:	e9 24 ff ff ff       	jmp    0x8b03
    8bdf:	90                   	nop
    8be0:	89 b0 8c 03 50 00    	mov    %esi,0x50038c(%eax)
    8be6:	e9 bd fe ff ff       	jmp    0x8aa8
    8beb:	90                   	nop
    8bec:	8d 74 26 00          	lea    0x0(%esi,%eiz,1),%esi
    8bf0:	85 c0                	test   %eax,%eax
    8bf2:	0f 85 ca fd ff ff    	jne    0x89c2
    8bf8:	c7 04 24 ff ff ff ff 	movl   $0xffffffff,(%esp)
    8bff:	e8 9c ec ff ff       	call   0x78a0
    8c04:	e9 b9 fd ff ff       	jmp    0x89c2
    8c09:	8d b4 26 00 00 00 00 	lea    0x0(%esi,%eiz,1),%esi
    8c10:	c7 80 84 03 50 00 00 	movl   $0x0,0x500384(%eax)
    8c17:	00 00 00 
    8c1a:	c7 80 88 03 50 00 00 	movl   $0x0,0x500388(%eax)
    8c21:	00 00 00 
    8c24:	c7 80 80 03 50 00 00 	movl   $0x0,0x500380(%eax)
    8c2b:	00 00 00 
    8c2e:	e9 d0 fe ff ff       	jmp    0x8b03
    8c33:	85 d2                	test   %edx,%edx
    8c35:	0f 84 c8 fe ff ff    	je     0x8b03
    8c3b:	8b 88 84 03 50 00    	mov    0x500384(%eax),%ecx
    8c41:	83 ea 01             	sub    $0x1,%edx
    8c44:	89 90 80 03 50 00    	mov    %edx,0x500380(%eax)
    8c4a:	8b 49 28             	mov    0x28(%ecx),%ecx
    8c4d:	89 88 84 03 50 00    	mov    %ecx,0x500384(%eax)
    8c53:	c7 41 24 00 00 00 00 	movl   $0x0,0x24(%ecx)
    8c5a:	e9 a4 fe ff ff       	jmp    0x8b03
    8c5f:	85 d2                	test   %edx,%edx
    8c61:	0f 84 9c fe ff ff    	je     0x8b03
    8c67:	8b 88 88 03 50 00    	mov    0x500388(%eax),%ecx
    8c6d:	83 ea 01             	sub    $0x1,%edx
    8c70:	89 90 80 03 50 00    	mov    %edx,0x500380(%eax)
    8c76:	8b 49 24             	mov    0x24(%ecx),%ecx
    8c79:	89 88 88 03 50 00    	mov    %ecx,0x500388(%eax)
    8c7f:	c7 41 28 00 00 00 00 	movl   $0x0,0x28(%ecx)
    8c86:	e9 78 fe ff ff       	jmp    0x8b03
    8c8b:	8b b0 84 03 50 00    	mov    0x500384(%eax),%esi
    8c91:	c7 80 88 03 50 00 00 	movl   $0x0,0x500388(%eax)
    8c98:	00 00 00 
    8c9b:	c7 80 84 03 50 00 00 	movl   $0x0,0x500384(%eax)
    8ca2:	00 00 00 
    8ca5:	c7 80 80 03 50 00 00 	movl   $0x0,0x500380(%eax)
    8cac:	00 00 00 
    8caf:	e9 1d ff ff ff       	jmp    0x8bd1
    8cb4:	c7 42 04 00 00 00 00 	movl   $0x0,0x4(%edx)
    8cbb:	c7 42 08 00 00 00 00 	movl   $0x0,0x8(%edx)
    8cc2:	c7 02 00 00 00 00    	movl   $0x0,(%edx)
    8cc8:	e9 93 fd ff ff       	jmp    0x8a60
    8ccd:	85 f6                	test   %esi,%esi
    8ccf:	0f 84 8b fd ff ff    	je     0x8a60
    8cd5:	8b 41 28             	mov    0x28(%ecx),%eax
    8cd8:	83 2a 01             	subl   $0x1,(%edx)
    8cdb:	89 42 04             	mov    %eax,0x4(%edx)
    8cde:	c7 40 24 00 00 00 00 	movl   $0x0,0x24(%eax)
    8ce5:	e9 76 fd ff ff       	jmp    0x8a60
    8cea:	85 f6                	test   %esi,%esi
    8cec:	0f 84 6e fd ff ff    	je     0x8a60
    8cf2:	8b 42 08             	mov    0x8(%edx),%eax
    8cf5:	83 2a 01             	subl   $0x1,(%edx)
    8cf8:	8b 40 24             	mov    0x24(%eax),%eax
    8cfb:	89 42 08             	mov    %eax,0x8(%edx)
    8cfe:	c7 40 28 00 00 00 00 	movl   $0x0,0x28(%eax)
    8d05:	e9 56 fd ff ff       	jmp    0x8a60
    8d0a:	90                   	nop
    8d0b:	90                   	nop
    8d0c:	90                   	nop
    8d0d:	90                   	nop
    8d0e:	90                   	nop
    8d0f:	90                   	nop
    8d10:	55                   	push   %ebp
    8d11:	89 e5                	mov    %esp,%ebp
    8d13:	83 ec 28             	sub    $0x28,%esp
    8d16:	89 5d f4             	mov    %ebx,-0xc(%ebp)
    8d19:	8b 5d 08             	mov    0x8(%ebp),%ebx
    8d1c:	89 75 f8             	mov    %esi,-0x8(%ebp)
    8d1f:	89 7d fc             	mov    %edi,-0x4(%ebp)
    8d22:	8b 43 0c             	mov    0xc(%ebx),%eax
    8d25:	8b 43 10             	mov    0x10(%ebx),%eax
    8d28:	83 f8 01             	cmp    $0x1,%eax
    8d2b:	74 07                	je     0x8d34
    8d2d:	8b 43 10             	mov    0x10(%ebx),%eax
    8d30:	85 c0                	test   %eax,%eax
    8d32:	75 4c                	jne    0x8d80
    8d34:	8b 43 10             	mov    0x10(%ebx),%eax
    8d37:	83 f8 01             	cmp    $0x1,%eax
    8d3a:	0f 84 b0 00 00 00    	je     0x8df0
    8d40:	a1 00 04 50 00       	mov    0x500400,%eax
    8d45:	83 e8 01             	sub    $0x1,%eax
    8d48:	a3 00 04 50 00       	mov    %eax,0x500400
    8d4d:	a1 00 04 50 00       	mov    0x500400,%eax
    8d52:	85 c0                	test   %eax,%eax
    8d54:	0f 8e b6 00 00 00    	jle    0x8e10
    8d5a:	fb                   	sti    
    8d5b:	c7 43 4c 00 00 00 00 	movl   $0x0,0x4c(%ebx)
    8d62:	c7 43 50 00 00 00 00 	movl   $0x0,0x50(%ebx)
    8d69:	c7 43 48 00 00 00 00 	movl   $0x0,0x48(%ebx)
    8d70:	8b 5d f4             	mov    -0xc(%ebp),%ebx
    8d73:	8b 75 f8             	mov    -0x8(%ebp),%esi
    8d76:	8b 7d fc             	mov    -0x4(%ebp),%edi
    8d79:	89 ec                	mov    %ebp,%esp
    8d7b:	5d                   	pop    %ebp
    8d7c:	c3                   	ret    
    8d7d:	8d 76 00             	lea    0x0(%esi),%esi
    8d80:	a1 18 04 50 00       	mov    0x500418,%eax
    8d85:	8d 4b 1c             	lea    0x1c(%ebx),%ecx
    8d88:	8b 40 20             	mov    0x20(%eax),%eax
    8d8b:	c1 e8 18             	shr    $0x18,%eax
    8d8e:	c1 e0 04             	shl    $0x4,%eax
    8d91:	8b 80 8c 03 50 00    	mov    0x50038c(%eax),%eax
    8d97:	8b 53 3c             	mov    0x3c(%ebx),%edx
    8d9a:	89 d0                	mov    %edx,%eax
    8d9c:	c1 e0 04             	shl    $0x4,%eax
    8d9f:	8b b0 8c 03 50 00    	mov    0x50038c(%eax),%esi
    8da5:	39 ce                	cmp    %ecx,%esi
    8da7:	74 77                	je     0x8e20
    8da9:	8b 90 80 03 50 00    	mov    0x500380(%eax),%edx
    8daf:	83 fa 01             	cmp    $0x1,%edx
    8db2:	0f 84 a8 00 00 00    	je     0x8e60
    8db8:	8b 4b 40             	mov    0x40(%ebx),%ecx
    8dbb:	85 c9                	test   %ecx,%ecx
    8dbd:	0f 84 fd 00 00 00    	je     0x8ec0
    8dc3:	8b 73 44             	mov    0x44(%ebx),%esi
    8dc6:	85 f6                	test   %esi,%esi
    8dc8:	0f 84 22 01 00 00    	je     0x8ef0
    8dce:	83 ea 01             	sub    $0x1,%edx
    8dd1:	89 90 80 03 50 00    	mov    %edx,0x500380(%eax)
    8dd7:	8b 43 10             	mov    0x10(%ebx),%eax
    8dda:	89 71 28             	mov    %esi,0x28(%ecx)
    8ddd:	8b 73 44             	mov    0x44(%ebx),%esi
    8de0:	83 f8 01             	cmp    $0x1,%eax
    8de3:	89 4e 24             	mov    %ecx,0x24(%esi)
    8de6:	0f 85 54 ff ff ff    	jne    0x8d40
    8dec:	8d 74 26 00          	lea    0x0(%esi,%eiz,1),%esi
    8df0:	8b 43 20             	mov    0x20(%ebx),%eax
    8df3:	3d ff ff ff 7f       	cmp    $0x7fffffff,%eax
    8df8:	0f 84 42 ff ff ff    	je     0x8d40
    8dfe:	8b 43 3c             	mov    0x3c(%ebx),%eax
    8e01:	89 04 24             	mov    %eax,(%esp)
    8e04:	e8 47 f3 ff ff       	call   0x8150
    8e09:	e9 4d ff ff ff       	jmp    0x8d5b
    8e0e:	66 90                	xchg   %ax,%ax
    8e10:	c7 05 04 04 50 00 00 	movl   $0x0,0x500404
    8e17:	00 00 00 
    8e1a:	e9 3b ff ff ff       	jmp    0x8d5a
    8e1f:	90                   	nop
    8e20:	8b 88 80 03 50 00    	mov    0x500380(%eax),%ecx
    8e26:	31 f6                	xor    %esi,%esi
    8e28:	85 c9                	test   %ecx,%ecx
    8e2a:	74 24                	je     0x8e50
    8e2c:	83 f9 01             	cmp    $0x1,%ecx
    8e2f:	74 5f                	je     0x8e90
    8e31:	8b b0 84 03 50 00    	mov    0x500384(%eax),%esi
    8e37:	83 e9 01             	sub    $0x1,%ecx
    8e3a:	89 88 80 03 50 00    	mov    %ecx,0x500380(%eax)
    8e40:	8b 7e 28             	mov    0x28(%esi),%edi
    8e43:	89 b8 84 03 50 00    	mov    %edi,0x500384(%eax)
    8e49:	c7 47 24 00 00 00 00 	movl   $0x0,0x24(%edi)
    8e50:	c1 e2 04             	shl    $0x4,%edx
    8e53:	89 b2 8c 03 50 00    	mov    %esi,0x50038c(%edx)
    8e59:	e9 d6 fe ff ff       	jmp    0x8d34
    8e5e:	66 90                	xchg   %ax,%ax
    8e60:	c7 80 84 03 50 00 00 	movl   $0x0,0x500384(%eax)
    8e67:	00 00 00 
    8e6a:	c7 80 88 03 50 00 00 	movl   $0x0,0x500388(%eax)
    8e71:	00 00 00 
    8e74:	c7 80 80 03 50 00 00 	movl   $0x0,0x500380(%eax)
    8e7b:	00 00 00 
    8e7e:	e9 b1 fe ff ff       	jmp    0x8d34
    8e83:	8d b6 00 00 00 00    	lea    0x0(%esi),%esi
    8e89:	8d bc 27 00 00 00 00 	lea    0x0(%edi,%eiz,1),%edi
    8e90:	8b b0 84 03 50 00    	mov    0x500384(%eax),%esi
    8e96:	c7 80 88 03 50 00 00 	movl   $0x0,0x500388(%eax)
    8e9d:	00 00 00 
    8ea0:	c7 80 84 03 50 00 00 	movl   $0x0,0x500384(%eax)
    8ea7:	00 00 00 
    8eaa:	c7 80 80 03 50 00 00 	movl   $0x0,0x500380(%eax)
    8eb1:	00 00 00 
    8eb4:	eb 9a                	jmp    0x8e50
    8eb6:	8d 76 00             	lea    0x0(%esi),%esi
    8eb9:	8d bc 27 00 00 00 00 	lea    0x0(%edi,%eiz,1),%edi
    8ec0:	85 d2                	test   %edx,%edx
    8ec2:	0f 84 6c fe ff ff    	je     0x8d34
    8ec8:	8b 88 84 03 50 00    	mov    0x500384(%eax),%ecx
    8ece:	83 ea 01             	sub    $0x1,%edx
    8ed1:	89 90 80 03 50 00    	mov    %edx,0x500380(%eax)
    8ed7:	8b 49 28             	mov    0x28(%ecx),%ecx
    8eda:	89 88 84 03 50 00    	mov    %ecx,0x500384(%eax)
    8ee0:	c7 41 24 00 00 00 00 	movl   $0x0,0x24(%ecx)
    8ee7:	e9 48 fe ff ff       	jmp    0x8d34
    8eec:	8d 74 26 00          	lea    0x0(%esi,%eiz,1),%esi
    8ef0:	85 d2                	test   %edx,%edx
    8ef2:	0f 84 3c fe ff ff    	je     0x8d34
    8ef8:	8b 88 88 03 50 00    	mov    0x500388(%eax),%ecx
    8efe:	83 ea 01             	sub    $0x1,%edx
    8f01:	89 90 80 03 50 00    	mov    %edx,0x500380(%eax)
    8f07:	8b 49 24             	mov    0x24(%ecx),%ecx
    8f0a:	89 88 88 03 50 00    	mov    %ecx,0x500388(%eax)
    8f10:	c7 41 28 00 00 00 00 	movl   $0x0,0x28(%ecx)
    8f17:	e9 18 fe ff ff       	jmp    0x8d34
    8f1c:	90                   	nop
    8f1d:	90                   	nop
    8f1e:	90                   	nop
    8f1f:	90                   	nop
    8f20:	55                   	push   %ebp
    8f21:	89 e5                	mov    %esp,%ebp
    8f23:	57                   	push   %edi
    8f24:	56                   	push   %esi
    8f25:	53                   	push   %ebx
    8f26:	83 ec 3c             	sub    $0x3c,%esp
    8f29:	8b 45 08             	mov    0x8(%ebp),%eax
    8f2c:	8b 50 14             	mov    0x14(%eax),%edx
    8f2f:	8b 48 10             	mov    0x10(%eax),%ecx
    8f32:	8b 58 08             	mov    0x8(%eax),%ebx
    8f35:	89 55 cc             	mov    %edx,-0x34(%ebp)
    8f38:	8b 50 0c             	mov    0xc(%eax),%edx
    8f3b:	89 4d d0             	mov    %ecx,-0x30(%ebp)
    8f3e:	31 c9                	xor    %ecx,%ecx
    8f40:	89 4d e4             	mov    %ecx,-0x1c(%ebp)
    8f43:	31 c9                	xor    %ecx,%ecx
    8f45:	89 4d dc             	mov    %ecx,-0x24(%ebp)
    8f48:	89 55 d4             	mov    %edx,-0x2c(%ebp)
    8f4b:	8b 10                	mov    (%eax),%edx
    8f4d:	89 55 e0             	mov    %edx,-0x20(%ebp)
    8f50:	8b 50 04             	mov    0x4(%eax),%edx
    8f53:	83 fa 02             	cmp    $0x2,%edx
    8f56:	89 55 d8             	mov    %edx,-0x28(%ebp)
    8f59:	77 10                	ja     0x8f6b
    8f5b:	83 45 d8 0c          	addl   $0xc,-0x28(%ebp)
    8f5f:	83 55 dc 00          	adcl   $0x0,-0x24(%ebp)
    8f63:	83 45 e0 ff          	addl   $0xffffffff,-0x20(%ebp)
    8f67:	83 55 e4 ff          	adcl   $0xffffffff,-0x1c(%ebp)
    8f6b:	31 f6                	xor    %esi,%esi
    8f6d:	81 c3 37 05 f5 ff    	add    $0xfff50537,%ebx
    8f73:	83 d6 ff             	adc    $0xffffffff,%esi
    8f76:	b8 6d 01 00 00       	mov    $0x16d,%eax
    8f7b:	69 4d e4 6d 01 00 00 	imul   $0x16d,-0x1c(%ebp),%ecx
    8f82:	bf 03 00 00 00       	mov    $0x3,%edi
    8f87:	f7 65 e0             	mull   -0x20(%ebp)
    8f8a:	c7 44 24 08 90 01 00 	movl   $0x190,0x8(%esp)
    8f91:	00 
    8f92:	c7 44 24 0c 00 00 00 	movl   $0x0,0xc(%esp)
    8f99:	00 
    8f9a:	01 c3                	add    %eax,%ebx
    8f9c:	8b 45 e0             	mov    -0x20(%ebp),%eax
    8f9f:	8d 14 11             	lea    (%ecx,%edx,1),%edx
    8fa2:	11 d6                	adc    %edx,%esi
    8fa4:	8b 55 e4             	mov    -0x1c(%ebp),%edx
    8fa7:	0f ac d0 02          	shrd   $0x2,%edx,%eax
    8fab:	c1 ea 02             	shr    $0x2,%edx
    8fae:	01 c3                	add    %eax,%ebx
    8fb0:	8b 45 e0             	mov    -0x20(%ebp),%eax
    8fb3:	11 d6                	adc    %edx,%esi
    8fb5:	8b 55 e4             	mov    -0x1c(%ebp),%edx
    8fb8:	89 04 24             	mov    %eax,(%esp)
    8fbb:	89 54 24 04          	mov    %edx,0x4(%esp)
    8fbf:	e8 14 1d 00 00       	call   0xacd8
    8fc4:	c7 44 24 08 64 00 00 	movl   $0x64,0x8(%esp)
    8fcb:	00 
    8fcc:	c7 44 24 0c 00 00 00 	movl   $0x0,0xc(%esp)
    8fd3:	00 
    8fd4:	01 c3                	add    %eax,%ebx
    8fd6:	b8 1e 00 00 00       	mov    $0x1e,%eax
    8fdb:	11 d6                	adc    %edx,%esi
    8fdd:	6b 4d dc 1e          	imul   $0x1e,-0x24(%ebp),%ecx
    8fe1:	f7 65 d8             	mull   -0x28(%ebp)
    8fe4:	8d 14 11             	lea    (%ecx,%edx,1),%edx
    8fe7:	01 c3                	add    %eax,%ebx
    8fe9:	8b 4d e4             	mov    -0x1c(%ebp),%ecx
    8fec:	11 d6                	adc    %edx,%esi
    8fee:	8b 55 e0             	mov    -0x20(%ebp),%edx
    8ff1:	89 4c 24 04          	mov    %ecx,0x4(%esp)
    8ff5:	89 14 24             	mov    %edx,(%esp)
    8ff8:	e8 db 1c 00 00       	call   0xacd8
    8ffd:	c7 44 24 08 05 00 00 	movl   $0x5,0x8(%esp)
    9004:	00 
    9005:	c7 44 24 0c 00 00 00 	movl   $0x0,0xc(%esp)
    900c:	00 
    900d:	29 c3                	sub    %eax,%ebx
    900f:	8b 45 d8             	mov    -0x28(%ebp),%eax
    9012:	19 d6                	sbb    %edx,%esi
    9014:	8b 55 dc             	mov    -0x24(%ebp),%edx
    9017:	83 c0 01             	add    $0x1,%eax
    901a:	83 d2 00             	adc    $0x0,%edx
    901d:	8d 0c 52             	lea    (%edx,%edx,2),%ecx
    9020:	f7 e7                	mul    %edi
    9022:	8d 14 11             	lea    (%ecx,%edx,1),%edx
    9025:	89 04 24             	mov    %eax,(%esp)
    9028:	89 54 24 04          	mov    %edx,0x4(%esp)
    902c:	e8 a7 1c 00 00       	call   0xacd8
    9031:	01 d8                	add    %ebx,%eax
    9033:	bb 80 51 01 00       	mov    $0x15180,%ebx
    9038:	11 f2                	adc    %esi,%edx
    903a:	69 ca 80 51 01 00    	imul   $0x15180,%edx,%ecx
    9040:	f7 e3                	mul    %ebx
    9042:	69 5d d4 10 0e 00 00 	imul   $0xe10,-0x2c(%ebp),%ebx
    9049:	8d 14 11             	lea    (%ecx,%edx,1),%edx
    904c:	6b 4d d0 3c          	imul   $0x3c,-0x30(%ebp),%ecx
    9050:	8d 0c 0b             	lea    (%ebx,%ecx,1),%ecx
    9053:	31 db                	xor    %ebx,%ebx
    9055:	03 4d cc             	add    -0x34(%ebp),%ecx
    9058:	01 c1                	add    %eax,%ecx
    905a:	11 d3                	adc    %edx,%ebx
    905c:	89 c8                	mov    %ecx,%eax
    905e:	83 c4 3c             	add    $0x3c,%esp
    9061:	89 da                	mov    %ebx,%edx
    9063:	5b                   	pop    %ebx
    9064:	5e                   	pop    %esi
    9065:	5f                   	pop    %edi
    9066:	5d                   	pop    %ebp
    9067:	c3                   	ret    
    9068:	90                   	nop
    9069:	90                   	nop
    906a:	90                   	nop
    906b:	90                   	nop
    906c:	90                   	nop
    906d:	90                   	nop
    906e:	90                   	nop
    906f:	90                   	nop
    9070:	55                   	push   %ebp
    9071:	31 c0                	xor    %eax,%eax
    9073:	89 e5                	mov    %esp,%ebp
    9075:	ba f9 03 00 00       	mov    $0x3f9,%edx
    907a:	ee                   	out    %al,(%dx)
    907b:	b9 fb 03 00 00       	mov    $0x3fb,%ecx
    9080:	89 ca                	mov    %ecx,%edx
    9082:	66 c7 05 08 04 50 00 	movw   $0x3f8,0x500408
    9089:	f8 03 
    908b:	ec                   	in     (%dx),%al
    908c:	83 c8 80             	or     $0xffffff80,%eax
    908f:	ee                   	out    %al,(%dx)
    9090:	b8 01 00 00 00       	mov    $0x1,%eax
    9095:	b2 f8                	mov    $0xf8,%dl
    9097:	ee                   	out    %al,(%dx)
    9098:	31 c0                	xor    %eax,%eax
    909a:	b2 f9                	mov    $0xf9,%dl
    909c:	ee                   	out    %al,(%dx)
    909d:	89 ca                	mov    %ecx,%edx
    909f:	ec                   	in     (%dx),%al
    90a0:	83 e0 7f             	and    $0x7f,%eax
    90a3:	ee                   	out    %al,(%dx)
    90a4:	b8 03 00 00 00       	mov    $0x3,%eax
    90a9:	ee                   	out    %al,(%dx)
    90aa:	b8 c7 ff ff ff       	mov    $0xffffffc7,%eax
    90af:	b2 fa                	mov    $0xfa,%dl
    90b1:	ee                   	out    %al,(%dx)
    90b2:	b2 fc                	mov    $0xfc,%dl
    90b4:	ec                   	in     (%dx),%al
    90b5:	83 c8 0b             	or     $0xb,%eax
    90b8:	ee                   	out    %al,(%dx)
    90b9:	5d                   	pop    %ebp
    90ba:	c3                   	ret    
    90bb:	90                   	nop
    90bc:	90                   	nop
    90bd:	90                   	nop
    90be:	90                   	nop
    90bf:	90                   	nop
    90c0:	55                   	push   %ebp
    90c1:	8b 0d 18 04 50 00    	mov    0x500418,%ecx
    90c7:	89 e5                	mov    %esp,%ebp
    90c9:	8b 55 08             	mov    0x8(%ebp),%edx
    90cc:	8b 45 0c             	mov    0xc(%ebp),%eax
    90cf:	c1 e2 18             	shl    $0x18,%edx
    90d2:	89 91 10 03 00 00    	mov    %edx,0x310(%ecx)
    90d8:	8b 15 18 04 50 00    	mov    0x500418,%edx
    90de:	80 cc c0             	or     $0xc0,%ah
    90e1:	89 82 00 03 00 00    	mov    %eax,0x300(%edx)
    90e7:	8b 15 18 04 50 00    	mov    0x500418,%edx
    90ed:	81 c2 00 03 00 00    	add    $0x300,%edx
    90f3:	8d b6 00 00 00 00    	lea    0x0(%esi),%esi
    90f9:	8d bc 27 00 00 00 00 	lea    0x0(%edi,%eiz,1),%edi
    9100:	8b 02                	mov    (%edx),%eax
    9102:	f6 c4 10             	test   $0x10,%ah
    9105:	75 f9                	jne    0x9100
    9107:	5d                   	pop    %ebp
    9108:	c3                   	ret    
    9109:	90                   	nop
    910a:	90                   	nop
    910b:	90                   	nop
    910c:	90                   	nop
    910d:	90                   	nop
    910e:	90                   	nop
    910f:	90                   	nop
    9110:	55                   	push   %ebp
    9111:	89 e5                	mov    %esp,%ebp
    9113:	5d                   	pop    %ebp
    9114:	c3                   	ret    
    9115:	90                   	nop
    9116:	90                   	nop
    9117:	90                   	nop
    9118:	90                   	nop
    9119:	90                   	nop
    911a:	90                   	nop
    911b:	90                   	nop
    911c:	90                   	nop
    911d:	90                   	nop
    911e:	90                   	nop
    911f:	90                   	nop
    9120:	83 ec 1c             	sub    $0x1c,%esp
    9123:	8b 44 24 20          	mov    0x20(%esp),%eax
    9127:	8d 50 e0             	lea    -0x20(%eax),%edx
    912a:	83 fa 11             	cmp    $0x11,%edx
    912d:	77 10                	ja     0x913f
    912f:	8b 15 18 04 50 00    	mov    0x500418,%edx
    9135:	c7 82 b0 00 00 00 00 	movl   $0x0,0xb0(%edx)
    913c:	00 00 00 
    913f:	8d 54 24 20          	lea    0x20(%esp),%edx
    9143:	89 14 24             	mov    %edx,(%esp)
    9146:	ff 14 85 20 04 50 00 	call   *0x500420(,%eax,4)
    914d:	83 c4 1c             	add    $0x1c,%esp
    9150:	c3                   	ret    
    9151:	90                   	nop
    9152:	90                   	nop
    9153:	90                   	nop
    9154:	90                   	nop
    9155:	90                   	nop
    9156:	90                   	nop
    9157:	90                   	nop
    9158:	90                   	nop
    9159:	90                   	nop
    915a:	90                   	nop
    915b:	90                   	nop
    915c:	90                   	nop
    915d:	90                   	nop
    915e:	90                   	nop
    915f:	90                   	nop
    9160:	c7 05 e8 04 50 00 00 	movl   $0x0,0x5004e8
    9167:	00 00 00 
    916a:	e9 0b 03 00 00       	jmp    0x947a
    916f:	90                   	nop
    9170:	c7 05 e8 04 50 00 01 	movl   $0x1,0x5004e8
    9177:	00 00 00 
    917a:	e9 fb 02 00 00       	jmp    0x947a
    917f:	90                   	nop
    9180:	c7 05 e8 04 50 00 02 	movl   $0x2,0x5004e8
    9187:	00 00 00 
    918a:	e9 eb 02 00 00       	jmp    0x947a
    918f:	90                   	nop
    9190:	c7 05 e8 04 50 00 03 	movl   $0x3,0x5004e8
    9197:	00 00 00 
    919a:	e9 db 02 00 00       	jmp    0x947a
    919f:	90                   	nop
    91a0:	c7 05 e8 04 50 00 04 	movl   $0x4,0x5004e8
    91a7:	00 00 00 
    91aa:	e9 cb 02 00 00       	jmp    0x947a
    91af:	90                   	nop
    91b0:	c7 05 e8 04 50 00 05 	movl   $0x5,0x5004e8
    91b7:	00 00 00 
    91ba:	e9 bb 02 00 00       	jmp    0x947a
    91bf:	90                   	nop
    91c0:	c7 05 e8 04 50 00 06 	movl   $0x6,0x5004e8
    91c7:	00 00 00 
    91ca:	e9 ab 02 00 00       	jmp    0x947a
    91cf:	90                   	nop
    91d0:	c7 05 e8 04 50 00 07 	movl   $0x7,0x5004e8
    91d7:	00 00 00 
    91da:	e9 9b 02 00 00       	jmp    0x947a
    91df:	90                   	nop
    91e0:	c7 05 e8 04 50 00 08 	movl   $0x8,0x5004e8
    91e7:	00 00 00 
    91ea:	e9 8b 02 00 00       	jmp    0x947a
    91ef:	90                   	nop
    91f0:	c7 05 e8 04 50 00 09 	movl   $0x9,0x5004e8
    91f7:	00 00 00 
    91fa:	e9 7b 02 00 00       	jmp    0x947a
    91ff:	90                   	nop
    9200:	c7 05 e8 04 50 00 0a 	movl   $0xa,0x5004e8
    9207:	00 00 00 
    920a:	e9 6b 02 00 00       	jmp    0x947a
    920f:	90                   	nop
    9210:	c7 05 e8 04 50 00 0b 	movl   $0xb,0x5004e8
    9217:	00 00 00 
    921a:	e9 5b 02 00 00       	jmp    0x947a
    921f:	90                   	nop
    9220:	c7 05 e8 04 50 00 0c 	movl   $0xc,0x5004e8
    9227:	00 00 00 
    922a:	e9 4b 02 00 00       	jmp    0x947a
    922f:	90                   	nop
    9230:	c7 05 e8 04 50 00 0d 	movl   $0xd,0x5004e8
    9237:	00 00 00 
    923a:	e9 3b 02 00 00       	jmp    0x947a
    923f:	90                   	nop
    9240:	c7 05 e8 04 50 00 0e 	movl   $0xe,0x5004e8
    9247:	00 00 00 
    924a:	e9 2b 02 00 00       	jmp    0x947a
    924f:	90                   	nop
    9250:	c7 05 e8 04 50 00 0f 	movl   $0xf,0x5004e8
    9257:	00 00 00 
    925a:	e9 1b 02 00 00       	jmp    0x947a
    925f:	90                   	nop
    9260:	c7 05 e8 04 50 00 10 	movl   $0x10,0x5004e8
    9267:	00 00 00 
    926a:	e9 0b 02 00 00       	jmp    0x947a
    926f:	90                   	nop
    9270:	c7 05 e8 04 50 00 11 	movl   $0x11,0x5004e8
    9277:	00 00 00 
    927a:	e9 fb 01 00 00       	jmp    0x947a
    927f:	90                   	nop
    9280:	c7 05 e8 04 50 00 12 	movl   $0x12,0x5004e8
    9287:	00 00 00 
    928a:	e9 eb 01 00 00       	jmp    0x947a
    928f:	90                   	nop
    9290:	c7 05 e8 04 50 00 13 	movl   $0x13,0x5004e8
    9297:	00 00 00 
    929a:	e9 db 01 00 00       	jmp    0x947a
    929f:	90                   	nop
    92a0:	c7 05 e8 04 50 00 14 	movl   $0x14,0x5004e8
    92a7:	00 00 00 
    92aa:	e9 cb 01 00 00       	jmp    0x947a
    92af:	90                   	nop
    92b0:	c7 05 e8 04 50 00 15 	movl   $0x15,0x5004e8
    92b7:	00 00 00 
    92ba:	e9 bb 01 00 00       	jmp    0x947a
    92bf:	90                   	nop
    92c0:	c7 05 e8 04 50 00 16 	movl   $0x16,0x5004e8
    92c7:	00 00 00 
    92ca:	e9 ab 01 00 00       	jmp    0x947a
    92cf:	90                   	nop
    92d0:	c7 05 e8 04 50 00 17 	movl   $0x17,0x5004e8
    92d7:	00 00 00 
    92da:	e9 9b 01 00 00       	jmp    0x947a
    92df:	90                   	nop
    92e0:	c7 05 e8 04 50 00 18 	movl   $0x18,0x5004e8
    92e7:	00 00 00 
    92ea:	e9 8b 01 00 00       	jmp    0x947a
    92ef:	90                   	nop
    92f0:	c7 05 e8 04 50 00 19 	movl   $0x19,0x5004e8
    92f7:	00 00 00 
    92fa:	e9 7b 01 00 00       	jmp    0x947a
    92ff:	90                   	nop
    9300:	c7 05 e8 04 50 00 1a 	movl   $0x1a,0x5004e8
    9307:	00 00 00 
    930a:	e9 6b 01 00 00       	jmp    0x947a
    930f:	90                   	nop
    9310:	c7 05 e8 04 50 00 1b 	movl   $0x1b,0x5004e8
    9317:	00 00 00 
    931a:	e9 5b 01 00 00       	jmp    0x947a
    931f:	90                   	nop
    9320:	c7 05 e8 04 50 00 1c 	movl   $0x1c,0x5004e8
    9327:	00 00 00 
    932a:	e9 4b 01 00 00       	jmp    0x947a
    932f:	90                   	nop
    9330:	c7 05 e8 04 50 00 1d 	movl   $0x1d,0x5004e8
    9337:	00 00 00 
    933a:	e9 3b 01 00 00       	jmp    0x947a
    933f:	90                   	nop
    9340:	c7 05 e8 04 50 00 1e 	movl   $0x1e,0x5004e8
    9347:	00 00 00 
    934a:	e9 2b 01 00 00       	jmp    0x947a
    934f:	90                   	nop
    9350:	c7 05 e8 04 50 00 1f 	movl   $0x1f,0x5004e8
    9357:	00 00 00 
    935a:	e9 1b 01 00 00       	jmp    0x947a
    935f:	90                   	nop
    9360:	c7 05 e8 04 50 00 20 	movl   $0x20,0x5004e8
    9367:	00 00 00 
    936a:	e9 0b 01 00 00       	jmp    0x947a
    936f:	90                   	nop
    9370:	c7 05 e8 04 50 00 21 	movl   $0x21,0x5004e8
    9377:	00 00 00 
    937a:	e9 fb 00 00 00       	jmp    0x947a
    937f:	90                   	nop
    9380:	c7 05 e8 04 50 00 22 	movl   $0x22,0x5004e8
    9387:	00 00 00 
    938a:	e9 eb 00 00 00       	jmp    0x947a
    938f:	90                   	nop
    9390:	c7 05 e8 04 50 00 23 	movl   $0x23,0x5004e8
    9397:	00 00 00 
    939a:	e9 db 00 00 00       	jmp    0x947a
    939f:	90                   	nop
    93a0:	c7 05 e8 04 50 00 24 	movl   $0x24,0x5004e8
    93a7:	00 00 00 
    93aa:	e9 cb 00 00 00       	jmp    0x947a
    93af:	90                   	nop
    93b0:	c7 05 e8 04 50 00 25 	movl   $0x25,0x5004e8
    93b7:	00 00 00 
    93ba:	e9 bb 00 00 00       	jmp    0x947a
    93bf:	90                   	nop
    93c0:	c7 05 e8 04 50 00 26 	movl   $0x26,0x5004e8
    93c7:	00 00 00 
    93ca:	e9 ab 00 00 00       	jmp    0x947a
    93cf:	90                   	nop
    93d0:	c7 05 e8 04 50 00 27 	movl   $0x27,0x5004e8
    93d7:	00 00 00 
    93da:	e9 9b 00 00 00       	jmp    0x947a
    93df:	90                   	nop
    93e0:	c7 05 e8 04 50 00 28 	movl   $0x28,0x5004e8
    93e7:	00 00 00 
    93ea:	e9 8b 00 00 00       	jmp    0x947a
    93ef:	90                   	nop
    93f0:	c7 05 e8 04 50 00 29 	movl   $0x29,0x5004e8
    93f7:	00 00 00 
    93fa:	eb 7e                	jmp    0x947a
    93fc:	8d 74 26 00          	lea    0x0(%esi,%eiz,1),%esi
    9400:	c7 05 e8 04 50 00 2a 	movl   $0x2a,0x5004e8
    9407:	00 00 00 
    940a:	eb 6e                	jmp    0x947a
    940c:	8d 74 26 00          	lea    0x0(%esi,%eiz,1),%esi
    9410:	c7 05 e8 04 50 00 2b 	movl   $0x2b,0x5004e8
    9417:	00 00 00 
    941a:	eb 5e                	jmp    0x947a
    941c:	8d 74 26 00          	lea    0x0(%esi,%eiz,1),%esi
    9420:	c7 05 e8 04 50 00 2c 	movl   $0x2c,0x5004e8
    9427:	00 00 00 
    942a:	eb 4e                	jmp    0x947a
    942c:	8d 74 26 00          	lea    0x0(%esi,%eiz,1),%esi
    9430:	c7 05 e8 04 50 00 2d 	movl   $0x2d,0x5004e8
    9437:	00 00 00 
    943a:	eb 3e                	jmp    0x947a
    943c:	8d 74 26 00          	lea    0x0(%esi,%eiz,1),%esi
    9440:	c7 05 e8 04 50 00 2e 	movl   $0x2e,0x5004e8
    9447:	00 00 00 
    944a:	eb 2e                	jmp    0x947a
    944c:	8d 74 26 00          	lea    0x0(%esi,%eiz,1),%esi
    9450:	c7 05 e8 04 50 00 2f 	movl   $0x2f,0x5004e8
    9457:	00 00 00 
    945a:	eb 1e                	jmp    0x947a
    945c:	8d 74 26 00          	lea    0x0(%esi,%eiz,1),%esi
    9460:	c7 05 e8 04 50 00 30 	movl   $0x30,0x5004e8
    9467:	00 00 00 
    946a:	eb 0e                	jmp    0x947a
    946c:	8d 74 26 00          	lea    0x0(%esi,%eiz,1),%esi
    9470:	c7 05 e8 04 50 00 31 	movl   $0x31,0x5004e8
    9477:	00 00 00 
    947a:	60                   	pusha  
    947b:	b9 20 91 00 00       	mov    $0x9120,%ecx
    9480:	ff 35 e8 04 50 00    	pushl  0x5004e8
    9486:	ff d1                	call   *%ecx
    9488:	58                   	pop    %eax
    9489:	61                   	popa   
    948a:	cf                   	iret   
    948b:	c3                   	ret    
    948c:	90                   	nop
    948d:	90                   	nop
    948e:	90                   	nop
    948f:	90                   	nop
    9490:	53                   	push   %ebx
    9491:	83 ec 58             	sub    $0x58,%esp
    9494:	e8 37 93 ff ff       	call   0x27d0
    9499:	8d 5c 24 10          	lea    0x10(%esp),%ebx
    949d:	c7 04 24 f0 b0 00 00 	movl   $0xb0f0,(%esp)
    94a4:	e8 d7 90 ff ff       	call   0x2580
    94a9:	8b 44 24 64          	mov    0x64(%esp),%eax
    94ad:	89 5c 24 08          	mov    %ebx,0x8(%esp)
    94b1:	c7 44 24 0c 00 00 00 	movl   $0x0,0xc(%esp)
    94b8:	00 
    94b9:	c7 04 24 40 02 50 00 	movl   $0x500240,(%esp)
    94c0:	89 44 24 04          	mov    %eax,0x4(%esp)
    94c4:	c7 05 40 02 50 00 10 	movl   $0x10,0x500240
    94cb:	00 00 00 
    94ce:	e8 bd 96 ff ff       	call   0x2b90
    94d3:	c6 44 04 10 00       	movb   $0x0,0x10(%esp,%eax,1)
    94d8:	89 1c 24             	mov    %ebx,(%esp)
    94db:	e8 a0 90 ff ff       	call   0x2580
    94e0:	c7 04 24 00 b1 00 00 	movl   $0xb100,(%esp)
    94e7:	e8 94 90 ff ff       	call   0x2580
    94ec:	8b 44 24 60          	mov    0x60(%esp),%eax
    94f0:	89 5c 24 08          	mov    %ebx,0x8(%esp)
    94f4:	c7 04 24 40 02 50 00 	movl   $0x500240,(%esp)
    94fb:	89 44 24 04          	mov    %eax,0x4(%esp)
    94ff:	e8 fc 98 ff ff       	call   0x2e00
    9504:	c6 44 04 10 00       	movb   $0x0,0x10(%esp,%eax,1)
    9509:	89 1c 24             	mov    %ebx,(%esp)
    950c:	e8 6f 90 ff ff       	call   0x2580
    9511:	c7 04 24 05 b1 00 00 	movl   $0xb105,(%esp)
    9518:	e8 63 90 ff ff       	call   0x2580
    951d:	8b 44 24 68          	mov    0x68(%esp),%eax
    9521:	89 5c 24 08          	mov    %ebx,0x8(%esp)
    9525:	c7 44 24 0c 00 00 00 	movl   $0x0,0xc(%esp)
    952c:	00 
    952d:	c7 04 24 40 02 50 00 	movl   $0x500240,(%esp)
    9534:	89 44 24 04          	mov    %eax,0x4(%esp)
    9538:	e8 53 96 ff ff       	call   0x2b90
    953d:	c6 44 04 10 00       	movb   $0x0,0x10(%esp,%eax,1)
    9542:	89 1c 24             	mov    %ebx,(%esp)
    9545:	e8 36 90 ff ff       	call   0x2580
    954a:	c7 04 24 0a b1 00 00 	movl   $0xb10a,(%esp)
    9551:	e8 2a 90 ff ff       	call   0x2580
    9556:	0f b6 05 44 02 50 00 	movzbl 0x500244,%eax
    955d:	0f b6 c0             	movzbl %al,%eax
    9560:	89 04 24             	mov    %eax,(%esp)
    9563:	e8 b8 93 ff ff       	call   0x2920
    9568:	c7 04 24 a7 b1 00 00 	movl   $0xb1a7,(%esp)
    956f:	e8 0c 90 ff ff       	call   0x2580
    9574:	c7 05 40 02 50 00 0a 	movl   $0xa,0x500240
    957b:	00 00 00 
    957e:	e8 4d 92 ff ff       	call   0x27d0
    9583:	c7 04 24 64 b1 00 00 	movl   $0xb164,(%esp)
    958a:	e8 f1 8f ff ff       	call   0x2580
    958f:	0f b6 05 44 02 50 00 	movzbl 0x500244,%eax
    9596:	0f b6 c0             	movzbl %al,%eax
    9599:	89 04 24             	mov    %eax,(%esp)
    959c:	e8 7f 93 ff ff       	call   0x2920
    95a1:	c7 04 24 a7 b1 00 00 	movl   $0xb1a7,(%esp)
    95a8:	e8 d3 8f ff ff       	call   0x2580
    95ad:	c7 04 24 ff ff ff ff 	movl   $0xffffffff,(%esp)
    95b4:	c7 05 40 02 50 00 0a 	movl   $0xa,0x500240
    95bb:	00 00 00 
    95be:	e8 3d 93 ff ff       	call   0x2900
    95c3:	83 c4 58             	add    $0x58,%esp
    95c6:	5b                   	pop    %ebx
    95c7:	c3                   	ret    
    95c8:	90                   	nop
    95c9:	90                   	nop
    95ca:	90                   	nop
    95cb:	90                   	nop
    95cc:	90                   	nop
    95cd:	90                   	nop
    95ce:	90                   	nop
    95cf:	90                   	nop
    95d0:	57                   	push   %edi
    95d1:	56                   	push   %esi
    95d2:	53                   	push   %ebx
    95d3:	83 ec 50             	sub    $0x50,%esp
    95d6:	8b 74 24 6c          	mov    0x6c(%esp),%esi
    95da:	89 c2                	mov    %eax,%edx
    95dc:	0f 20 d0             	mov    %cr2,%eax
    95df:	3d e0 28 00 00       	cmp    $0x28e0,%eax
    95e4:	0f 84 16 02 00 00    	je     0x9800
    95ea:	0f 20 d7             	mov    %cr2,%edi
    95ed:	8d 5c 24 10          	lea    0x10(%esp),%ebx
    95f1:	e8 da 91 ff ff       	call   0x27d0
    95f6:	c7 04 24 0c b1 00 00 	movl   $0xb10c,(%esp)
    95fd:	e8 7e 8f ff ff       	call   0x2580
    9602:	89 5c 24 08          	mov    %ebx,0x8(%esp)
    9606:	89 7c 24 04          	mov    %edi,0x4(%esp)
    960a:	c7 04 24 40 02 50 00 	movl   $0x500240,(%esp)
    9611:	e8 ea 97 ff ff       	call   0x2e00
    9616:	c6 44 04 10 00       	movb   $0x0,0x10(%esp,%eax,1)
    961b:	89 1c 24             	mov    %ebx,(%esp)
    961e:	e8 5d 8f ff ff       	call   0x2580
    9623:	c7 04 24 20 b1 00 00 	movl   $0xb120,(%esp)
    962a:	e8 51 8f ff ff       	call   0x2580
    962f:	8b 44 24 64          	mov    0x64(%esp),%eax
    9633:	c7 05 40 02 50 00 10 	movl   $0x10,0x500240
    963a:	00 00 00 
    963d:	c7 44 24 0c 00 00 00 	movl   $0x0,0xc(%esp)
    9644:	00 
    9645:	89 5c 24 08          	mov    %ebx,0x8(%esp)
    9649:	89 44 24 04          	mov    %eax,0x4(%esp)
    964d:	c7 04 24 40 02 50 00 	movl   $0x500240,(%esp)
    9654:	e8 37 95 ff ff       	call   0x2b90
    9659:	c6 44 04 10 00       	movb   $0x0,0x10(%esp,%eax,1)
    965e:	89 1c 24             	mov    %ebx,(%esp)
    9661:	e8 1a 8f ff ff       	call   0x2580
    9666:	c7 04 24 00 b1 00 00 	movl   $0xb100,(%esp)
    966d:	e8 0e 8f ff ff       	call   0x2580
    9672:	8b 44 24 60          	mov    0x60(%esp),%eax
    9676:	89 5c 24 08          	mov    %ebx,0x8(%esp)
    967a:	c7 04 24 40 02 50 00 	movl   $0x500240,(%esp)
    9681:	89 44 24 04          	mov    %eax,0x4(%esp)
    9685:	e8 76 97 ff ff       	call   0x2e00
    968a:	c6 44 04 10 00       	movb   $0x0,0x10(%esp,%eax,1)
    968f:	89 1c 24             	mov    %ebx,(%esp)
    9692:	e8 e9 8e ff ff       	call   0x2580
    9697:	c7 04 24 05 b1 00 00 	movl   $0xb105,(%esp)
    969e:	e8 dd 8e ff ff       	call   0x2580
    96a3:	8b 44 24 68          	mov    0x68(%esp),%eax
    96a7:	c7 44 24 0c 00 00 00 	movl   $0x0,0xc(%esp)
    96ae:	00 
    96af:	89 5c 24 08          	mov    %ebx,0x8(%esp)
    96b3:	c7 04 24 40 02 50 00 	movl   $0x500240,(%esp)
    96ba:	89 44 24 04          	mov    %eax,0x4(%esp)
    96be:	e8 cd 94 ff ff       	call   0x2b90
    96c3:	c6 44 04 10 00       	movb   $0x0,0x10(%esp,%eax,1)
    96c8:	89 1c 24             	mov    %ebx,(%esp)
    96cb:	e8 b0 8e ff ff       	call   0x2580
    96d0:	c7 04 24 26 b1 00 00 	movl   $0xb126,(%esp)
    96d7:	e8 a4 8e ff ff       	call   0x2580
    96dc:	f7 c6 01 00 00 00    	test   $0x1,%esi
    96e2:	0f 85 f8 00 00 00    	jne    0x97e0
    96e8:	f7 c6 02 00 00 00    	test   $0x2,%esi
    96ee:	0f 85 cc 00 00 00    	jne    0x97c0
    96f4:	f7 c6 04 00 00 00    	test   $0x4,%esi
    96fa:	0f 85 a0 00 00 00    	jne    0x97a0
    9700:	83 e6 08             	and    $0x8,%esi
    9703:	74 11                	je     0x9716
    9705:	e8 c6 90 ff ff       	call   0x27d0
    970a:	c7 04 24 32 b1 00 00 	movl   $0xb132,(%esp)
    9711:	e8 6a 8e ff ff       	call   0x2580
    9716:	e8 b5 90 ff ff       	call   0x27d0
    971b:	c7 04 24 0a b1 00 00 	movl   $0xb10a,(%esp)
    9722:	e8 59 8e ff ff       	call   0x2580
    9727:	0f b6 05 44 02 50 00 	movzbl 0x500244,%eax
    972e:	0f b6 c0             	movzbl %al,%eax
    9731:	89 04 24             	mov    %eax,(%esp)
    9734:	e8 e7 91 ff ff       	call   0x2920
    9739:	c7 04 24 a7 b1 00 00 	movl   $0xb1a7,(%esp)
    9740:	e8 3b 8e ff ff       	call   0x2580
    9745:	c7 05 40 02 50 00 0a 	movl   $0xa,0x500240
    974c:	00 00 00 
    974f:	e8 7c 90 ff ff       	call   0x27d0
    9754:	c7 04 24 64 b1 00 00 	movl   $0xb164,(%esp)
    975b:	e8 20 8e ff ff       	call   0x2580
    9760:	0f b6 05 44 02 50 00 	movzbl 0x500244,%eax
    9767:	0f b6 c0             	movzbl %al,%eax
    976a:	89 04 24             	mov    %eax,(%esp)
    976d:	e8 ae 91 ff ff       	call   0x2920
    9772:	c7 04 24 a7 b1 00 00 	movl   $0xb1a7,(%esp)
    9779:	e8 02 8e ff ff       	call   0x2580
    977e:	c7 04 24 ff ff ff ff 	movl   $0xffffffff,(%esp)
    9785:	c7 05 40 02 50 00 0a 	movl   $0xa,0x500240
    978c:	00 00 00 
    978f:	e8 6c 91 ff ff       	call   0x2900
    9794:	83 c4 50             	add    $0x50,%esp
    9797:	5b                   	pop    %ebx
    9798:	5e                   	pop    %esi
    9799:	5f                   	pop    %edi
    979a:	c3                   	ret    
    979b:	90                   	nop
    979c:	8d 74 26 00          	lea    0x0(%esi,%eiz,1),%esi
    97a0:	e8 2b 90 ff ff       	call   0x27d0
    97a5:	c7 04 24 30 b1 00 00 	movl   $0xb130,(%esp)
    97ac:	e8 cf 8d ff ff       	call   0x2580
    97b1:	e9 4a ff ff ff       	jmp    0x9700
    97b6:	8d 76 00             	lea    0x0(%esi),%esi
    97b9:	8d bc 27 00 00 00 00 	lea    0x0(%edi,%eiz,1),%edi
    97c0:	e8 0b 90 ff ff       	call   0x27d0
    97c5:	c7 04 24 2e b1 00 00 	movl   $0xb12e,(%esp)
    97cc:	e8 af 8d ff ff       	call   0x2580
    97d1:	e9 1e ff ff ff       	jmp    0x96f4
    97d6:	8d 76 00             	lea    0x0(%esi),%esi
    97d9:	8d bc 27 00 00 00 00 	lea    0x0(%edi,%eiz,1),%edi
    97e0:	e8 eb 8f ff ff       	call   0x27d0
    97e5:	c7 04 24 2c b1 00 00 	movl   $0xb12c,(%esp)
    97ec:	e8 8f 8d ff ff       	call   0x2580
    97f1:	e9 f2 fe ff ff       	jmp    0x96e8
    97f6:	8d 76 00             	lea    0x0(%esi),%esi
    97f9:	8d bc 27 00 00 00 00 	lea    0x0(%edi,%eiz,1),%edi
    9800:	0f 20 d0             	mov    %cr2,%eax
    9803:	89 14 24             	mov    %edx,(%esp)
    9806:	e8 f5 90 ff ff       	call   0x2900
    980b:	e9 da fd ff ff       	jmp    0x95ea
    9810:	56                   	push   %esi
    9811:	53                   	push   %ebx
    9812:	83 ec 54             	sub    $0x54,%esp
    9815:	8b 44 24 60          	mov    0x60(%esp),%eax
    9819:	8d 5c 24 10          	lea    0x10(%esp),%ebx
    981d:	8b 30                	mov    (%eax),%esi
    981f:	e8 ac 8f ff ff       	call   0x27d0
    9824:	c7 04 24 34 b1 00 00 	movl   $0xb134,(%esp)
    982b:	e8 50 8d ff ff       	call   0x2580
    9830:	89 5c 24 08          	mov    %ebx,0x8(%esp)
    9834:	89 74 24 04          	mov    %esi,0x4(%esp)
    9838:	c7 44 24 0c 00 00 00 	movl   $0x0,0xc(%esp)
    983f:	00 
    9840:	c7 04 24 40 02 50 00 	movl   $0x500240,(%esp)
    9847:	e8 44 93 ff ff       	call   0x2b90
    984c:	c6 44 04 10 00       	movb   $0x0,0x10(%esp,%eax,1)
    9851:	89 1c 24             	mov    %ebx,(%esp)
    9854:	e8 27 8d ff ff       	call   0x2580
    9859:	c7 04 24 0a b1 00 00 	movl   $0xb10a,(%esp)
    9860:	e8 1b 8d ff ff       	call   0x2580
    9865:	0f b6 05 44 02 50 00 	movzbl 0x500244,%eax
    986c:	0f b6 c0             	movzbl %al,%eax
    986f:	89 04 24             	mov    %eax,(%esp)
    9872:	e8 a9 90 ff ff       	call   0x2920
    9877:	c7 04 24 a7 b1 00 00 	movl   $0xb1a7,(%esp)
    987e:	e8 fd 8c ff ff       	call   0x2580
    9883:	c7 05 40 02 50 00 0a 	movl   $0xa,0x500240
    988a:	00 00 00 
    988d:	83 c4 54             	add    $0x54,%esp
    9890:	5b                   	pop    %ebx
    9891:	5e                   	pop    %esi
    9892:	c3                   	ret    
    9893:	90                   	nop
    9894:	90                   	nop
    9895:	90                   	nop
    9896:	90                   	nop
    9897:	90                   	nop
    9898:	90                   	nop
    9899:	90                   	nop
    989a:	90                   	nop
    989b:	90                   	nop
    989c:	90                   	nop
    989d:	90                   	nop
    989e:	90                   	nop
    989f:	90                   	nop
    98a0:	53                   	push   %ebx
    98a1:	83 ec 58             	sub    $0x58,%esp
    98a4:	e8 27 8f ff ff       	call   0x27d0
    98a9:	8d 5c 24 10          	lea    0x10(%esp),%ebx
    98ad:	c7 04 24 53 b1 00 00 	movl   $0xb153,(%esp)
    98b4:	e8 c7 8c ff ff       	call   0x2580
    98b9:	8b 44 24 64          	mov    0x64(%esp),%eax
    98bd:	89 5c 24 08          	mov    %ebx,0x8(%esp)
    98c1:	c7 44 24 0c 00 00 00 	movl   $0x0,0xc(%esp)
    98c8:	00 
    98c9:	c7 04 24 40 02 50 00 	movl   $0x500240,(%esp)
    98d0:	89 44 24 04          	mov    %eax,0x4(%esp)
    98d4:	c7 05 40 02 50 00 10 	movl   $0x10,0x500240
    98db:	00 00 00 
    98de:	e8 ad 92 ff ff       	call   0x2b90
    98e3:	c6 44 04 10 00       	movb   $0x0,0x10(%esp,%eax,1)
    98e8:	89 1c 24             	mov    %ebx,(%esp)
    98eb:	e8 90 8c ff ff       	call   0x2580
    98f0:	c7 04 24 00 b1 00 00 	movl   $0xb100,(%esp)
    98f7:	e8 84 8c ff ff       	call   0x2580
    98fc:	8b 44 24 60          	mov    0x60(%esp),%eax
    9900:	89 5c 24 08          	mov    %ebx,0x8(%esp)
    9904:	c7 04 24 40 02 50 00 	movl   $0x500240,(%esp)
    990b:	89 44 24 04          	mov    %eax,0x4(%esp)
    990f:	e8 ec 94 ff ff       	call   0x2e00
    9914:	c6 44 04 10 00       	movb   $0x0,0x10(%esp,%eax,1)
    9919:	89 1c 24             	mov    %ebx,(%esp)
    991c:	e8 5f 8c ff ff       	call   0x2580
    9921:	c7 04 24 05 b1 00 00 	movl   $0xb105,(%esp)
    9928:	e8 53 8c ff ff       	call   0x2580
    992d:	8b 44 24 68          	mov    0x68(%esp),%eax
    9931:	89 5c 24 08          	mov    %ebx,0x8(%esp)
    9935:	c7 44 24 0c 00 00 00 	movl   $0x0,0xc(%esp)
    993c:	00 
    993d:	c7 04 24 40 02 50 00 	movl   $0x500240,(%esp)
    9944:	89 44 24 04          	mov    %eax,0x4(%esp)
    9948:	e8 43 92 ff ff       	call   0x2b90
    994d:	c6 44 04 10 00       	movb   $0x0,0x10(%esp,%eax,1)
    9952:	89 1c 24             	mov    %ebx,(%esp)
    9955:	e8 26 8c ff ff       	call   0x2580
    995a:	c7 04 24 0a b1 00 00 	movl   $0xb10a,(%esp)
    9961:	e8 1a 8c ff ff       	call   0x2580
    9966:	0f b6 05 44 02 50 00 	movzbl 0x500244,%eax
    996d:	0f b6 c0             	movzbl %al,%eax
    9970:	89 04 24             	mov    %eax,(%esp)
    9973:	e8 a8 8f ff ff       	call   0x2920
    9978:	c7 04 24 a7 b1 00 00 	movl   $0xb1a7,(%esp)
    997f:	e8 fc 8b ff ff       	call   0x2580
    9984:	c7 05 40 02 50 00 0a 	movl   $0xa,0x500240
    998b:	00 00 00 
    998e:	e8 3d 8e ff ff       	call   0x27d0
    9993:	c7 04 24 64 b1 00 00 	movl   $0xb164,(%esp)
    999a:	e8 e1 8b ff ff       	call   0x2580
    999f:	0f b6 05 44 02 50 00 	movzbl 0x500244,%eax
    99a6:	0f b6 c0             	movzbl %al,%eax
    99a9:	89 04 24             	mov    %eax,(%esp)
    99ac:	e8 6f 8f ff ff       	call   0x2920
    99b1:	c7 04 24 a7 b1 00 00 	movl   $0xb1a7,(%esp)
    99b8:	e8 c3 8b ff ff       	call   0x2580
    99bd:	c7 04 24 ff ff ff ff 	movl   $0xffffffff,(%esp)
    99c4:	c7 05 40 02 50 00 0a 	movl   $0xa,0x500240
    99cb:	00 00 00 
    99ce:	e8 2d 8f ff ff       	call   0x2900
    99d3:	83 c4 58             	add    $0x58,%esp
    99d6:	5b                   	pop    %ebx
    99d7:	c3                   	ret    
    99d8:	90                   	nop
    99d9:	90                   	nop
    99da:	90                   	nop
    99db:	90                   	nop
    99dc:	90                   	nop
    99dd:	90                   	nop
    99de:	90                   	nop
    99df:	90                   	nop
    99e0:	55                   	push   %ebp
    99e1:	b9 61 00 00 00       	mov    $0x61,%ecx
    99e6:	89 e5                	mov    %esp,%ebp
    99e8:	53                   	push   %ebx
    99e9:	31 db                	xor    %ebx,%ebx
    99eb:	90                   	nop
    99ec:	8d 74 26 00          	lea    0x0(%esi,%eiz,1),%esi
    99f0:	ba 64 00 00 00       	mov    $0x64,%edx
    99f5:	ec                   	in     (%dx),%al
    99f6:	a8 02                	test   $0x2,%al
    99f8:	75 76                	jne    0x9a70
    99fa:	31 c9                	xor    %ecx,%ecx
    99fc:	ba 64 00 00 00       	mov    $0x64,%edx
    9a01:	ec                   	in     (%dx),%al
    9a02:	a8 02                	test   $0x2,%al
    9a04:	74 0b                	je     0x9a11
    9a06:	83 c1 01             	add    $0x1,%ecx
    9a09:	81 f9 2c 01 00 00    	cmp    $0x12c,%ecx
    9a0f:	75 f0                	jne    0x9a01
    9a11:	ba 64 00 00 00       	mov    $0x64,%edx
    9a16:	ec                   	in     (%dx),%al
    9a17:	a8 02                	test   $0x2,%al
    9a19:	0f 85 f1 00 00 00    	jne    0x9b10
    9a1f:	b8 fe ff ff ff       	mov    $0xfffffffe,%eax
    9a24:	ba 64 00 00 00       	mov    $0x64,%edx
    9a29:	ee                   	out    %al,(%dx)
    9a2a:	31 c9                	xor    %ecx,%ecx
    9a2c:	ec                   	in     (%dx),%al
    9a2d:	a8 01                	test   $0x1,%al
    9a2f:	75 0b                	jne    0x9a3c
    9a31:	83 c1 01             	add    $0x1,%ecx
    9a34:	81 f9 2c 01 00 00    	cmp    $0x12c,%ecx
    9a3a:	75 f0                	jne    0x9a2c
    9a3c:	ba 64 00 00 00       	mov    $0x64,%edx
    9a41:	ec                   	in     (%dx),%al
    9a42:	a8 01                	test   $0x1,%al
    9a44:	0f 84 c6 00 00 00    	je     0x9b10
    9a4a:	ba 60 00 00 00       	mov    $0x60,%edx
    9a4f:	ec                   	in     (%dx),%al
    9a50:	31 db                	xor    %ebx,%ebx
    9a52:	b9 61 00 00 00       	mov    $0x61,%ecx
    9a57:	89 f6                	mov    %esi,%esi
    9a59:	8d bc 27 00 00 00 00 	lea    0x0(%edi,%eiz,1),%edi
    9a60:	ba 64 00 00 00       	mov    $0x64,%edx
    9a65:	ec                   	in     (%dx),%al
    9a66:	a8 02                	test   $0x2,%al
    9a68:	75 56                	jne    0x9ac0
    9a6a:	5b                   	pop    %ebx
    9a6b:	5d                   	pop    %ebp
    9a6c:	c3                   	ret    
    9a6d:	8d 76 00             	lea    0x0(%esi),%esi
    9a70:	89 ca                	mov    %ecx,%edx
    9a72:	ec                   	in     (%dx),%al
    9a73:	25 fc 00 00 00       	and    $0xfc,%eax
    9a78:	ee                   	out    %al,(%dx)
    9a79:	b8 b0 ff ff ff       	mov    $0xffffffb0,%eax
    9a7e:	ba 43 00 00 00       	mov    $0x43,%edx
    9a83:	ee                   	out    %al,(%dx)
    9a84:	b8 a9 ff ff ff       	mov    $0xffffffa9,%eax
    9a89:	b2 42                	mov    $0x42,%dl
    9a8b:	ee                   	out    %al,(%dx)
    9a8c:	b8 04 00 00 00       	mov    $0x4,%eax
    9a91:	ee                   	out    %al,(%dx)
    9a92:	89 ca                	mov    %ecx,%edx
    9a94:	ec                   	in     (%dx),%al
    9a95:	83 c8 01             	or     $0x1,%eax
    9a98:	ee                   	out    %al,(%dx)
    9a99:	8d b4 26 00 00 00 00 	lea    0x0(%esi,%eiz,1),%esi
    9aa0:	89 ca                	mov    %ecx,%edx
    9aa2:	ec                   	in     (%dx),%al
    9aa3:	a8 20                	test   $0x20,%al
    9aa5:	74 f9                	je     0x9aa0
    9aa7:	83 c3 01             	add    $0x1,%ebx
    9aaa:	81 fb 2c 01 00 00    	cmp    $0x12c,%ebx
    9ab0:	0f 84 44 ff ff ff    	je     0x99fa
    9ab6:	e9 35 ff ff ff       	jmp    0x99f0
    9abb:	90                   	nop
    9abc:	8d 74 26 00          	lea    0x0(%esi,%eiz,1),%esi
    9ac0:	89 ca                	mov    %ecx,%edx
    9ac2:	ec                   	in     (%dx),%al
    9ac3:	25 fc 00 00 00       	and    $0xfc,%eax
    9ac8:	ee                   	out    %al,(%dx)
    9ac9:	b8 b0 ff ff ff       	mov    $0xffffffb0,%eax
    9ace:	ba 43 00 00 00       	mov    $0x43,%edx
    9ad3:	ee                   	out    %al,(%dx)
    9ad4:	b8 a9 ff ff ff       	mov    $0xffffffa9,%eax
    9ad9:	b2 42                	mov    $0x42,%dl
    9adb:	ee                   	out    %al,(%dx)
    9adc:	b8 04 00 00 00       	mov    $0x4,%eax
    9ae1:	ee                   	out    %al,(%dx)
    9ae2:	89 ca                	mov    %ecx,%edx
    9ae4:	ec                   	in     (%dx),%al
    9ae5:	83 c8 01             	or     $0x1,%eax
    9ae8:	ee                   	out    %al,(%dx)
    9ae9:	8d b4 26 00 00 00 00 	lea    0x0(%esi,%eiz,1),%esi
    9af0:	89 ca                	mov    %ecx,%edx
    9af2:	ec                   	in     (%dx),%al
    9af3:	a8 20                	test   $0x20,%al
    9af5:	74 f9                	je     0x9af0
    9af7:	83 c3 01             	add    $0x1,%ebx
    9afa:	81 fb 2c 01 00 00    	cmp    $0x12c,%ebx
    9b00:	0f 85 5a ff ff ff    	jne    0x9a60
    9b06:	5b                   	pop    %ebx
    9b07:	5d                   	pop    %ebp
    9b08:	c3                   	ret    
    9b09:	8d b4 26 00 00 00 00 	lea    0x0(%esi,%eiz,1),%esi
    9b10:	31 db                	xor    %ebx,%ebx
    9b12:	e9 3b ff ff ff       	jmp    0x9a52
    9b17:	90                   	nop
    9b18:	90                   	nop
    9b19:	90                   	nop
    9b1a:	90                   	nop
    9b1b:	90                   	nop
    9b1c:	90                   	nop
    9b1d:	90                   	nop
    9b1e:	90                   	nop
    9b1f:	90                   	nop
    9b20:	55                   	push   %ebp
    9b21:	89 e5                	mov    %esp,%ebp
    9b23:	57                   	push   %edi
    9b24:	56                   	push   %esi
    9b25:	53                   	push   %ebx
    9b26:	83 ec 08             	sub    $0x8,%esp
    9b29:	fa                   	cli    
    9b2a:	bb d4 03 00 00       	mov    $0x3d4,%ebx
    9b2f:	b8 0f 00 00 00       	mov    $0xf,%eax
    9b34:	89 da                	mov    %ebx,%edx
    9b36:	ee                   	out    %al,(%dx)
    9b37:	b9 d5 03 00 00       	mov    $0x3d5,%ecx
    9b3c:	b8 c9 ff ff ff       	mov    $0xffffffc9,%eax
    9b41:	89 ca                	mov    %ecx,%edx
    9b43:	ee                   	out    %al,(%dx)
    9b44:	b8 0e 00 00 00       	mov    $0xe,%eax
    9b49:	89 da                	mov    %ebx,%edx
    9b4b:	ee                   	out    %al,(%dx)
    9b4c:	b8 07 00 00 00       	mov    $0x7,%eax
    9b51:	89 ca                	mov    %ecx,%edx
    9b53:	ee                   	out    %al,(%dx)
    9b54:	8b 0d 14 04 50 00    	mov    0x500414,%ecx
    9b5a:	bb 50 00 00 00       	mov    $0x50,%ebx
    9b5f:	bf d4 03 00 00       	mov    $0x3d4,%edi
    9b64:	c7 45 f0 90 b1 00 00 	movl   $0xb190,-0x10(%ebp)
    9b6b:	90                   	nop
    9b6c:	8d 74 26 00          	lea    0x0(%esi,%eiz,1),%esi
    9b70:	83 45 f0 01          	addl   $0x1,-0x10(%ebp)
    9b74:	89 fa                	mov    %edi,%edx
    9b76:	b8 0f 00 00 00       	mov    $0xf,%eax
    9b7b:	ee                   	out    %al,(%dx)
    9b7c:	be d5 03 00 00       	mov    $0x3d5,%esi
    9b81:	89 f2                	mov    %esi,%edx
    9b83:	ec                   	in     (%dx),%al
    9b84:	0f b6 c0             	movzbl %al,%eax
    9b87:	89 fa                	mov    %edi,%edx
    9b89:	89 45 ec             	mov    %eax,-0x14(%ebp)
    9b8c:	b8 0e 00 00 00       	mov    $0xe,%eax
    9b91:	ee                   	out    %al,(%dx)
    9b92:	89 f2                	mov    %esi,%edx
    9b94:	ec                   	in     (%dx),%al
    9b95:	0f b6 f0             	movzbl %al,%esi
    9b98:	c1 e6 08             	shl    $0x8,%esi
    9b9b:	0b 75 ec             	or     -0x14(%ebp),%esi
    9b9e:	80 fb 09             	cmp    $0x9,%bl
    9ba1:	0f 84 b2 00 00 00    	je     0x9c59
    9ba7:	80 fb 0a             	cmp    $0xa,%bl
    9baa:	0f 84 8f 00 00 00    	je     0x9c3f
    9bb0:	66 0f be db          	movsbw %bl,%bx
    9bb4:	80 cf 07             	or     $0x7,%bh
    9bb7:	66 89 1c 71          	mov    %bx,(%ecx,%esi,2)
    9bbb:	8d 5e 01             	lea    0x1(%esi),%ebx
    9bbe:	81 fb cf 07 00 00    	cmp    $0x7cf,%ebx
    9bc4:	76 3d                	jbe    0x9c03
    9bc6:	31 c0                	xor    %eax,%eax
    9bc8:	90                   	nop
    9bc9:	8d b4 26 00 00 00 00 	lea    0x0(%esi,%eiz,1),%esi
    9bd0:	0f b7 94 41 a0 00 00 	movzwl 0xa0(%ecx,%eax,2),%edx
    9bd7:	00 
    9bd8:	66 89 14 41          	mov    %dx,(%ecx,%eax,2)
    9bdc:	83 c0 01             	add    $0x1,%eax
    9bdf:	3d 80 07 00 00       	cmp    $0x780,%eax
    9be4:	75 ea                	jne    0x9bd0
    9be6:	8d 76 00             	lea    0x0(%esi),%esi
    9be9:	8d bc 27 00 00 00 00 	lea    0x0(%edi,%eiz,1),%edi
    9bf0:	66 c7 04 41 20 07    	movw   $0x720,(%ecx,%eax,2)
    9bf6:	83 c0 01             	add    $0x1,%eax
    9bf9:	3d d0 07 00 00       	cmp    $0x7d0,%eax
    9bfe:	75 f0                	jne    0x9bf0
    9c00:	83 eb 50             	sub    $0x50,%ebx
    9c03:	89 fa                	mov    %edi,%edx
    9c05:	b8 0f 00 00 00       	mov    $0xf,%eax
    9c0a:	ee                   	out    %al,(%dx)
    9c0b:	be d5 03 00 00       	mov    $0x3d5,%esi
    9c10:	89 d8                	mov    %ebx,%eax
    9c12:	89 f2                	mov    %esi,%edx
    9c14:	ee                   	out    %al,(%dx)
    9c15:	b8 0e 00 00 00       	mov    $0xe,%eax
    9c1a:	89 fa                	mov    %edi,%edx
    9c1c:	ee                   	out    %al,(%dx)
    9c1d:	89 d8                	mov    %ebx,%eax
    9c1f:	89 f2                	mov    %esi,%edx
    9c21:	c1 f8 08             	sar    $0x8,%eax
    9c24:	ee                   	out    %al,(%dx)
    9c25:	8b 45 f0             	mov    -0x10(%ebp),%eax
    9c28:	0f b6 18             	movzbl (%eax),%ebx
    9c2b:	84 db                	test   %bl,%bl
    9c2d:	0f 85 3d ff ff ff    	jne    0x9b70
    9c33:	83 c4 08             	add    $0x8,%esp
    9c36:	5b                   	pop    %ebx
    9c37:	5e                   	pop    %esi
    9c38:	5f                   	pop    %edi
    9c39:	5d                   	pop    %ebp
    9c3a:	e9 a1 fd ff ff       	jmp    0x99e0
    9c3f:	83 c6 50             	add    $0x50,%esi
    9c42:	ba cd cc cc cc       	mov    $0xcccccccd,%edx
    9c47:	89 f0                	mov    %esi,%eax
    9c49:	f7 e2                	mul    %edx
    9c4b:	c1 ea 06             	shr    $0x6,%edx
    9c4e:	8d 1c 92             	lea    (%edx,%edx,4),%ebx
    9c51:	c1 e3 04             	shl    $0x4,%ebx
    9c54:	e9 65 ff ff ff       	jmp    0x9bbe
    9c59:	8d 5e 08             	lea    0x8(%esi),%ebx
    9c5c:	81 e3 f8 ff 01 00    	and    $0x1fff8,%ebx
    9c62:	e9 57 ff ff ff       	jmp    0x9bbe
    9c67:	90                   	nop
    9c68:	90                   	nop
    9c69:	90                   	nop
    9c6a:	90                   	nop
    9c6b:	90                   	nop
    9c6c:	90                   	nop
    9c6d:	90                   	nop
    9c6e:	90                   	nop
    9c6f:	90                   	nop
    9c70:	55                   	push   %ebp
    9c71:	89 e5                	mov    %esp,%ebp
    9c73:	5d                   	pop    %ebp
    9c74:	c3                   	ret    
    9c75:	90                   	nop
    9c76:	90                   	nop
    9c77:	90                   	nop
    9c78:	90                   	nop
    9c79:	90                   	nop
    9c7a:	90                   	nop
    9c7b:	90                   	nop
    9c7c:	90                   	nop
    9c7d:	90                   	nop
    9c7e:	90                   	nop
    9c7f:	90                   	nop
    9c80:	55                   	push   %ebp
    9c81:	31 c0                	xor    %eax,%eax
    9c83:	89 e5                	mov    %esp,%ebp
    9c85:	57                   	push   %edi
    9c86:	56                   	push   %esi
    9c87:	be 70 00 00 00       	mov    $0x70,%esi
    9c8c:	53                   	push   %ebx
    9c8d:	89 f2                	mov    %esi,%edx
    9c8f:	83 ec 14             	sub    $0x14,%esp
    9c92:	8b 4d 08             	mov    0x8(%ebp),%ecx
    9c95:	ee                   	out    %al,(%dx)
    9c96:	bb 71 00 00 00       	mov    $0x71,%ebx
    9c9b:	89 da                	mov    %ebx,%edx
    9c9d:	ec                   	in     (%dx),%al
    9c9e:	0f b6 c0             	movzbl %al,%eax
    9ca1:	89 c2                	mov    %eax,%edx
    9ca3:	83 e0 0f             	and    $0xf,%eax
    9ca6:	c1 fa 04             	sar    $0x4,%edx
    9ca9:	8d 14 92             	lea    (%edx,%edx,4),%edx
    9cac:	8d 04 50             	lea    (%eax,%edx,2),%eax
    9caf:	89 f2                	mov    %esi,%edx
    9cb1:	0f b6 c0             	movzbl %al,%eax
    9cb4:	89 45 e0             	mov    %eax,-0x20(%ebp)
    9cb7:	b8 02 00 00 00       	mov    $0x2,%eax
    9cbc:	ee                   	out    %al,(%dx)
    9cbd:	89 da                	mov    %ebx,%edx
    9cbf:	ec                   	in     (%dx),%al
    9cc0:	0f b6 c0             	movzbl %al,%eax
    9cc3:	89 f2                	mov    %esi,%edx
    9cc5:	89 45 e4             	mov    %eax,-0x1c(%ebp)
    9cc8:	b8 04 00 00 00       	mov    $0x4,%eax
    9ccd:	ee                   	out    %al,(%dx)
    9cce:	89 da                	mov    %ebx,%edx
    9cd0:	ec                   	in     (%dx),%al
    9cd1:	0f b6 c0             	movzbl %al,%eax
    9cd4:	89 f2                	mov    %esi,%edx
    9cd6:	89 45 e8             	mov    %eax,-0x18(%ebp)
    9cd9:	b8 07 00 00 00       	mov    $0x7,%eax
    9cde:	ee                   	out    %al,(%dx)
    9cdf:	89 da                	mov    %ebx,%edx
    9ce1:	ec                   	in     (%dx),%al
    9ce2:	0f b6 c0             	movzbl %al,%eax
    9ce5:	89 f2                	mov    %esi,%edx
    9ce7:	89 45 ec             	mov    %eax,-0x14(%ebp)
    9cea:	b8 08 00 00 00       	mov    $0x8,%eax
    9cef:	ee                   	out    %al,(%dx)
    9cf0:	89 da                	mov    %ebx,%edx
    9cf2:	ec                   	in     (%dx),%al
    9cf3:	0f b6 c0             	movzbl %al,%eax
    9cf6:	89 f2                	mov    %esi,%edx
    9cf8:	89 45 f0             	mov    %eax,-0x10(%ebp)
    9cfb:	b8 09 00 00 00       	mov    $0x9,%eax
    9d00:	ee                   	out    %al,(%dx)
    9d01:	89 da                	mov    %ebx,%edx
    9d03:	ec                   	in     (%dx),%al
    9d04:	0f b6 c0             	movzbl %al,%eax
    9d07:	89 c2                	mov    %eax,%edx
    9d09:	83 e0 0f             	and    $0xf,%eax
    9d0c:	c1 fa 04             	sar    $0x4,%edx
    9d0f:	8d 14 92             	lea    (%edx,%edx,4),%edx
    9d12:	8d 3c 50             	lea    (%eax,%edx,2),%edi
    9d15:	8b 45 f0             	mov    -0x10(%ebp),%eax
    9d18:	8b 55 f0             	mov    -0x10(%ebp),%edx
    9d1b:	81 e7 ff 00 00 00    	and    $0xff,%edi
    9d21:	89 39                	mov    %edi,(%ecx)
    9d23:	c1 f8 04             	sar    $0x4,%eax
    9d26:	83 e2 0f             	and    $0xf,%edx
    9d29:	8d 04 80             	lea    (%eax,%eax,4),%eax
    9d2c:	8d 04 42             	lea    (%edx,%eax,2),%eax
    9d2f:	8b 55 ec             	mov    -0x14(%ebp),%edx
    9d32:	0f b6 c0             	movzbl %al,%eax
    9d35:	89 41 04             	mov    %eax,0x4(%ecx)
    9d38:	8b 45 ec             	mov    -0x14(%ebp),%eax
    9d3b:	83 e2 0f             	and    $0xf,%edx
    9d3e:	c1 f8 04             	sar    $0x4,%eax
    9d41:	8d 04 80             	lea    (%eax,%eax,4),%eax
    9d44:	8d 04 42             	lea    (%edx,%eax,2),%eax
    9d47:	0f b6 c0             	movzbl %al,%eax
    9d4a:	89 41 08             	mov    %eax,0x8(%ecx)
    9d4d:	8b 45 e8             	mov    -0x18(%ebp),%eax
    9d50:	c1 f8 04             	sar    $0x4,%eax
    9d53:	8d 14 80             	lea    (%eax,%eax,4),%edx
    9d56:	8b 45 e8             	mov    -0x18(%ebp),%eax
    9d59:	83 e0 0f             	and    $0xf,%eax
    9d5c:	8d 04 50             	lea    (%eax,%edx,2),%eax
    9d5f:	0f b6 c0             	movzbl %al,%eax
    9d62:	89 41 0c             	mov    %eax,0xc(%ecx)
    9d65:	8b 45 e4             	mov    -0x1c(%ebp),%eax
    9d68:	c1 f8 04             	sar    $0x4,%eax
    9d6b:	8d 14 80             	lea    (%eax,%eax,4),%edx
    9d6e:	8b 45 e4             	mov    -0x1c(%ebp),%eax
    9d71:	83 e0 0f             	and    $0xf,%eax
    9d74:	8d 04 50             	lea    (%eax,%edx,2),%eax
    9d77:	89 f2                	mov    %esi,%edx
    9d79:	0f b6 c0             	movzbl %al,%eax
    9d7c:	89 41 10             	mov    %eax,0x10(%ecx)
    9d7f:	8b 45 e0             	mov    -0x20(%ebp),%eax
    9d82:	89 41 14             	mov    %eax,0x14(%ecx)
    9d85:	31 c0                	xor    %eax,%eax
    9d87:	ee                   	out    %al,(%dx)
    9d88:	89 da                	mov    %ebx,%edx
    9d8a:	ec                   	in     (%dx),%al
    9d8b:	0f b6 c0             	movzbl %al,%eax
    9d8e:	89 c2                	mov    %eax,%edx
    9d90:	83 e0 0f             	and    $0xf,%eax
    9d93:	c1 fa 04             	sar    $0x4,%edx
    9d96:	8d 14 92             	lea    (%edx,%edx,4),%edx
    9d99:	8d 04 50             	lea    (%eax,%edx,2),%eax
    9d9c:	0f b6 c0             	movzbl %al,%eax
    9d9f:	39 45 e0             	cmp    %eax,-0x20(%ebp)
    9da2:	0f 84 ee 00 00 00    	je     0x9e96
    9da8:	31 c0                	xor    %eax,%eax
    9daa:	89 f2                	mov    %esi,%edx
    9dac:	ee                   	out    %al,(%dx)
    9dad:	89 da                	mov    %ebx,%edx
    9daf:	ec                   	in     (%dx),%al
    9db0:	0f b6 c0             	movzbl %al,%eax
    9db3:	89 f2                	mov    %esi,%edx
    9db5:	89 45 e0             	mov    %eax,-0x20(%ebp)
    9db8:	b8 02 00 00 00       	mov    $0x2,%eax
    9dbd:	ee                   	out    %al,(%dx)
    9dbe:	89 da                	mov    %ebx,%edx
    9dc0:	ec                   	in     (%dx),%al
    9dc1:	0f b6 c0             	movzbl %al,%eax
    9dc4:	89 f2                	mov    %esi,%edx
    9dc6:	89 45 e4             	mov    %eax,-0x1c(%ebp)
    9dc9:	b8 04 00 00 00       	mov    $0x4,%eax
    9dce:	ee                   	out    %al,(%dx)
    9dcf:	89 da                	mov    %ebx,%edx
    9dd1:	ec                   	in     (%dx),%al
    9dd2:	0f b6 c0             	movzbl %al,%eax
    9dd5:	89 f2                	mov    %esi,%edx
    9dd7:	89 45 e8             	mov    %eax,-0x18(%ebp)
    9dda:	b8 07 00 00 00       	mov    $0x7,%eax
    9ddf:	ee                   	out    %al,(%dx)
    9de0:	89 da                	mov    %ebx,%edx
    9de2:	ec                   	in     (%dx),%al
    9de3:	0f b6 c0             	movzbl %al,%eax
    9de6:	89 f2                	mov    %esi,%edx
    9de8:	89 45 ec             	mov    %eax,-0x14(%ebp)
    9deb:	b8 08 00 00 00       	mov    $0x8,%eax
    9df0:	ee                   	out    %al,(%dx)
    9df1:	89 da                	mov    %ebx,%edx
    9df3:	ec                   	in     (%dx),%al
    9df4:	0f b6 c0             	movzbl %al,%eax
    9df7:	89 f2                	mov    %esi,%edx
    9df9:	89 45 f0             	mov    %eax,-0x10(%ebp)
    9dfc:	b8 09 00 00 00       	mov    $0x9,%eax
    9e01:	ee                   	out    %al,(%dx)
    9e02:	89 da                	mov    %ebx,%edx
    9e04:	ec                   	in     (%dx),%al
    9e05:	0f b6 d8             	movzbl %al,%ebx
    9e08:	8b 55 e0             	mov    -0x20(%ebp),%edx
    9e0b:	89 d8                	mov    %ebx,%eax
    9e0d:	83 e3 0f             	and    $0xf,%ebx
    9e10:	c1 f8 04             	sar    $0x4,%eax
    9e13:	8d 04 80             	lea    (%eax,%eax,4),%eax
    9e16:	8d 3c 43             	lea    (%ebx,%eax,2),%edi
    9e19:	8b 45 e0             	mov    -0x20(%ebp),%eax
    9e1c:	83 e2 0f             	and    $0xf,%edx
    9e1f:	81 e7 ff 00 00 00    	and    $0xff,%edi
    9e25:	89 39                	mov    %edi,(%ecx)
    9e27:	c1 f8 04             	sar    $0x4,%eax
    9e2a:	8d 04 80             	lea    (%eax,%eax,4),%eax
    9e2d:	8d 04 42             	lea    (%edx,%eax,2),%eax
    9e30:	8b 55 e4             	mov    -0x1c(%ebp),%edx
    9e33:	0f b6 c0             	movzbl %al,%eax
    9e36:	89 41 14             	mov    %eax,0x14(%ecx)
    9e39:	8b 45 e4             	mov    -0x1c(%ebp),%eax
    9e3c:	83 e2 0f             	and    $0xf,%edx
    9e3f:	c1 f8 04             	sar    $0x4,%eax
    9e42:	8d 04 80             	lea    (%eax,%eax,4),%eax
    9e45:	8d 04 42             	lea    (%edx,%eax,2),%eax
    9e48:	8b 55 e8             	mov    -0x18(%ebp),%edx
    9e4b:	0f b6 c0             	movzbl %al,%eax
    9e4e:	89 41 10             	mov    %eax,0x10(%ecx)
    9e51:	8b 45 e8             	mov    -0x18(%ebp),%eax
    9e54:	83 e2 0f             	and    $0xf,%edx
    9e57:	c1 f8 04             	sar    $0x4,%eax
    9e5a:	8d 04 80             	lea    (%eax,%eax,4),%eax
    9e5d:	8d 04 42             	lea    (%edx,%eax,2),%eax
    9e60:	0f b6 c0             	movzbl %al,%eax
    9e63:	89 41 0c             	mov    %eax,0xc(%ecx)
    9e66:	8b 45 ec             	mov    -0x14(%ebp),%eax
    9e69:	c1 f8 04             	sar    $0x4,%eax
    9e6c:	8d 14 80             	lea    (%eax,%eax,4),%edx
    9e6f:	8b 45 ec             	mov    -0x14(%ebp),%eax
    9e72:	83 e0 0f             	and    $0xf,%eax
    9e75:	8d 04 50             	lea    (%eax,%edx,2),%eax
    9e78:	0f b6 c0             	movzbl %al,%eax
    9e7b:	89 41 08             	mov    %eax,0x8(%ecx)
    9e7e:	8b 45 f0             	mov    -0x10(%ebp),%eax
    9e81:	c1 f8 04             	sar    $0x4,%eax
    9e84:	8d 14 80             	lea    (%eax,%eax,4),%edx
    9e87:	8b 45 f0             	mov    -0x10(%ebp),%eax
    9e8a:	83 e0 0f             	and    $0xf,%eax
    9e8d:	8d 04 50             	lea    (%eax,%edx,2),%eax
    9e90:	0f b6 c0             	movzbl %al,%eax
    9e93:	89 41 04             	mov    %eax,0x4(%ecx)
    9e96:	8d 87 6c 07 00 00    	lea    0x76c(%edi),%eax
    9e9c:	3d b1 07 00 00       	cmp    $0x7b1,%eax
    9ea1:	89 01                	mov    %eax,(%ecx)
    9ea3:	77 08                	ja     0x9ead
    9ea5:	81 c7 d0 07 00 00    	add    $0x7d0,%edi
    9eab:	89 39                	mov    %edi,(%ecx)
    9ead:	83 c4 14             	add    $0x14,%esp
    9eb0:	89 c8                	mov    %ecx,%eax
    9eb2:	5b                   	pop    %ebx
    9eb3:	5e                   	pop    %esi
    9eb4:	5f                   	pop    %edi
    9eb5:	5d                   	pop    %ebp
    9eb6:	c2 04 00             	ret    $0x4
    9eb9:	90                   	nop
    9eba:	90                   	nop
    9ebb:	90                   	nop
    9ebc:	90                   	nop
    9ebd:	90                   	nop
    9ebe:	90                   	nop
    9ebf:	90                   	nop
    9ec0:	55                   	push   %ebp
    9ec1:	89 e5                	mov    %esp,%ebp
    9ec3:	83 ec 28             	sub    $0x28,%esp
    9ec6:	89 5d f4             	mov    %ebx,-0xc(%ebp)
    9ec9:	8b 5d 08             	mov    0x8(%ebp),%ebx
    9ecc:	89 75 f8             	mov    %esi,-0x8(%ebp)
    9ecf:	89 7d fc             	mov    %edi,-0x4(%ebp)
    9ed2:	a1 fc 04 50 00       	mov    0x5004fc,%eax
    9ed7:	85 c0                	test   %eax,%eax
    9ed9:	0f 84 a4 00 00 00    	je     0x9f83
    9edf:	8b 35 18 04 50 00    	mov    0x500418,%esi
    9ee5:	8b 56 20             	mov    0x20(%esi),%edx
    9ee8:	8d 4e 20             	lea    0x20(%esi),%ecx
    9eeb:	c1 ea 18             	shr    $0x18,%edx
    9eee:	8b 7c 90 0c          	mov    0xc(%eax,%edx,4),%edi
    9ef2:	83 ef 01             	sub    $0x1,%edi
    9ef5:	89 7c 90 0c          	mov    %edi,0xc(%eax,%edx,4)
    9ef9:	8b 54 90 0c          	mov    0xc(%eax,%edx,4),%edx
    9efd:	85 d2                	test   %edx,%edx
    9eff:	74 6f                	je     0x9f70
    9f01:	8b 01                	mov    (%ecx),%eax
    9f03:	c1 e8 18             	shr    $0x18,%eax
    9f06:	85 c0                	test   %eax,%eax
    9f08:	75 1e                	jne    0x9f28
    9f0a:	a1 00 05 50 00       	mov    0x500500,%eax
    9f0f:	85 c0                	test   %eax,%eax
    9f11:	74 15                	je     0x9f28
    9f13:	8b 50 04             	mov    0x4(%eax),%edx
    9f16:	89 50 0c             	mov    %edx,0xc(%eax)
    9f19:	89 1c 24             	mov    %ebx,(%esp)
    9f1c:	ff 50 2c             	call   *0x2c(%eax)
    9f1f:	8b 0d 18 04 50 00    	mov    0x500418,%ecx
    9f25:	83 c1 20             	add    $0x20,%ecx
    9f28:	8b 01                	mov    (%ecx),%eax
    9f2a:	c1 e8 18             	shr    $0x18,%eax
    9f2d:	85 c0                	test   %eax,%eax
    9f2f:	75 2f                	jne    0x9f60
    9f31:	a1 04 05 50 00       	mov    0x500504,%eax
    9f36:	85 c0                	test   %eax,%eax
    9f38:	74 26                	je     0x9f60
    9f3a:	80 78 08 00          	cmpb   $0x0,0x8(%eax)
    9f3e:	74 06                	je     0x9f46
    9f40:	8b 50 04             	mov    0x4(%eax),%edx
    9f43:	89 50 0c             	mov    %edx,0xc(%eax)
    9f46:	89 5d 08             	mov    %ebx,0x8(%ebp)
    9f49:	8b 40 2c             	mov    0x2c(%eax),%eax
    9f4c:	8b 5d f4             	mov    -0xc(%ebp),%ebx
    9f4f:	8b 75 f8             	mov    -0x8(%ebp),%esi
    9f52:	8b 7d fc             	mov    -0x4(%ebp),%edi
    9f55:	89 ec                	mov    %ebp,%esp
    9f57:	5d                   	pop    %ebp
    9f58:	ff e0                	jmp    *%eax
    9f5a:	8d b6 00 00 00 00    	lea    0x0(%esi),%esi
    9f60:	8b 5d f4             	mov    -0xc(%ebp),%ebx
    9f63:	8b 75 f8             	mov    -0x8(%ebp),%esi
    9f66:	8b 7d fc             	mov    -0x4(%ebp),%edi
    9f69:	89 ec                	mov    %ebp,%esp
    9f6b:	5d                   	pop    %ebp
    9f6c:	c3                   	ret    
    9f6d:	8d 76 00             	lea    0x0(%esi),%esi
    9f70:	8b 56 20             	mov    0x20(%esi),%edx
    9f73:	8b 48 04             	mov    0x4(%eax),%ecx
    9f76:	c1 ea 18             	shr    $0x18,%edx
    9f79:	89 4c 90 0c          	mov    %ecx,0xc(%eax,%edx,4)
    9f7d:	89 1c 24             	mov    %ebx,(%esp)
    9f80:	ff 50 2c             	call   *0x2c(%eax)
    9f83:	8b 0d 18 04 50 00    	mov    0x500418,%ecx
    9f89:	83 c1 20             	add    $0x20,%ecx
    9f8c:	e9 70 ff ff ff       	jmp    0x9f01
    9f91:	90                   	nop
    9f92:	90                   	nop
    9f93:	90                   	nop
    9f94:	90                   	nop
    9f95:	90                   	nop
    9f96:	90                   	nop
    9f97:	90                   	nop
    9f98:	90                   	nop
    9f99:	90                   	nop
    9f9a:	90                   	nop
    9f9b:	90                   	nop
    9f9c:	90                   	nop
    9f9d:	90                   	nop
    9f9e:	90                   	nop
    9f9f:	90                   	nop
    9fa0:	8b 64 24 04          	mov    0x4(%esp),%esp
    9fa4:	a1 18 04 50 00       	mov    0x500418,%eax
    9fa9:	8b 40 20             	mov    0x20(%eax),%eax
    9fac:	c1 e8 18             	shr    $0x18,%eax
    9faf:	c1 e0 0c             	shl    $0xc,%eax
    9fb2:	8f 80 38 50 40 ff    	popl   -0xbfafc8(%eax)
    9fb8:	61                   	popa   
    9fb9:	cf                   	iret   
    9fba:	c3                   	ret    
    9fbb:	90                   	nop
    9fbc:	90                   	nop
    9fbd:	90                   	nop
    9fbe:	90                   	nop
    9fbf:	90                   	nop
    9fc0:	5e                   	pop    %esi
    9fc1:	9c                   	pushf  
    9fc2:	0e                   	push   %cs
    9fc3:	56                   	push   %esi
    9fc4:	60                   	pusha  
    9fc5:	8b 15 18 04 50 00    	mov    0x500418,%edx
    9fcb:	8b 42 20             	mov    0x20(%edx),%eax
    9fce:	c1 e8 18             	shr    $0x18,%eax
    9fd1:	c1 e0 0c             	shl    $0xc,%eax
    9fd4:	ff b0 38 50 40 ff    	pushl  -0xbfafc8(%eax)
    9fda:	8b 44 24 30          	mov    0x30(%esp),%eax
    9fde:	89 20                	mov    %esp,(%eax)
    9fe0:	8b 64 24 34          	mov    0x34(%esp),%esp
    9fe4:	8b 42 20             	mov    0x20(%edx),%eax
    9fe7:	c1 e8 18             	shr    $0x18,%eax
    9fea:	c1 e0 0c             	shl    $0xc,%eax
    9fed:	8f 80 38 50 40 ff    	popl   -0xbfafc8(%eax)
    9ff3:	61                   	popa   
    9ff4:	cf                   	iret   
    9ff5:	c3                   	ret    
    9ff6:	90                   	nop
    9ff7:	90                   	nop
    9ff8:	90                   	nop
    9ff9:	90                   	nop
    9ffa:	90                   	nop
    9ffb:	90                   	nop
    9ffc:	90                   	nop
    9ffd:	90                   	nop
    9ffe:	90                   	nop
    9fff:	90                   	nop
    a000:	55                   	push   %ebp
    a001:	89 e5                	mov    %esp,%ebp
    a003:	c7 05 10 05 50 00 00 	movl   $0x0,0x500510
    a00a:	00 00 00 
    a00d:	c7 05 14 05 50 00 00 	movl   $0x0,0x500514
    a014:	00 00 00 
    a017:	c7 05 18 05 50 00 00 	movl   $0x0,0x500518
    a01e:	00 00 00 
    a021:	c7 05 1c 05 50 00 00 	movl   $0x0,0x50051c
    a028:	00 00 00 
    a02b:	5d                   	pop    %ebp
    a02c:	c3                   	ret    
    a02d:	90                   	nop
    a02e:	90                   	nop
    a02f:	90                   	nop
    a030:	55                   	push   %ebp
    a031:	89 e5                	mov    %esp,%ebp
    a033:	c7 05 24 05 50 00 0a 	movl   $0xa,0x500524
    a03a:	00 00 00 
    a03d:	c6 05 28 05 50 00 00 	movb   $0x0,0x500528
    a044:	5d                   	pop    %ebp
    a045:	c3                   	ret    
    a046:	90                   	nop
    a047:	90                   	nop
    a048:	90                   	nop
    a049:	90                   	nop
    a04a:	90                   	nop
    a04b:	90                   	nop
    a04c:	90                   	nop
    a04d:	90                   	nop
    a04e:	90                   	nop
    a04f:	90                   	nop
    a050:	55                   	push   %ebp
    a051:	89 e5                	mov    %esp,%ebp
    a053:	57                   	push   %edi
    a054:	56                   	push   %esi
    a055:	53                   	push   %ebx
    a056:	81 ec 9c 00 00 00    	sub    $0x9c,%esp
    a05c:	8b 7d 08             	mov    0x8(%ebp),%edi
    a05f:	c7 04 24 97 b1 00 00 	movl   $0xb197,(%esp)
    a066:	e8 15 85 ff ff       	call   0x2580
    a06b:	0f b6 05 28 05 50 00 	movzbl 0x500528,%eax
    a072:	0f b6 c0             	movzbl %al,%eax
    a075:	89 04 24             	mov    %eax,(%esp)
    a078:	e8 a3 88 ff ff       	call   0x2920
    a07d:	c7 04 24 a7 b1 00 00 	movl   $0xb1a7,(%esp)
    a084:	e8 f7 84 ff ff       	call   0x2580
    a089:	a1 ec 04 50 00       	mov    0x5004ec,%eax
    a08e:	c7 05 24 05 50 00 0a 	movl   $0xa,0x500524
    a095:	00 00 00 
    a098:	85 c0                	test   %eax,%eax
    a09a:	0f 84 4c 03 00 00    	je     0xa3ec
    a0a0:	c7 45 88 00 00 00 00 	movl   $0x0,-0x78(%ebp)
    a0a7:	8d 5d a8             	lea    -0x58(%ebp),%ebx
    a0aa:	c7 45 8c 00 00 00 00 	movl   $0x0,-0x74(%ebp)
    a0b1:	eb 0d                	jmp    0xa0c0
    a0b3:	90                   	nop
    a0b4:	90                   	nop
    a0b5:	90                   	nop
    a0b6:	90                   	nop
    a0b7:	90                   	nop
    a0b8:	90                   	nop
    a0b9:	90                   	nop
    a0ba:	90                   	nop
    a0bb:	90                   	nop
    a0bc:	90                   	nop
    a0bd:	90                   	nop
    a0be:	90                   	nop
    a0bf:	90                   	nop
    a0c0:	be 01 00 00 00       	mov    $0x1,%esi
    a0c5:	eb 0c                	jmp    0xa0d3
    a0c7:	89 f6                	mov    %esi,%esi
    a0c9:	8d bc 27 00 00 00 00 	lea    0x0(%edi,%eiz,1),%edi
    a0d0:	83 c6 01             	add    $0x1,%esi
    a0d3:	83 fe 05             	cmp    $0x5,%esi
    a0d6:	74 f8                	je     0xa0d0
    a0d8:	8b 47 70             	mov    0x70(%edi),%eax
    a0db:	8b 57 74             	mov    0x74(%edi),%edx
    a0de:	8b 4f 6c             	mov    0x6c(%edi),%ecx
    a0e1:	89 45 90             	mov    %eax,-0x70(%ebp)
    a0e4:	8b 87 c4 00 00 00    	mov    0xc4(%edi),%eax
    a0ea:	89 55 94             	mov    %edx,-0x6c(%ebp)
    a0ed:	8b 57 68             	mov    0x68(%edi),%edx
    a0f0:	89 4d 80             	mov    %ecx,-0x80(%ebp)
    a0f3:	89 45 98             	mov    %eax,-0x68(%ebp)
    a0f6:	8b 87 c0 00 00 00    	mov    0xc0(%edi),%eax
    a0fc:	89 55 84             	mov    %edx,-0x7c(%ebp)
    a0ff:	89 45 9c             	mov    %eax,-0x64(%ebp)
    a102:	8b 87 bc 00 00 00    	mov    0xbc(%edi),%eax
    a108:	89 45 a0             	mov    %eax,-0x60(%ebp)
    a10b:	8b 45 88             	mov    -0x78(%ebp),%eax
    a10e:	03 87 b8 00 00 00    	add    0xb8(%edi),%eax
    a114:	89 45 a4             	mov    %eax,-0x5c(%ebp)
    a117:	8b 84 b7 84 00 00 00 	mov    0x84(%edi,%esi,4),%eax
    a11e:	c7 04 24 a6 b1 00 00 	movl   $0xb1a6,(%esp)
    a125:	89 85 7c ff ff ff    	mov    %eax,-0x84(%ebp)
    a12b:	e8 50 84 ff ff       	call   0x2580
    a130:	c7 04 24 b7 b1 00 00 	movl   $0xb1b7,(%esp)
    a137:	e8 44 84 ff ff       	call   0x2580
    a13c:	c7 04 24 a9 b1 00 00 	movl   $0xb1a9,(%esp)
    a143:	e8 38 84 ff ff       	call   0x2580
    a148:	c7 04 24 b6 b1 00 00 	movl   $0xb1b6,(%esp)
    a14f:	e8 2c 84 ff ff       	call   0x2580
    a154:	c7 04 24 ba b1 00 00 	movl   $0xb1ba,(%esp)
    a15b:	e8 20 84 ff ff       	call   0x2580
    a160:	c7 04 24 d0 b1 00 00 	movl   $0xb1d0,(%esp)
    a167:	e8 14 84 ff ff       	call   0x2580
    a16c:	8b 85 7c ff ff ff    	mov    -0x84(%ebp),%eax
    a172:	c7 44 24 0c 00 00 00 	movl   $0x0,0xc(%esp)
    a179:	00 
    a17a:	89 5c 24 08          	mov    %ebx,0x8(%esp)
    a17e:	c7 04 24 24 05 50 00 	movl   $0x500524,(%esp)
    a185:	89 44 24 04          	mov    %eax,0x4(%esp)
    a189:	e8 02 8a ff ff       	call   0x2b90
    a18e:	89 1c 24             	mov    %ebx,(%esp)
    a191:	c6 44 05 a8 00       	movb   $0x0,-0x58(%ebp,%eax,1)
    a196:	e8 e5 83 ff ff       	call   0x2580
    a19b:	c7 04 24 cd b1 00 00 	movl   $0xb1cd,(%esp)
    a1a2:	e8 d9 83 ff ff       	call   0x2580
    a1a7:	c7 04 24 dc b1 00 00 	movl   $0xb1dc,(%esp)
    a1ae:	e8 cd 83 ff ff       	call   0x2580
    a1b3:	8b 45 a4             	mov    -0x5c(%ebp),%eax
    a1b6:	c7 44 24 0c 00 00 00 	movl   $0x0,0xc(%esp)
    a1bd:	00 
    a1be:	89 5c 24 08          	mov    %ebx,0x8(%esp)
    a1c2:	c7 04 24 24 05 50 00 	movl   $0x500524,(%esp)
    a1c9:	89 44 24 04          	mov    %eax,0x4(%esp)
    a1cd:	e8 be 89 ff ff       	call   0x2b90
    a1d2:	89 1c 24             	mov    %ebx,(%esp)
    a1d5:	c6 44 05 a8 00       	movb   $0x0,-0x58(%ebp,%eax,1)
    a1da:	e8 a1 83 ff ff       	call   0x2580
    a1df:	c7 04 24 cd b1 00 00 	movl   $0xb1cd,(%esp)
    a1e6:	e8 95 83 ff ff       	call   0x2580
    a1eb:	c7 04 24 e5 b1 00 00 	movl   $0xb1e5,(%esp)
    a1f2:	e8 89 83 ff ff       	call   0x2580
    a1f7:	8b 45 a0             	mov    -0x60(%ebp),%eax
    a1fa:	89 5c 24 08          	mov    %ebx,0x8(%esp)
    a1fe:	c7 04 24 24 05 50 00 	movl   $0x500524,(%esp)
    a205:	89 44 24 04          	mov    %eax,0x4(%esp)
    a209:	e8 62 8a ff ff       	call   0x2c70
    a20e:	89 1c 24             	mov    %ebx,(%esp)
    a211:	c6 44 05 a8 00       	movb   $0x0,-0x58(%ebp,%eax,1)
    a216:	e8 65 83 ff ff       	call   0x2580
    a21b:	c7 04 24 cd b1 00 00 	movl   $0xb1cd,(%esp)
    a222:	e8 59 83 ff ff       	call   0x2580
    a227:	c7 04 24 ee b1 00 00 	movl   $0xb1ee,(%esp)
    a22e:	e8 4d 83 ff ff       	call   0x2580
    a233:	8b 45 9c             	mov    -0x64(%ebp),%eax
    a236:	89 5c 24 08          	mov    %ebx,0x8(%esp)
    a23a:	c7 04 24 24 05 50 00 	movl   $0x500524,(%esp)
    a241:	89 44 24 04          	mov    %eax,0x4(%esp)
    a245:	e8 26 8a ff ff       	call   0x2c70
    a24a:	89 1c 24             	mov    %ebx,(%esp)
    a24d:	c6 44 05 a8 00       	movb   $0x0,-0x58(%ebp,%eax,1)
    a252:	e8 29 83 ff ff       	call   0x2580
    a257:	c7 04 24 cd b1 00 00 	movl   $0xb1cd,(%esp)
    a25e:	e8 1d 83 ff ff       	call   0x2580
    a263:	c7 04 24 f7 b1 00 00 	movl   $0xb1f7,(%esp)
    a26a:	e8 11 83 ff ff       	call   0x2580
    a26f:	8b 45 98             	mov    -0x68(%ebp),%eax
    a272:	c7 44 24 0c 00 00 00 	movl   $0x0,0xc(%esp)
    a279:	00 
    a27a:	89 5c 24 08          	mov    %ebx,0x8(%esp)
    a27e:	c7 04 24 24 05 50 00 	movl   $0x500524,(%esp)
    a285:	89 44 24 04          	mov    %eax,0x4(%esp)
    a289:	e8 02 89 ff ff       	call   0x2b90
    a28e:	89 1c 24             	mov    %ebx,(%esp)
    a291:	c6 44 05 a8 00       	movb   $0x0,-0x58(%ebp,%eax,1)
    a296:	e8 e5 82 ff ff       	call   0x2580
    a29b:	c7 04 24 cd b1 00 00 	movl   $0xb1cd,(%esp)
    a2a2:	e8 d9 82 ff ff       	call   0x2580
    a2a7:	c7 04 24 00 b2 00 00 	movl   $0xb200,(%esp)
    a2ae:	e8 cd 82 ff ff       	call   0x2580
    a2b3:	8b 4d 80             	mov    -0x80(%ebp),%ecx
    a2b6:	8b 55 84             	mov    -0x7c(%ebp),%edx
    a2b9:	c7 44 24 10 00 00 00 	movl   $0x0,0x10(%esp)
    a2c0:	00 
    a2c1:	89 5c 24 0c          	mov    %ebx,0xc(%esp)
    a2c5:	89 4c 24 08          	mov    %ecx,0x8(%esp)
    a2c9:	89 54 24 04          	mov    %edx,0x4(%esp)
    a2cd:	c7 04 24 24 05 50 00 	movl   $0x500524,(%esp)
    a2d4:	e8 d7 89 ff ff       	call   0x2cb0
    a2d9:	89 1c 24             	mov    %ebx,(%esp)
    a2dc:	c6 44 05 a8 00       	movb   $0x0,-0x58(%ebp,%eax,1)
    a2e1:	e8 9a 82 ff ff       	call   0x2580
    a2e6:	c7 04 24 cd b1 00 00 	movl   $0xb1cd,(%esp)
    a2ed:	e8 8e 82 ff ff       	call   0x2580
    a2f2:	c7 04 24 0a b2 00 00 	movl   $0xb20a,(%esp)
    a2f9:	e8 82 82 ff ff       	call   0x2580
    a2fe:	8b 55 94             	mov    -0x6c(%ebp),%edx
    a301:	8b 45 90             	mov    -0x70(%ebp),%eax
    a304:	c7 44 24 10 00 00 00 	movl   $0x0,0x10(%esp)
    a30b:	00 
    a30c:	89 5c 24 0c          	mov    %ebx,0xc(%esp)
    a310:	89 54 24 08          	mov    %edx,0x8(%esp)
    a314:	89 44 24 04          	mov    %eax,0x4(%esp)
    a318:	c7 04 24 24 05 50 00 	movl   $0x500524,(%esp)
    a31f:	e8 8c 89 ff ff       	call   0x2cb0
    a324:	89 1c 24             	mov    %ebx,(%esp)
    a327:	c6 44 05 a8 00       	movb   $0x0,-0x58(%ebp,%eax,1)
    a32c:	e8 4f 82 ff ff       	call   0x2580
    a331:	c7 04 24 cd b1 00 00 	movl   $0xb1cd,(%esp)
    a338:	e8 43 82 ff ff       	call   0x2580
    a33d:	c7 04 24 14 b2 00 00 	movl   $0xb214,(%esp)
    a344:	e8 37 82 ff ff       	call   0x2580
    a349:	8b 55 8c             	mov    -0x74(%ebp),%edx
    a34c:	c7 44 24 0c 00 00 00 	movl   $0x0,0xc(%esp)
    a353:	00 
    a354:	89 5c 24 08          	mov    %ebx,0x8(%esp)
    a358:	c7 04 24 24 05 50 00 	movl   $0x500524,(%esp)
    a35f:	89 54 24 04          	mov    %edx,0x4(%esp)
    a363:	e8 28 88 ff ff       	call   0x2b90
    a368:	89 1c 24             	mov    %ebx,(%esp)
    a36b:	c6 44 05 a8 00       	movb   $0x0,-0x58(%ebp,%eax,1)
    a370:	e8 0b 82 ff ff       	call   0x2580
    a375:	c7 04 24 a7 b1 00 00 	movl   $0xb1a7,(%esp)
    a37c:	e8 ff 81 ff ff       	call   0x2580
    a381:	c7 04 24 1f b2 00 00 	movl   $0xb21f,(%esp)
    a388:	e8 f3 81 ff ff       	call   0x2580
    a38d:	c7 04 24 20 b2 00 00 	movl   $0xb220,(%esp)
    a394:	e8 e7 81 ff ff       	call   0x2580
    a399:	c7 04 24 23 b2 00 00 	movl   $0xb223,(%esp)
    a3a0:	e8 db 81 ff ff       	call   0x2580
    a3a5:	0f b6 05 28 05 50 00 	movzbl 0x500528,%eax
    a3ac:	0f b6 c0             	movzbl %al,%eax
    a3af:	89 04 24             	mov    %eax,(%esp)
    a3b2:	e8 69 85 ff ff       	call   0x2920
    a3b7:	c7 04 24 a7 b1 00 00 	movl   $0xb1a7,(%esp)
    a3be:	e8 bd 81 ff ff       	call   0x2580
    a3c3:	83 fe 0b             	cmp    $0xb,%esi
    a3c6:	c7 05 24 05 50 00 0a 	movl   $0xa,0x500524
    a3cd:	00 00 00 
    a3d0:	0f 8e fa fc ff ff    	jle    0xa0d0
    a3d6:	83 45 8c 01          	addl   $0x1,-0x74(%ebp)
    a3da:	a1 ec 04 50 00       	mov    0x5004ec,%eax
    a3df:	83 45 88 0a          	addl   $0xa,-0x78(%ebp)
    a3e3:	39 45 8c             	cmp    %eax,-0x74(%ebp)
    a3e6:	0f 82 d4 fc ff ff    	jb     0xa0c0
    a3ec:	c7 04 24 25 b2 00 00 	movl   $0xb225,(%esp)
    a3f3:	e8 88 81 ff ff       	call   0x2580
    a3f8:	0f b6 05 28 05 50 00 	movzbl 0x500528,%eax
    a3ff:	0f b6 c0             	movzbl %al,%eax
    a402:	89 04 24             	mov    %eax,(%esp)
    a405:	e8 16 85 ff ff       	call   0x2920
    a40a:	c7 04 24 a7 b1 00 00 	movl   $0xb1a7,(%esp)
    a411:	e8 6a 81 ff ff       	call   0x2580
    a416:	c7 05 24 05 50 00 0a 	movl   $0xa,0x500524
    a41d:	00 00 00 
    a420:	81 c4 9c 00 00 00    	add    $0x9c,%esp
    a426:	5b                   	pop    %ebx
    a427:	5e                   	pop    %esi
    a428:	5f                   	pop    %edi
    a429:	5d                   	pop    %ebp
    a42a:	c3                   	ret    
    a42b:	90                   	nop
    a42c:	90                   	nop
    a42d:	90                   	nop
    a42e:	90                   	nop
    a42f:	90                   	nop
    a430:	55                   	push   %ebp
    a431:	89 e5                	mov    %esp,%ebp
    a433:	57                   	push   %edi
    a434:	56                   	push   %esi
    a435:	53                   	push   %ebx
    a436:	81 ec 8c 01 00 00    	sub    $0x18c,%esp
    a43c:	8b 75 08             	mov    0x8(%ebp),%esi
    a43f:	8d 5d d0             	lea    -0x30(%ebp),%ebx
    a442:	89 1c 24             	mov    %ebx,(%esp)
    a445:	e8 36 f8 ff ff       	call   0x9c80
    a44a:	57                   	push   %edi
    a44b:	89 1c 24             	mov    %ebx,(%esp)
    a44e:	c7 44 24 04 8b fa 0a 	movl   $0xafa8b,0x4(%esp)
    a455:	00 
    a456:	e8 c5 ea ff ff       	call   0x8f20
    a45b:	b9 40 42 0f 00       	mov    $0xf4240,%ecx
    a460:	c7 04 24 32 b2 00 00 	movl   $0xb232,(%esp)
    a467:	69 da 40 42 0f 00    	imul   $0xf4240,%edx,%ebx
    a46d:	f7 e1                	mul    %ecx
    a46f:	01 da                	add    %ebx,%edx
    a471:	89 95 f4 fe ff ff    	mov    %edx,-0x10c(%ebp)
    a477:	8d 5d 90             	lea    -0x70(%ebp),%ebx
    a47a:	89 85 f0 fe ff ff    	mov    %eax,-0x110(%ebp)
    a480:	e8 fb 80 ff ff       	call   0x2580
    a485:	0f b6 05 28 05 50 00 	movzbl 0x500528,%eax
    a48c:	0f b6 c0             	movzbl %al,%eax
    a48f:	89 04 24             	mov    %eax,(%esp)
    a492:	e8 89 84 ff ff       	call   0x2920
    a497:	c7 04 24 a7 b1 00 00 	movl   $0xb1a7,(%esp)
    a49e:	e8 dd 80 ff ff       	call   0x2580
    a4a3:	c7 05 24 05 50 00 0a 	movl   $0xa,0x500524
    a4aa:	00 00 00 
    a4ad:	c7 85 10 ff ff ff 06 	movl   $0x6,-0xf0(%ebp)
    a4b4:	00 00 00 
    a4b7:	a1 ec 04 50 00       	mov    0x5004ec,%eax
    a4bc:	39 85 10 ff ff ff    	cmp    %eax,-0xf0(%ebp)
    a4c2:	0f 83 6c 03 00 00    	jae    0xa834
    a4c8:	8b 95 10 ff ff ff    	mov    -0xf0(%ebp),%edx
    a4ce:	8b 8d 10 ff ff ff    	mov    -0xf0(%ebp),%ecx
    a4d4:	8b 54 96 04          	mov    0x4(%esi,%edx,4),%edx
    a4d8:	83 c1 08             	add    $0x8,%ecx
    a4db:	3b 54 8e 04          	cmp    0x4(%esi,%ecx,4),%edx
    a4df:	89 8d 9c fe ff ff    	mov    %ecx,-0x164(%ebp)
    a4e5:	89 95 14 ff ff ff    	mov    %edx,-0xec(%ebp)
    a4eb:	0f 83 37 03 00 00    	jae    0xa828
    a4f1:	6b fa 68             	imul   $0x68,%edx,%edi
    a4f4:	89 b5 fc fe ff ff    	mov    %esi,-0x104(%ebp)
    a4fa:	89 bd 0c ff ff ff    	mov    %edi,-0xf4(%ebp)
    a500:	8b 95 fc fe ff ff    	mov    -0x104(%ebp),%edx
    a506:	8b 85 0c ff ff ff    	mov    -0xf4(%ebp),%eax
    a50c:	03 02                	add    (%edx),%eax
    a50e:	8b 70 60             	mov    0x60(%eax),%esi
    a511:	8b 78 64             	mov    0x64(%eax),%edi
    a514:	8b 50 58             	mov    0x58(%eax),%edx
    a517:	8b 48 5c             	mov    0x5c(%eax),%ecx
    a51a:	89 b5 00 ff ff ff    	mov    %esi,-0x100(%ebp)
    a520:	8b 70 50             	mov    0x50(%eax),%esi
    a523:	89 bd 04 ff ff ff    	mov    %edi,-0xfc(%ebp)
    a529:	8b 78 54             	mov    0x54(%eax),%edi
    a52c:	89 95 a0 fe ff ff    	mov    %edx,-0x160(%ebp)
    a532:	8b 50 48             	mov    0x48(%eax),%edx
    a535:	89 8d a4 fe ff ff    	mov    %ecx,-0x15c(%ebp)
    a53b:	8b 48 4c             	mov    0x4c(%eax),%ecx
    a53e:	89 b5 a8 fe ff ff    	mov    %esi,-0x158(%ebp)
    a544:	8b 70 40             	mov    0x40(%eax),%esi
    a547:	89 bd ac fe ff ff    	mov    %edi,-0x154(%ebp)
    a54d:	8b 78 44             	mov    0x44(%eax),%edi
    a550:	89 95 b0 fe ff ff    	mov    %edx,-0x150(%ebp)
    a556:	8b 50 38             	mov    0x38(%eax),%edx
    a559:	89 8d b4 fe ff ff    	mov    %ecx,-0x14c(%ebp)
    a55f:	8b 48 3c             	mov    0x3c(%eax),%ecx
    a562:	89 b5 b8 fe ff ff    	mov    %esi,-0x148(%ebp)
    a568:	8b 70 30             	mov    0x30(%eax),%esi
    a56b:	89 bd bc fe ff ff    	mov    %edi,-0x144(%ebp)
    a571:	8b 78 34             	mov    0x34(%eax),%edi
    a574:	89 95 c0 fe ff ff    	mov    %edx,-0x140(%ebp)
    a57a:	8b 50 28             	mov    0x28(%eax),%edx
    a57d:	89 8d c4 fe ff ff    	mov    %ecx,-0x13c(%ebp)
    a583:	8b 48 2c             	mov    0x2c(%eax),%ecx
    a586:	89 b5 c8 fe ff ff    	mov    %esi,-0x138(%ebp)
    a58c:	89 bd cc fe ff ff    	mov    %edi,-0x134(%ebp)
    a592:	89 95 d0 fe ff ff    	mov    %edx,-0x130(%ebp)
    a598:	8b 70 20             	mov    0x20(%eax),%esi
    a59b:	8b 78 24             	mov    0x24(%eax),%edi
    a59e:	8b 50 18             	mov    0x18(%eax),%edx
    a5a1:	89 8d d4 fe ff ff    	mov    %ecx,-0x12c(%ebp)
    a5a7:	8b 48 1c             	mov    0x1c(%eax),%ecx
    a5aa:	89 b5 d8 fe ff ff    	mov    %esi,-0x128(%ebp)
    a5b0:	8b 70 10             	mov    0x10(%eax),%esi
    a5b3:	89 bd dc fe ff ff    	mov    %edi,-0x124(%ebp)
    a5b9:	8b 78 14             	mov    0x14(%eax),%edi
    a5bc:	89 95 e0 fe ff ff    	mov    %edx,-0x120(%ebp)
    a5c2:	8b 50 04             	mov    0x4(%eax),%edx
    a5c5:	89 8d e4 fe ff ff    	mov    %ecx,-0x11c(%ebp)
    a5cb:	89 b5 e8 fe ff ff    	mov    %esi,-0x118(%ebp)
    a5d1:	8b 70 08             	mov    0x8(%eax),%esi
    a5d4:	89 bd ec fe ff ff    	mov    %edi,-0x114(%ebp)
    a5da:	8b 78 0c             	mov    0xc(%eax),%edi
    a5dd:	8b 00                	mov    (%eax),%eax
    a5df:	89 95 24 ff ff ff    	mov    %edx,-0xdc(%ebp)
    a5e5:	89 b5 28 ff ff ff    	mov    %esi,-0xd8(%ebp)
    a5eb:	8b b5 e8 fe ff ff    	mov    -0x118(%ebp),%esi
    a5f1:	89 bd 2c ff ff ff    	mov    %edi,-0xd4(%ebp)
    a5f7:	8b bd ec fe ff ff    	mov    -0x114(%ebp),%edi
    a5fd:	89 85 20 ff ff ff    	mov    %eax,-0xe0(%ebp)
    a603:	89 b5 30 ff ff ff    	mov    %esi,-0xd0(%ebp)
    a609:	8b b5 e0 fe ff ff    	mov    -0x120(%ebp),%esi
    a60f:	89 bd 34 ff ff ff    	mov    %edi,-0xcc(%ebp)
    a615:	8b bd e4 fe ff ff    	mov    -0x11c(%ebp),%edi
    a61b:	89 b5 38 ff ff ff    	mov    %esi,-0xc8(%ebp)
    a621:	8b b5 d8 fe ff ff    	mov    -0x128(%ebp),%esi
    a627:	89 bd 3c ff ff ff    	mov    %edi,-0xc4(%ebp)
    a62d:	8b bd dc fe ff ff    	mov    -0x124(%ebp),%edi
    a633:	89 b5 40 ff ff ff    	mov    %esi,-0xc0(%ebp)
    a639:	8b b5 d0 fe ff ff    	mov    -0x130(%ebp),%esi
    a63f:	89 bd 44 ff ff ff    	mov    %edi,-0xbc(%ebp)
    a645:	8b bd d4 fe ff ff    	mov    -0x12c(%ebp),%edi
    a64b:	89 b5 48 ff ff ff    	mov    %esi,-0xb8(%ebp)
    a651:	8b b5 c8 fe ff ff    	mov    -0x138(%ebp),%esi
    a657:	89 bd 4c ff ff ff    	mov    %edi,-0xb4(%ebp)
    a65d:	8b bd cc fe ff ff    	mov    -0x134(%ebp),%edi
    a663:	c7 85 7c ff ff ff 00 	movl   $0x0,-0x84(%ebp)
    a66a:	00 00 00 
    a66d:	c7 04 24 38 af 00 00 	movl   $0xaf38,(%esp)
    a674:	89 b5 50 ff ff ff    	mov    %esi,-0xb0(%ebp)
    a67a:	8b b5 c0 fe ff ff    	mov    -0x140(%ebp),%esi
    a680:	89 bd 54 ff ff ff    	mov    %edi,-0xac(%ebp)
    a686:	8b bd c4 fe ff ff    	mov    -0x13c(%ebp),%edi
    a68c:	89 b5 58 ff ff ff    	mov    %esi,-0xa8(%ebp)
    a692:	8b b5 b8 fe ff ff    	mov    -0x148(%ebp),%esi
    a698:	89 bd 5c ff ff ff    	mov    %edi,-0xa4(%ebp)
    a69e:	8b bd bc fe ff ff    	mov    -0x144(%ebp),%edi
    a6a4:	89 b5 60 ff ff ff    	mov    %esi,-0xa0(%ebp)
    a6aa:	8b b5 b0 fe ff ff    	mov    -0x150(%ebp),%esi
    a6b0:	89 bd 64 ff ff ff    	mov    %edi,-0x9c(%ebp)
    a6b6:	8b bd b4 fe ff ff    	mov    -0x14c(%ebp),%edi
    a6bc:	89 b5 68 ff ff ff    	mov    %esi,-0x98(%ebp)
    a6c2:	8b b5 a8 fe ff ff    	mov    -0x158(%ebp),%esi
    a6c8:	89 bd 6c ff ff ff    	mov    %edi,-0x94(%ebp)
    a6ce:	8b bd ac fe ff ff    	mov    -0x154(%ebp),%edi
    a6d4:	89 b5 70 ff ff ff    	mov    %esi,-0x90(%ebp)
    a6da:	8b b5 a0 fe ff ff    	mov    -0x160(%ebp),%esi
    a6e0:	89 bd 74 ff ff ff    	mov    %edi,-0x8c(%ebp)
    a6e6:	8b bd 10 ff ff ff    	mov    -0xf0(%ebp),%edi
    a6ec:	89 75 80             	mov    %esi,-0x80(%ebp)
    a6ef:	8b b5 00 ff ff ff    	mov    -0x100(%ebp),%esi
    a6f5:	89 bd 78 ff ff ff    	mov    %edi,-0x88(%ebp)
    a6fb:	8b bd a4 fe ff ff    	mov    -0x15c(%ebp),%edi
    a701:	89 75 88             	mov    %esi,-0x78(%ebp)
    a704:	31 f6                	xor    %esi,%esi
    a706:	89 7d 84             	mov    %edi,-0x7c(%ebp)
    a709:	8b bd 04 ff ff ff    	mov    -0xfc(%ebp),%edi
    a70f:	89 7d 8c             	mov    %edi,-0x74(%ebp)
    a712:	89 85 94 fe ff ff    	mov    %eax,-0x16c(%ebp)
    a718:	89 95 98 fe ff ff    	mov    %edx,-0x168(%ebp)
    a71e:	e8 5d 7e ff ff       	call   0x2580
    a723:	8b 85 94 fe ff ff    	mov    -0x16c(%ebp),%eax
    a729:	8b 95 98 fe ff ff    	mov    -0x168(%ebp),%edx
    a72f:	eb 1d                	jmp    0xa74e
    a731:	eb 0d                	jmp    0xa740
    a733:	90                   	nop
    a734:	90                   	nop
    a735:	90                   	nop
    a736:	90                   	nop
    a737:	90                   	nop
    a738:	90                   	nop
    a739:	90                   	nop
    a73a:	90                   	nop
    a73b:	90                   	nop
    a73c:	90                   	nop
    a73d:	90                   	nop
    a73e:	90                   	nop
    a73f:	90                   	nop
    a740:	8b 84 f5 20 ff ff ff 	mov    -0xe0(%ebp,%esi,8),%eax
    a747:	8b 94 f5 24 ff ff ff 	mov    -0xdc(%ebp,%esi,8),%edx
    a74e:	89 54 24 08          	mov    %edx,0x8(%esp)
    a752:	83 c6 01             	add    $0x1,%esi
    a755:	c7 44 24 10 00 00 00 	movl   $0x0,0x10(%esp)
    a75c:	00 
    a75d:	89 5c 24 0c          	mov    %ebx,0xc(%esp)
    a761:	89 44 24 04          	mov    %eax,0x4(%esp)
    a765:	c7 04 24 24 05 50 00 	movl   $0x500524,(%esp)
    a76c:	e8 3f 85 ff ff       	call   0x2cb0
    a771:	89 1c 24             	mov    %ebx,(%esp)
    a774:	c6 44 05 90 00       	movb   $0x0,-0x70(%ebp,%eax,1)
    a779:	e8 02 7e ff ff       	call   0x2580
    a77e:	c7 04 24 3a af 00 00 	movl   $0xaf3a,(%esp)
    a785:	e8 f6 7d ff ff       	call   0x2580
    a78a:	83 fe 0d             	cmp    $0xd,%esi
    a78d:	75 b1                	jne    0xa740
    a78f:	8b 95 04 ff ff ff    	mov    -0xfc(%ebp),%edx
    a795:	8b 85 00 ff ff ff    	mov    -0x100(%ebp),%eax
    a79b:	c7 44 24 10 00 00 00 	movl   $0x0,0x10(%esp)
    a7a2:	00 
    a7a3:	89 5c 24 0c          	mov    %ebx,0xc(%esp)
    a7a7:	89 54 24 08          	mov    %edx,0x8(%esp)
    a7ab:	89 44 24 04          	mov    %eax,0x4(%esp)
    a7af:	c7 04 24 24 05 50 00 	movl   $0x500524,(%esp)
    a7b6:	e8 f5 84 ff ff       	call   0x2cb0
    a7bb:	89 1c 24             	mov    %ebx,(%esp)
    a7be:	c6 44 05 90 00       	movb   $0x0,-0x70(%ebp,%eax,1)
    a7c3:	e8 b8 7d ff ff       	call   0x2580
    a7c8:	c7 04 24 4e b2 00 00 	movl   $0xb24e,(%esp)
    a7cf:	e8 ac 7d ff ff       	call   0x2580
    a7d4:	0f b6 05 28 05 50 00 	movzbl 0x500528,%eax
    a7db:	0f b6 c0             	movzbl %al,%eax
    a7de:	89 04 24             	mov    %eax,(%esp)
    a7e1:	e8 3a 81 ff ff       	call   0x2920
    a7e6:	c7 04 24 a7 b1 00 00 	movl   $0xb1a7,(%esp)
    a7ed:	e8 8e 7d ff ff       	call   0x2580
    a7f2:	8b 95 9c fe ff ff    	mov    -0x164(%ebp),%edx
    a7f8:	8b 8d fc fe ff ff    	mov    -0x104(%ebp),%ecx
    a7fe:	83 85 14 ff ff ff 01 	addl   $0x1,-0xec(%ebp)
    a805:	8b b5 14 ff ff ff    	mov    -0xec(%ebp),%esi
    a80b:	c7 05 24 05 50 00 0a 	movl   $0xa,0x500524
    a812:	00 00 00 
    a815:	83 85 0c ff ff ff 68 	addl   $0x68,-0xf4(%ebp)
    a81c:	39 74 91 04          	cmp    %esi,0x4(%ecx,%edx,4)
    a820:	0f 87 da fc ff ff    	ja     0xa500
    a826:	89 ce                	mov    %ecx,%esi
    a828:	83 85 10 ff ff ff 01 	addl   $0x1,-0xf0(%ebp)
    a82f:	e9 83 fc ff ff       	jmp    0xa4b7
    a834:	c7 04 24 42 b2 00 00 	movl   $0xb242,(%esp)
    a83b:	31 ff                	xor    %edi,%edi
    a83d:	e8 3e 7d ff ff       	call   0x2580
    a842:	0f b6 05 28 05 50 00 	movzbl 0x500528,%eax
    a849:	0f b6 c0             	movzbl %al,%eax
    a84c:	89 04 24             	mov    %eax,(%esp)
    a84f:	e8 cc 80 ff ff       	call   0x2920
    a854:	c7 04 24 a7 b1 00 00 	movl   $0xb1a7,(%esp)
    a85b:	e8 20 7d ff ff       	call   0x2580
    a860:	89 f2                	mov    %esi,%edx
    a862:	c7 05 24 05 50 00 0a 	movl   $0xa,0x500524
    a869:	00 00 00 
    a86c:	e9 45 01 00 00       	jmp    0xa9b6
    a871:	8b 74 ba 24          	mov    0x24(%edx,%edi,4),%esi
    a875:	2b 74 ba 04          	sub    0x4(%edx,%edi,4),%esi
    a879:	89 95 98 fe ff ff    	mov    %edx,-0x168(%ebp)
    a87f:	c7 04 24 50 b2 00 00 	movl   $0xb250,(%esp)
    a886:	e8 f5 7c ff ff       	call   0x2580
    a88b:	89 7c 24 04          	mov    %edi,0x4(%esp)
    a88f:	c7 44 24 0c 00 00 00 	movl   $0x0,0xc(%esp)
    a896:	00 
    a897:	89 5c 24 08          	mov    %ebx,0x8(%esp)
    a89b:	c7 04 24 24 05 50 00 	movl   $0x500524,(%esp)
    a8a2:	e8 e9 82 ff ff       	call   0x2b90
    a8a7:	89 1c 24             	mov    %ebx,(%esp)
    a8aa:	c6 44 05 90 00       	movb   $0x0,-0x70(%ebp,%eax,1)
    a8af:	e8 cc 7c ff ff       	call   0x2580
    a8b4:	c7 04 24 07 b2 00 00 	movl   $0xb207,(%esp)
    a8bb:	e8 c0 7c ff ff       	call   0x2580
    a8c0:	89 74 24 04          	mov    %esi,0x4(%esp)
    a8c4:	c7 44 24 0c 00 00 00 	movl   $0x0,0xc(%esp)
    a8cb:	00 
    a8cc:	89 5c 24 08          	mov    %ebx,0x8(%esp)
    a8d0:	c7 04 24 24 05 50 00 	movl   $0x500524,(%esp)
    a8d7:	e8 b4 82 ff ff       	call   0x2b90
    a8dc:	89 1c 24             	mov    %ebx,(%esp)
    a8df:	c6 44 05 90 00       	movb   $0x0,-0x70(%ebp,%eax,1)
    a8e4:	e8 97 7c ff ff       	call   0x2580
    a8e9:	0f b6 05 28 05 50 00 	movzbl 0x500528,%eax
    a8f0:	0f b6 c0             	movzbl %al,%eax
    a8f3:	89 04 24             	mov    %eax,(%esp)
    a8f6:	e8 25 80 ff ff       	call   0x2920
    a8fb:	c7 04 24 a7 b1 00 00 	movl   $0xb1a7,(%esp)
    a902:	e8 79 7c ff ff       	call   0x2580
    a907:	8b 95 98 fe ff ff    	mov    -0x168(%ebp),%edx
    a90d:	c7 05 24 05 50 00 0a 	movl   $0xa,0x500524
    a914:	00 00 00 
    a917:	8b 74 ba 48          	mov    0x48(%edx,%edi,4),%esi
    a91b:	c7 04 24 59 b2 00 00 	movl   $0xb259,(%esp)
    a922:	e8 59 7c ff ff       	call   0x2580
    a927:	89 7c 24 04          	mov    %edi,0x4(%esp)
    a92b:	83 c7 01             	add    $0x1,%edi
    a92e:	c7 44 24 0c 00 00 00 	movl   $0x0,0xc(%esp)
    a935:	00 
    a936:	89 5c 24 08          	mov    %ebx,0x8(%esp)
    a93a:	c7 04 24 24 05 50 00 	movl   $0x500524,(%esp)
    a941:	e8 4a 82 ff ff       	call   0x2b90
    a946:	89 1c 24             	mov    %ebx,(%esp)
    a949:	c6 44 05 90 00       	movb   $0x0,-0x70(%ebp,%eax,1)
    a94e:	e8 2d 7c ff ff       	call   0x2580
    a953:	c7 04 24 07 b2 00 00 	movl   $0xb207,(%esp)
    a95a:	e8 21 7c ff ff       	call   0x2580
    a95f:	c7 44 24 0c 00 00 00 	movl   $0x0,0xc(%esp)
    a966:	00 
    a967:	89 5c 24 08          	mov    %ebx,0x8(%esp)
    a96b:	89 74 24 04          	mov    %esi,0x4(%esp)
    a96f:	c7 04 24 24 05 50 00 	movl   $0x500524,(%esp)
    a976:	e8 15 82 ff ff       	call   0x2b90
    a97b:	89 1c 24             	mov    %ebx,(%esp)
    a97e:	c6 44 05 90 00       	movb   $0x0,-0x70(%ebp,%eax,1)
    a983:	e8 f8 7b ff ff       	call   0x2580
    a988:	0f b6 05 28 05 50 00 	movzbl 0x500528,%eax
    a98f:	0f b6 c0             	movzbl %al,%eax
    a992:	89 04 24             	mov    %eax,(%esp)
    a995:	e8 86 7f ff ff       	call   0x2920
    a99a:	c7 04 24 a7 b1 00 00 	movl   $0xb1a7,(%esp)
    a9a1:	e8 da 7b ff ff       	call   0x2580
    a9a6:	8b 95 98 fe ff ff    	mov    -0x168(%ebp),%edx
    a9ac:	c7 05 24 05 50 00 0a 	movl   $0xa,0x500524
    a9b3:	00 00 00 
    a9b6:	a1 ec 04 50 00       	mov    0x5004ec,%eax
    a9bb:	39 c7                	cmp    %eax,%edi
    a9bd:	0f 82 ae fe ff ff    	jb     0xa871
    a9c3:	89 d6                	mov    %edx,%esi
    a9c5:	8b 85 f0 fe ff ff    	mov    -0x110(%ebp),%eax
    a9cb:	8b 95 f4 fe ff ff    	mov    -0x10c(%ebp),%edx
    a9d1:	2b 46 68             	sub    0x68(%esi),%eax
    a9d4:	1b 56 6c             	sbb    0x6c(%esi),%edx
    a9d7:	c7 44 24 08 40 42 0f 	movl   $0xf4240,0x8(%esp)
    a9de:	00 
    a9df:	c7 44 24 0c 00 00 00 	movl   $0x0,0xc(%esp)
    a9e6:	00 
    a9e7:	89 04 24             	mov    %eax,(%esp)
    a9ea:	89 54 24 04          	mov    %edx,0x4(%esp)
    a9ee:	e8 e5 02 00 00       	call   0xacd8
    a9f3:	c7 04 24 62 b2 00 00 	movl   $0xb262,(%esp)
    a9fa:	89 c6                	mov    %eax,%esi
    a9fc:	89 d7                	mov    %edx,%edi
    a9fe:	e8 7d 7b ff ff       	call   0x2580
    aa03:	8b 95 f4 fe ff ff    	mov    -0x10c(%ebp),%edx
    aa09:	8b 85 f0 fe ff ff    	mov    -0x110(%ebp),%eax
    aa0f:	c7 44 24 10 00 00 00 	movl   $0x0,0x10(%esp)
    aa16:	00 
    aa17:	89 5c 24 0c          	mov    %ebx,0xc(%esp)
    aa1b:	89 54 24 08          	mov    %edx,0x8(%esp)
    aa1f:	89 44 24 04          	mov    %eax,0x4(%esp)
    aa23:	c7 04 24 24 05 50 00 	movl   $0x500524,(%esp)
    aa2a:	e8 81 82 ff ff       	call   0x2cb0
    aa2f:	89 1c 24             	mov    %ebx,(%esp)
    aa32:	c6 44 05 90 00       	movb   $0x0,-0x70(%ebp,%eax,1)
    aa37:	e8 44 7b ff ff       	call   0x2580
    aa3c:	c7 04 24 7e b2 00 00 	movl   $0xb27e,(%esp)
    aa43:	e8 38 7b ff ff       	call   0x2580
    aa48:	c7 44 24 10 00 00 00 	movl   $0x0,0x10(%esp)
    aa4f:	00 
    aa50:	89 5c 24 0c          	mov    %ebx,0xc(%esp)
    aa54:	89 74 24 04          	mov    %esi,0x4(%esp)
    aa58:	89 7c 24 08          	mov    %edi,0x8(%esp)
    aa5c:	c7 04 24 24 05 50 00 	movl   $0x500524,(%esp)
    aa63:	e8 48 82 ff ff       	call   0x2cb0
    aa68:	89 1c 24             	mov    %ebx,(%esp)
    aa6b:	c6 44 05 90 00       	movb   $0x0,-0x70(%ebp,%eax,1)
    aa70:	e8 0b 7b ff ff       	call   0x2580
    aa75:	0f b6 05 28 05 50 00 	movzbl 0x500528,%eax
    aa7c:	0f b6 c0             	movzbl %al,%eax
    aa7f:	89 04 24             	mov    %eax,(%esp)
    aa82:	e8 99 7e ff ff       	call   0x2920
    aa87:	c7 04 24 a7 b1 00 00 	movl   $0xb1a7,(%esp)
    aa8e:	e8 ed 7a ff ff       	call   0x2580
    aa93:	c7 05 24 05 50 00 0a 	movl   $0xa,0x500524
    aa9a:	00 00 00 
    aa9d:	c7 04 24 82 b2 00 00 	movl   $0xb282,(%esp)
    aaa4:	eb ca                	jmp    0xaa70
    aaa6:	90                   	nop
    aaa7:	90                   	nop
    aaa8:	90                   	nop
    aaa9:	90                   	nop
    aaaa:	90                   	nop
    aaab:	90                   	nop
    aaac:	90                   	nop
    aaad:	90                   	nop
    aaae:	90                   	nop
    aaaf:	90                   	nop
    aab0:	55                   	push   %ebp
    aab1:	89 e5                	mov    %esp,%ebp
    aab3:	57                   	push   %edi
    aab4:	56                   	push   %esi
    aab5:	53                   	push   %ebx
    aab6:	31 db                	xor    %ebx,%ebx
    aab8:	83 ec 6c             	sub    $0x6c,%esp
    aabb:	8b 7d 08             	mov    0x8(%ebp),%edi
    aabe:	c7 04 24 93 b2 00 00 	movl   $0xb293,(%esp)
    aac5:	8d 75 a8             	lea    -0x58(%ebp),%esi
    aac8:	e8 b3 7a ff ff       	call   0x2580
    aacd:	0f b6 05 28 05 50 00 	movzbl 0x500528,%eax
    aad4:	0f b6 c0             	movzbl %al,%eax
    aad7:	89 04 24             	mov    %eax,(%esp)
    aada:	e8 41 7e ff ff       	call   0x2920
    aadf:	c7 04 24 a7 b1 00 00 	movl   $0xb1a7,(%esp)
    aae6:	e8 95 7a ff ff       	call   0x2580
    aaeb:	c7 05 24 05 50 00 0a 	movl   $0xa,0x500524
    aaf2:	00 00 00 
    aaf5:	c7 04 24 38 af 00 00 	movl   $0xaf38,(%esp)
    aafc:	e8 7f 7a ff ff       	call   0x2580
    ab01:	c7 05 24 05 50 00 10 	movl   $0x10,0x500524
    ab08:	00 00 00 
    ab0b:	c7 44 24 0c 00 00 00 	movl   $0x0,0xc(%esp)
    ab12:	00 
    ab13:	89 74 24 08          	mov    %esi,0x8(%esp)
    ab17:	0f b6 47 78          	movzbl 0x78(%edi),%eax
    ab1b:	c7 04 24 24 05 50 00 	movl   $0x500524,(%esp)
    ab22:	89 44 24 04          	mov    %eax,0x4(%esp)
    ab26:	e8 65 80 ff ff       	call   0x2b90
    ab2b:	89 34 24             	mov    %esi,(%esp)
    ab2e:	c6 44 05 a8 00       	movb   $0x0,-0x58(%ebp,%eax,1)
    ab33:	e8 48 7a ff ff       	call   0x2580
    ab38:	83 c3 01             	add    $0x1,%ebx
    ab3b:	c7 04 24 4e b0 00 00 	movl   $0xb04e,(%esp)
    ab42:	e8 39 7a ff ff       	call   0x2580
    ab47:	83 fb 06             	cmp    $0x6,%ebx
    ab4a:	74 33                	je     0xab7f
    ab4c:	c7 44 24 0c 00 00 00 	movl   $0x0,0xc(%esp)
    ab53:	00 
    ab54:	89 74 24 08          	mov    %esi,0x8(%esp)
    ab58:	0f b6 44 1f 78       	movzbl 0x78(%edi,%ebx,1),%eax
    ab5d:	c7 04 24 24 05 50 00 	movl   $0x500524,(%esp)
    ab64:	89 44 24 04          	mov    %eax,0x4(%esp)
    ab68:	e8 23 80 ff ff       	call   0x2b90
    ab6d:	89 34 24             	mov    %esi,(%esp)
    ab70:	c6 44 05 a8 00       	movb   $0x0,-0x58(%ebp,%eax,1)
    ab75:	e8 06 7a ff ff       	call   0x2580
    ab7a:	83 fb 05             	cmp    $0x5,%ebx
    ab7d:	75 b9                	jne    0xab38
    ab7f:	c7 05 24 05 50 00 0a 	movl   $0xa,0x500524
    ab86:	00 00 00 
    ab89:	31 db                	xor    %ebx,%ebx
    ab8b:	c7 04 24 3a af 00 00 	movl   $0xaf3a,(%esp)
    ab92:	e8 e9 79 ff ff       	call   0x2580
    ab97:	89 f6                	mov    %esi,%esi
    ab99:	8d bc 27 00 00 00 00 	lea    0x0(%edi,%eiz,1),%edi
    aba0:	c7 44 24 0c 00 00 00 	movl   $0x0,0xc(%esp)
    aba7:	00 
    aba8:	89 74 24 08          	mov    %esi,0x8(%esp)
    abac:	8b 84 9f 88 00 00 00 	mov    0x88(%edi,%ebx,4),%eax
    abb3:	83 c3 01             	add    $0x1,%ebx
    abb6:	c7 04 24 24 05 50 00 	movl   $0x500524,(%esp)
    abbd:	89 44 24 04          	mov    %eax,0x4(%esp)
    abc1:	e8 ca 7f ff ff       	call   0x2b90
    abc6:	89 34 24             	mov    %esi,(%esp)
    abc9:	c6 44 05 a8 00       	movb   $0x0,-0x58(%ebp,%eax,1)
    abce:	e8 ad 79 ff ff       	call   0x2580
    abd3:	c7 04 24 3a af 00 00 	movl   $0xaf3a,(%esp)
    abda:	e8 a1 79 ff ff       	call   0x2580
    abdf:	83 fb 0c             	cmp    $0xc,%ebx
    abe2:	75 bc                	jne    0xaba0
    abe4:	89 74 24 0c          	mov    %esi,0xc(%esp)
    abe8:	c7 44 24 10 00 00 00 	movl   $0x0,0x10(%esp)
    abef:	00 
    abf0:	8b 57 6c             	mov    0x6c(%edi),%edx
    abf3:	8b 47 68             	mov    0x68(%edi),%eax
    abf6:	c7 04 24 24 05 50 00 	movl   $0x500524,(%esp)
    abfd:	89 54 24 08          	mov    %edx,0x8(%esp)
    ac01:	89 44 24 04          	mov    %eax,0x4(%esp)
    ac05:	e8 a6 80 ff ff       	call   0x2cb0
    ac0a:	89 34 24             	mov    %esi,(%esp)
    ac0d:	c6 44 05 a8 00       	movb   $0x0,-0x58(%ebp,%eax,1)
    ac12:	e8 69 79 ff ff       	call   0x2580
    ac17:	c7 04 24 3a af 00 00 	movl   $0xaf3a,(%esp)
    ac1e:	e8 5d 79 ff ff       	call   0x2580
    ac23:	89 74 24 0c          	mov    %esi,0xc(%esp)
    ac27:	c7 44 24 10 00 00 00 	movl   $0x0,0x10(%esp)
    ac2e:	00 
    ac2f:	8b 57 74             	mov    0x74(%edi),%edx
    ac32:	8b 47 70             	mov    0x70(%edi),%eax
    ac35:	c7 04 24 24 05 50 00 	movl   $0x500524,(%esp)
    ac3c:	89 54 24 08          	mov    %edx,0x8(%esp)
    ac40:	89 44 24 04          	mov    %eax,0x4(%esp)
    ac44:	e8 67 80 ff ff       	call   0x2cb0
    ac49:	89 34 24             	mov    %esi,(%esp)
    ac4c:	c6 44 05 a8 00       	movb   $0x0,-0x58(%ebp,%eax,1)
    ac51:	e8 2a 79 ff ff       	call   0x2580
    ac56:	c7 04 24 4e b2 00 00 	movl   $0xb24e,(%esp)
    ac5d:	e8 1e 79 ff ff       	call   0x2580
    ac62:	0f b6 05 28 05 50 00 	movzbl 0x500528,%eax
    ac69:	0f b6 c0             	movzbl %al,%eax
    ac6c:	89 04 24             	mov    %eax,(%esp)
    ac6f:	e8 ac 7c ff ff       	call   0x2920
    ac74:	c7 04 24 a7 b1 00 00 	movl   $0xb1a7,(%esp)
    ac7b:	e8 00 79 ff ff       	call   0x2580
    ac80:	c7 04 24 a2 b2 00 00 	movl   $0xb2a2,(%esp)
    ac87:	c7 05 24 05 50 00 0a 	movl   $0xa,0x500524
    ac8e:	00 00 00 
    ac91:	e8 ea 78 ff ff       	call   0x2580
    ac96:	0f b6 05 28 05 50 00 	movzbl 0x500528,%eax
    ac9d:	0f b6 c0             	movzbl %al,%eax
    aca0:	89 04 24             	mov    %eax,(%esp)
    aca3:	e8 78 7c ff ff       	call   0x2920
    aca8:	c7 04 24 a7 b1 00 00 	movl   $0xb1a7,(%esp)
    acaf:	e8 cc 78 ff ff       	call   0x2580
    acb4:	c7 05 24 05 50 00 0a 	movl   $0xa,0x500524
    acbb:	00 00 00 
    acbe:	83 c4 6c             	add    $0x6c,%esp
    acc1:	5b                   	pop    %ebx
    acc2:	5e                   	pop    %esi
    acc3:	5f                   	pop    %edi
    acc4:	5d                   	pop    %ebp
    acc5:	c3                   	ret    
    acc6:	90                   	nop
    acc7:	90                   	nop
    acc8:	90                   	nop
    acc9:	90                   	nop
    acca:	90                   	nop
    accb:	90                   	nop
    accc:	90                   	nop
    accd:	90                   	nop
    acce:	90                   	nop
    accf:	90                   	nop
    acd0:	55                   	push   %ebp
    acd1:	89 e5                	mov    %esp,%ebp
    acd3:	5d                   	pop    %ebp
    acd4:	c3                   	ret    
    acd5:	90                   	nop
    acd6:	90                   	nop
    acd7:	90                   	nop
    acd8:	55                   	push   %ebp
    acd9:	89 e5                	mov    %esp,%ebp
    acdb:	57                   	push   %edi
    acdc:	56                   	push   %esi
    acdd:	83 ec 30             	sub    $0x30,%esp
    ace0:	8b 45 10             	mov    0x10(%ebp),%eax
    ace3:	8b 55 08             	mov    0x8(%ebp),%edx
    ace6:	8b 4d 0c             	mov    0xc(%ebp),%ecx
    ace9:	89 45 f4             	mov    %eax,-0xc(%ebp)
    acec:	8b 45 14             	mov    0x14(%ebp),%eax
    acef:	89 55 ec             	mov    %edx,-0x14(%ebp)
    acf2:	89 4d f0             	mov    %ecx,-0x10(%ebp)
    acf5:	85 c0                	test   %eax,%eax
    acf7:	75 43                	jne    0xad3c
    acf9:	39 4d f4             	cmp    %ecx,-0xc(%ebp)
    acfc:	76 10                	jbe    0xad0e
    acfe:	89 d6                	mov    %edx,%esi
    ad00:	89 ca                	mov    %ecx,%edx
    ad02:	89 f0                	mov    %esi,%eax
    ad04:	f7 75 f4             	divl   -0xc(%ebp)
    ad07:	89 c6                	mov    %eax,%esi
    ad09:	e9 bc 00 00 00       	jmp    0xadca
    ad0e:	83 7d f4 00          	cmpl   $0x0,-0xc(%ebp)
    ad12:	75 0d                	jne    0xad21
    ad14:	b8 01 00 00 00       	mov    $0x1,%eax
    ad19:	31 d2                	xor    %edx,%edx
    ad1b:	f7 75 f4             	divl   -0xc(%ebp)
    ad1e:	89 45 f4             	mov    %eax,-0xc(%ebp)
    ad21:	8b 4d f0             	mov    -0x10(%ebp),%ecx
    ad24:	31 d2                	xor    %edx,%edx
    ad26:	8b 75 ec             	mov    -0x14(%ebp),%esi
    ad29:	89 c8                	mov    %ecx,%eax
    ad2b:	f7 75 f4             	divl   -0xc(%ebp)
    ad2e:	89 c1                	mov    %eax,%ecx
    ad30:	89 f0                	mov    %esi,%eax
    ad32:	f7 75 f4             	divl   -0xc(%ebp)
    ad35:	89 c6                	mov    %eax,%esi
    ad37:	e9 96 00 00 00       	jmp    0xadd2
    ad3c:	3b 45 f0             	cmp    -0x10(%ebp),%eax
    ad3f:	0f 87 89 00 00 00    	ja     0xadce
    ad45:	0f bd d0             	bsr    %eax,%edx
    ad48:	83 f2 1f             	xor    $0x1f,%edx
    ad4b:	89 55 d4             	mov    %edx,-0x2c(%ebp)
    ad4e:	75 16                	jne    0xad66
    ad50:	8b 4d f4             	mov    -0xc(%ebp),%ecx
    ad53:	39 4d ec             	cmp    %ecx,-0x14(%ebp)
    ad56:	73 05                	jae    0xad5d
    ad58:	39 45 f0             	cmp    %eax,-0x10(%ebp)
    ad5b:	76 71                	jbe    0xadce
    ad5d:	31 c9                	xor    %ecx,%ecx
    ad5f:	be 01 00 00 00       	mov    $0x1,%esi
    ad64:	eb 6c                	jmp    0xadd2
    ad66:	8a 4d d4             	mov    -0x2c(%ebp),%cl
    ad69:	be 20 00 00 00       	mov    $0x20,%esi
    ad6e:	89 c2                	mov    %eax,%edx
    ad70:	89 f7                	mov    %esi,%edi
    ad72:	8b 45 f4             	mov    -0xc(%ebp),%eax
    ad75:	2b 7d d4             	sub    -0x2c(%ebp),%edi
    ad78:	8b 75 f4             	mov    -0xc(%ebp),%esi
    ad7b:	d3 e2                	shl    %cl,%edx
    ad7d:	89 f9                	mov    %edi,%ecx
    ad7f:	d3 e8                	shr    %cl,%eax
    ad81:	8a 4d d4             	mov    -0x2c(%ebp),%cl
    ad84:	09 d0                	or     %edx,%eax
    ad86:	8b 55 f0             	mov    -0x10(%ebp),%edx
    ad89:	89 45 e4             	mov    %eax,-0x1c(%ebp)
    ad8c:	8b 45 f0             	mov    -0x10(%ebp),%eax
    ad8f:	d3 e6                	shl    %cl,%esi
    ad91:	89 f9                	mov    %edi,%ecx
    ad93:	d3 ea                	shr    %cl,%edx
    ad95:	8a 4d d4             	mov    -0x2c(%ebp),%cl
    ad98:	89 75 e8             	mov    %esi,-0x18(%ebp)
    ad9b:	8b 75 ec             	mov    -0x14(%ebp),%esi
    ad9e:	d3 e0                	shl    %cl,%eax
    ada0:	89 f9                	mov    %edi,%ecx
    ada2:	d3 ee                	shr    %cl,%esi
    ada4:	09 c6                	or     %eax,%esi
    ada6:	89 f0                	mov    %esi,%eax
    ada8:	f7 75 e4             	divl   -0x1c(%ebp)
    adab:	89 55 f4             	mov    %edx,-0xc(%ebp)
    adae:	89 c6                	mov    %eax,%esi
    adb0:	f7 65 e8             	mull   -0x18(%ebp)
    adb3:	3b 55 f4             	cmp    -0xc(%ebp),%edx
    adb6:	77 11                	ja     0xadc9
    adb8:	8b 7d ec             	mov    -0x14(%ebp),%edi
    adbb:	8a 4d d4             	mov    -0x2c(%ebp),%cl
    adbe:	d3 e7                	shl    %cl,%edi
    adc0:	39 f8                	cmp    %edi,%eax
    adc2:	76 06                	jbe    0xadca
    adc4:	3b 55 f4             	cmp    -0xc(%ebp),%edx
    adc7:	75 01                	jne    0xadca
    adc9:	4e                   	dec    %esi
    adca:	31 c9                	xor    %ecx,%ecx
    adcc:	eb 04                	jmp    0xadd2
    adce:	31 c9                	xor    %ecx,%ecx
    add0:	31 f6                	xor    %esi,%esi
    add2:	89 f0                	mov    %esi,%eax
    add4:	89 ca                	mov    %ecx,%edx
    add6:	83 c4 30             	add    $0x30,%esp
    add9:	5e                   	pop    %esi
    adda:	5f                   	pop    %edi
    addb:	5d                   	pop    %ebp
    addc:	c3                   	ret    
    addd:	90                   	nop
    adde:	90                   	nop
    addf:	90                   	nop
    ade0:	55                   	push   %ebp
    ade1:	89 e5                	mov    %esp,%ebp
    ade3:	57                   	push   %edi
    ade4:	56                   	push   %esi
    ade5:	83 ec 20             	sub    $0x20,%esp
    ade8:	8b 55 14             	mov    0x14(%ebp),%edx
    adeb:	8b 45 08             	mov    0x8(%ebp),%eax
    adee:	8b 75 10             	mov    0x10(%ebp),%esi
    adf1:	8b 7d 0c             	mov    0xc(%ebp),%edi
    adf4:	85 d2                	test   %edx,%edx
    adf6:	89 45 e4             	mov    %eax,-0x1c(%ebp)
    adf9:	89 c1                	mov    %eax,%ecx
    adfb:	75 2c                	jne    0xae29
    adfd:	39 fe                	cmp    %edi,%esi
    adff:	76 06                	jbe    0xae07
    ae01:	89 fa                	mov    %edi,%edx
    ae03:	f7 f6                	div    %esi
    ae05:	eb 19                	jmp    0xae20
    ae07:	85 f6                	test   %esi,%esi
    ae09:	75 0b                	jne    0xae16
    ae0b:	b8 01 00 00 00       	mov    $0x1,%eax
    ae10:	31 d2                	xor    %edx,%edx
    ae12:	f7 f6                	div    %esi
    ae14:	89 c6                	mov    %eax,%esi
    ae16:	89 f8                	mov    %edi,%eax
    ae18:	31 d2                	xor    %edx,%edx
    ae1a:	f7 f6                	div    %esi
    ae1c:	89 c8                	mov    %ecx,%eax
    ae1e:	f7 f6                	div    %esi
    ae20:	89 d0                	mov    %edx,%eax
    ae22:	31 ff                	xor    %edi,%edi
    ae24:	e9 9e 00 00 00       	jmp    0xaec7
    ae29:	39 fa                	cmp    %edi,%edx
    ae2b:	0f 87 96 00 00 00    	ja     0xaec7
    ae31:	0f bd c2             	bsr    %edx,%eax
    ae34:	83 f0 1f             	xor    $0x1f,%eax
    ae37:	89 45 f4             	mov    %eax,-0xc(%ebp)
    ae3a:	75 10                	jne    0xae4c
    ae3c:	39 f1                	cmp    %esi,%ecx
    ae3e:	73 04                	jae    0xae44
    ae40:	39 d7                	cmp    %edx,%edi
    ae42:	76 04                	jbe    0xae48
    ae44:	29 f1                	sub    %esi,%ecx
    ae46:	19 d7                	sbb    %edx,%edi
    ae48:	89 c8                	mov    %ecx,%eax
    ae4a:	eb 7b                	jmp    0xaec7
    ae4c:	8a 4d f4             	mov    -0xc(%ebp),%cl
    ae4f:	b8 20 00 00 00       	mov    $0x20,%eax
    ae54:	2b 45 f4             	sub    -0xc(%ebp),%eax
    ae57:	d3 e2                	shl    %cl,%edx
    ae59:	89 45 e8             	mov    %eax,-0x18(%ebp)
    ae5c:	8a 4d e8             	mov    -0x18(%ebp),%cl
    ae5f:	89 55 f0             	mov    %edx,-0x10(%ebp)
    ae62:	89 f2                	mov    %esi,%edx
    ae64:	8b 45 e4             	mov    -0x1c(%ebp),%eax
    ae67:	d3 ea                	shr    %cl,%edx
    ae69:	8a 4d f4             	mov    -0xc(%ebp),%cl
    ae6c:	0b 55 f0             	or     -0x10(%ebp),%edx
    ae6f:	d3 e6                	shl    %cl,%esi
    ae71:	8a 4d e8             	mov    -0x18(%ebp),%cl
    ae74:	89 75 ec             	mov    %esi,-0x14(%ebp)
    ae77:	89 fe                	mov    %edi,%esi
    ae79:	89 55 f0             	mov    %edx,-0x10(%ebp)
    ae7c:	d3 ee                	shr    %cl,%esi
    ae7e:	8a 4d f4             	mov    -0xc(%ebp),%cl
    ae81:	89 f2                	mov    %esi,%edx
    ae83:	d3 e7                	shl    %cl,%edi
    ae85:	8a 4d e8             	mov    -0x18(%ebp),%cl
    ae88:	d3 e8                	shr    %cl,%eax
    ae8a:	8a 4d f4             	mov    -0xc(%ebp),%cl
    ae8d:	09 f8                	or     %edi,%eax
    ae8f:	8b 7d e4             	mov    -0x1c(%ebp),%edi
    ae92:	f7 75 f0             	divl   -0x10(%ebp)
    ae95:	89 d6                	mov    %edx,%esi
    ae97:	f7 65 ec             	mull   -0x14(%ebp)
    ae9a:	d3 e7                	shl    %cl,%edi
    ae9c:	39 f2                	cmp    %esi,%edx
    ae9e:	77 08                	ja     0xaea8
    aea0:	39 f8                	cmp    %edi,%eax
    aea2:	76 0a                	jbe    0xaeae
    aea4:	39 f2                	cmp    %esi,%edx
    aea6:	75 06                	jne    0xaeae
    aea8:	2b 45 ec             	sub    -0x14(%ebp),%eax
    aeab:	1b 55 f0             	sbb    -0x10(%ebp),%edx
    aeae:	8a 4d f4             	mov    -0xc(%ebp),%cl
    aeb1:	29 c7                	sub    %eax,%edi
    aeb3:	19 d6                	sbb    %edx,%esi
    aeb5:	89 f0                	mov    %esi,%eax
    aeb7:	d3 ef                	shr    %cl,%edi
    aeb9:	8a 4d e8             	mov    -0x18(%ebp),%cl
    aebc:	d3 e0                	shl    %cl,%eax
    aebe:	8a 4d f4             	mov    -0xc(%ebp),%cl
    aec1:	09 f8                	or     %edi,%eax
    aec3:	89 f7                	mov    %esi,%edi
    aec5:	d3 ef                	shr    %cl,%edi
    aec7:	89 fa                	mov    %edi,%edx
    aec9:	83 c4 20             	add    $0x20,%esp
    aecc:	5e                   	pop    %esi
    aecd:	5f                   	pop    %edi
    aece:	5d                   	pop    %ebp
    aecf:	c3                   	ret    

Disassembly of section .fini:

0000aed0 <.fini>:
    aed0:	55                   	push   %ebp
    aed1:	89 e5                	mov    %esp,%ebp
    aed3:	53                   	push   %ebx
    aed4:	83 ec 04             	sub    $0x4,%esp
    aed7:	a1 00 01 40 00       	mov    0x400100,%eax
    aedc:	85 c0                	test   %eax,%eax
    aede:	75 2b                	jne    0xaf0b
    aee0:	a1 44 c0 00 00       	mov    0xc044,%eax
    aee5:	c7 05 00 01 40 00 01 	movl   $0x1,0x400100
    aeec:	00 00 00 
    aeef:	85 c0                	test   %eax,%eax
    aef1:	74 18                	je     0xaf0b
    aef3:	bb 44 c0 00 00       	mov    $0xc044,%ebx
    aef8:	90                   	nop
    aef9:	8d b4 26 00 00 00 00 	lea    0x0(%esi,%eiz,1),%esi
    af00:	83 c3 04             	add    $0x4,%ebx
    af03:	ff d0                	call   *%eax
    af05:	8b 03                	mov    (%ebx),%eax
    af07:	85 c0                	test   %eax,%eax
    af09:	75 f5                	jne    0xaf00
    af0b:	83 c4 04             	add    $0x4,%esp
    af0e:	5b                   	pop    %ebx
    af0f:	5d                   	pop    %ebp
    af10:	c3                   	ret    
